ARM GAS  /tmp/ccIre3F4.s 			page 1


   1              		.syntax unified
   2              		.cpu cortex-m4
   3              		.eabi_attribute 27, 1
   4              		.eabi_attribute 28, 1
   5              		.fpu fpv4-sp-d16
   6              		.eabi_attribute 20, 1
   7              		.eabi_attribute 21, 1
   8              		.eabi_attribute 23, 3
   9              		.eabi_attribute 24, 1
  10              		.eabi_attribute 25, 1
  11              		.eabi_attribute 26, 1
  12              		.eabi_attribute 30, 6
  13              		.eabi_attribute 34, 1
  14              		.eabi_attribute 18, 4
  15              		.thumb
  16              		.file	"stm32f3xx_hal_rcc_ex.c"
  17              		.text
  18              	.Ltext0:
  19              		.cfi_sections	.debug_frame
  20              		.section	.text.HAL_RCCEx_PeriphCLKConfig,"ax",%progbits
  21              		.align	2
  22              		.global	HAL_RCCEx_PeriphCLKConfig
  23              		.thumb
  24              		.thumb_func
  26              	HAL_RCCEx_PeriphCLKConfig:
  27              	.LFB123:
  28              		.file 1 "../../Drivers/STM32F3xx_HAL_Driver/Src/stm32f3xx_hal_rcc_ex.c"
   1:../../Drivers/STM32F3xx_HAL_Driver/Src/stm32f3xx_hal_rcc_ex.c **** /**
   2:../../Drivers/STM32F3xx_HAL_Driver/Src/stm32f3xx_hal_rcc_ex.c ****   ******************************************************************************
   3:../../Drivers/STM32F3xx_HAL_Driver/Src/stm32f3xx_hal_rcc_ex.c ****   * @file    stm32f3xx_hal_rcc_ex.c
   4:../../Drivers/STM32F3xx_HAL_Driver/Src/stm32f3xx_hal_rcc_ex.c ****   * @author  MCD Application Team
   5:../../Drivers/STM32F3xx_HAL_Driver/Src/stm32f3xx_hal_rcc_ex.c ****   * @version V1.4.0
   6:../../Drivers/STM32F3xx_HAL_Driver/Src/stm32f3xx_hal_rcc_ex.c ****   * @date    16-December-2016
   7:../../Drivers/STM32F3xx_HAL_Driver/Src/stm32f3xx_hal_rcc_ex.c ****   * @brief   Extended RCC HAL module driver.
   8:../../Drivers/STM32F3xx_HAL_Driver/Src/stm32f3xx_hal_rcc_ex.c ****   *          This file provides firmware functions to manage the following 
   9:../../Drivers/STM32F3xx_HAL_Driver/Src/stm32f3xx_hal_rcc_ex.c ****   *          functionalities RCC extension peripheral:
  10:../../Drivers/STM32F3xx_HAL_Driver/Src/stm32f3xx_hal_rcc_ex.c ****   *           + Extended Peripheral Control functions
  11:../../Drivers/STM32F3xx_HAL_Driver/Src/stm32f3xx_hal_rcc_ex.c ****   *  
  12:../../Drivers/STM32F3xx_HAL_Driver/Src/stm32f3xx_hal_rcc_ex.c ****   ******************************************************************************
  13:../../Drivers/STM32F3xx_HAL_Driver/Src/stm32f3xx_hal_rcc_ex.c ****   * @attention
  14:../../Drivers/STM32F3xx_HAL_Driver/Src/stm32f3xx_hal_rcc_ex.c ****   *
  15:../../Drivers/STM32F3xx_HAL_Driver/Src/stm32f3xx_hal_rcc_ex.c ****   * <h2><center>&copy; COPYRIGHT(c) 2016 STMicroelectronics</center></h2>
  16:../../Drivers/STM32F3xx_HAL_Driver/Src/stm32f3xx_hal_rcc_ex.c ****   *
  17:../../Drivers/STM32F3xx_HAL_Driver/Src/stm32f3xx_hal_rcc_ex.c ****   * Redistribution and use in source and binary forms, with or without modification,
  18:../../Drivers/STM32F3xx_HAL_Driver/Src/stm32f3xx_hal_rcc_ex.c ****   * are permitted provided that the following conditions are met:
  19:../../Drivers/STM32F3xx_HAL_Driver/Src/stm32f3xx_hal_rcc_ex.c ****   *   1. Redistributions of source code must retain the above copyright notice,
  20:../../Drivers/STM32F3xx_HAL_Driver/Src/stm32f3xx_hal_rcc_ex.c ****   *      this list of conditions and the following disclaimer.
  21:../../Drivers/STM32F3xx_HAL_Driver/Src/stm32f3xx_hal_rcc_ex.c ****   *   2. Redistributions in binary form must reproduce the above copyright notice,
  22:../../Drivers/STM32F3xx_HAL_Driver/Src/stm32f3xx_hal_rcc_ex.c ****   *      this list of conditions and the following disclaimer in the documentation
  23:../../Drivers/STM32F3xx_HAL_Driver/Src/stm32f3xx_hal_rcc_ex.c ****   *      and/or other materials provided with the distribution.
  24:../../Drivers/STM32F3xx_HAL_Driver/Src/stm32f3xx_hal_rcc_ex.c ****   *   3. Neither the name of STMicroelectronics nor the names of its contributors
  25:../../Drivers/STM32F3xx_HAL_Driver/Src/stm32f3xx_hal_rcc_ex.c ****   *      may be used to endorse or promote products derived from this software
  26:../../Drivers/STM32F3xx_HAL_Driver/Src/stm32f3xx_hal_rcc_ex.c ****   *      without specific prior written permission.
  27:../../Drivers/STM32F3xx_HAL_Driver/Src/stm32f3xx_hal_rcc_ex.c ****   *
  28:../../Drivers/STM32F3xx_HAL_Driver/Src/stm32f3xx_hal_rcc_ex.c ****   * THIS SOFTWARE IS PROVIDED BY THE COPYRIGHT HOLDERS AND CONTRIBUTORS "AS IS"
  29:../../Drivers/STM32F3xx_HAL_Driver/Src/stm32f3xx_hal_rcc_ex.c ****   * AND ANY EXPRESS OR IMPLIED WARRANTIES, INCLUDING, BUT NOT LIMITED TO, THE
  30:../../Drivers/STM32F3xx_HAL_Driver/Src/stm32f3xx_hal_rcc_ex.c ****   * IMPLIED WARRANTIES OF MERCHANTABILITY AND FITNESS FOR A PARTICULAR PURPOSE ARE
ARM GAS  /tmp/ccIre3F4.s 			page 2


  31:../../Drivers/STM32F3xx_HAL_Driver/Src/stm32f3xx_hal_rcc_ex.c ****   * DISCLAIMED. IN NO EVENT SHALL THE COPYRIGHT HOLDER OR CONTRIBUTORS BE LIABLE
  32:../../Drivers/STM32F3xx_HAL_Driver/Src/stm32f3xx_hal_rcc_ex.c ****   * FOR ANY DIRECT, INDIRECT, INCIDENTAL, SPECIAL, EXEMPLARY, OR CONSEQUENTIAL
  33:../../Drivers/STM32F3xx_HAL_Driver/Src/stm32f3xx_hal_rcc_ex.c ****   * DAMAGES (INCLUDING, BUT NOT LIMITED TO, PROCUREMENT OF SUBSTITUTE GOODS OR
  34:../../Drivers/STM32F3xx_HAL_Driver/Src/stm32f3xx_hal_rcc_ex.c ****   * SERVICES; LOSS OF USE, DATA, OR PROFITS; OR BUSINESS INTERRUPTION) HOWEVER
  35:../../Drivers/STM32F3xx_HAL_Driver/Src/stm32f3xx_hal_rcc_ex.c ****   * CAUSED AND ON ANY THEORY OF LIABILITY, WHETHER IN CONTRACT, STRICT LIABILITY,
  36:../../Drivers/STM32F3xx_HAL_Driver/Src/stm32f3xx_hal_rcc_ex.c ****   * OR TORT (INCLUDING NEGLIGENCE OR OTHERWISE) ARISING IN ANY WAY OUT OF THE USE
  37:../../Drivers/STM32F3xx_HAL_Driver/Src/stm32f3xx_hal_rcc_ex.c ****   * OF THIS SOFTWARE, EVEN IF ADVISED OF THE POSSIBILITY OF SUCH DAMAGE.
  38:../../Drivers/STM32F3xx_HAL_Driver/Src/stm32f3xx_hal_rcc_ex.c ****   *
  39:../../Drivers/STM32F3xx_HAL_Driver/Src/stm32f3xx_hal_rcc_ex.c ****   ******************************************************************************
  40:../../Drivers/STM32F3xx_HAL_Driver/Src/stm32f3xx_hal_rcc_ex.c ****   */ 
  41:../../Drivers/STM32F3xx_HAL_Driver/Src/stm32f3xx_hal_rcc_ex.c **** 
  42:../../Drivers/STM32F3xx_HAL_Driver/Src/stm32f3xx_hal_rcc_ex.c **** /* Includes ------------------------------------------------------------------*/
  43:../../Drivers/STM32F3xx_HAL_Driver/Src/stm32f3xx_hal_rcc_ex.c **** #include "stm32f3xx_hal.h"
  44:../../Drivers/STM32F3xx_HAL_Driver/Src/stm32f3xx_hal_rcc_ex.c **** 
  45:../../Drivers/STM32F3xx_HAL_Driver/Src/stm32f3xx_hal_rcc_ex.c **** /** @addtogroup STM32F3xx_HAL_Driver
  46:../../Drivers/STM32F3xx_HAL_Driver/Src/stm32f3xx_hal_rcc_ex.c ****   * @{
  47:../../Drivers/STM32F3xx_HAL_Driver/Src/stm32f3xx_hal_rcc_ex.c ****   */
  48:../../Drivers/STM32F3xx_HAL_Driver/Src/stm32f3xx_hal_rcc_ex.c **** 
  49:../../Drivers/STM32F3xx_HAL_Driver/Src/stm32f3xx_hal_rcc_ex.c **** #ifdef HAL_RCC_MODULE_ENABLED
  50:../../Drivers/STM32F3xx_HAL_Driver/Src/stm32f3xx_hal_rcc_ex.c **** 
  51:../../Drivers/STM32F3xx_HAL_Driver/Src/stm32f3xx_hal_rcc_ex.c **** /** @defgroup RCCEx RCCEx
  52:../../Drivers/STM32F3xx_HAL_Driver/Src/stm32f3xx_hal_rcc_ex.c ****   * @brief RCC Extension HAL module driver.
  53:../../Drivers/STM32F3xx_HAL_Driver/Src/stm32f3xx_hal_rcc_ex.c ****   * @{
  54:../../Drivers/STM32F3xx_HAL_Driver/Src/stm32f3xx_hal_rcc_ex.c ****   */
  55:../../Drivers/STM32F3xx_HAL_Driver/Src/stm32f3xx_hal_rcc_ex.c **** 
  56:../../Drivers/STM32F3xx_HAL_Driver/Src/stm32f3xx_hal_rcc_ex.c **** /* Private typedef -----------------------------------------------------------*/
  57:../../Drivers/STM32F3xx_HAL_Driver/Src/stm32f3xx_hal_rcc_ex.c **** /* Private define ------------------------------------------------------------*/
  58:../../Drivers/STM32F3xx_HAL_Driver/Src/stm32f3xx_hal_rcc_ex.c **** /* Private macro -------------------------------------------------------------*/
  59:../../Drivers/STM32F3xx_HAL_Driver/Src/stm32f3xx_hal_rcc_ex.c **** /** @defgroup RCCEx_Private_Macros RCCEx Private Macros
  60:../../Drivers/STM32F3xx_HAL_Driver/Src/stm32f3xx_hal_rcc_ex.c ****  * @{
  61:../../Drivers/STM32F3xx_HAL_Driver/Src/stm32f3xx_hal_rcc_ex.c ****  */
  62:../../Drivers/STM32F3xx_HAL_Driver/Src/stm32f3xx_hal_rcc_ex.c **** /**
  63:../../Drivers/STM32F3xx_HAL_Driver/Src/stm32f3xx_hal_rcc_ex.c ****   * @}
  64:../../Drivers/STM32F3xx_HAL_Driver/Src/stm32f3xx_hal_rcc_ex.c ****   */
  65:../../Drivers/STM32F3xx_HAL_Driver/Src/stm32f3xx_hal_rcc_ex.c **** 
  66:../../Drivers/STM32F3xx_HAL_Driver/Src/stm32f3xx_hal_rcc_ex.c **** /* Private variables ---------------------------------------------------------*/
  67:../../Drivers/STM32F3xx_HAL_Driver/Src/stm32f3xx_hal_rcc_ex.c **** /* Private function prototypes -----------------------------------------------*/
  68:../../Drivers/STM32F3xx_HAL_Driver/Src/stm32f3xx_hal_rcc_ex.c **** /* Private functions ---------------------------------------------------------*/
  69:../../Drivers/STM32F3xx_HAL_Driver/Src/stm32f3xx_hal_rcc_ex.c **** #if defined(RCC_CFGR2_ADC1PRES) || defined(RCC_CFGR2_ADCPRE12) || defined(RCC_CFGR2_ADCPRE34) || de
  70:../../Drivers/STM32F3xx_HAL_Driver/Src/stm32f3xx_hal_rcc_ex.c ****  || defined(RCC_CFGR3_TIM1SW) || defined(RCC_CFGR3_TIM2SW) || defined(RCC_CFGR3_TIM8SW) || defined(
  71:../../Drivers/STM32F3xx_HAL_Driver/Src/stm32f3xx_hal_rcc_ex.c ****  || defined(RCC_CFGR3_TIM16SW) || defined(RCC_CFGR3_TIM17SW) || defined(RCC_CFGR3_TIM20SW) || defin
  72:../../Drivers/STM32F3xx_HAL_Driver/Src/stm32f3xx_hal_rcc_ex.c ****  || defined(RCC_CFGR3_HRTIM1SW)
  73:../../Drivers/STM32F3xx_HAL_Driver/Src/stm32f3xx_hal_rcc_ex.c **** /** @defgroup RCCEx_Private_Functions RCCEx Private Functions
  74:../../Drivers/STM32F3xx_HAL_Driver/Src/stm32f3xx_hal_rcc_ex.c ****   * @{
  75:../../Drivers/STM32F3xx_HAL_Driver/Src/stm32f3xx_hal_rcc_ex.c ****   */
  76:../../Drivers/STM32F3xx_HAL_Driver/Src/stm32f3xx_hal_rcc_ex.c **** static uint32_t RCC_GetPLLCLKFreq(void);
  77:../../Drivers/STM32F3xx_HAL_Driver/Src/stm32f3xx_hal_rcc_ex.c **** 
  78:../../Drivers/STM32F3xx_HAL_Driver/Src/stm32f3xx_hal_rcc_ex.c **** /**
  79:../../Drivers/STM32F3xx_HAL_Driver/Src/stm32f3xx_hal_rcc_ex.c ****   * @}
  80:../../Drivers/STM32F3xx_HAL_Driver/Src/stm32f3xx_hal_rcc_ex.c ****   */
  81:../../Drivers/STM32F3xx_HAL_Driver/Src/stm32f3xx_hal_rcc_ex.c **** #endif /* RCC_CFGR2_ADC1PRES || RCC_CFGR2_ADCPRExx || RCC_CFGR3_TIMxSW || RCC_CFGR3_HRTIM1SW || RCC
  82:../../Drivers/STM32F3xx_HAL_Driver/Src/stm32f3xx_hal_rcc_ex.c **** 
  83:../../Drivers/STM32F3xx_HAL_Driver/Src/stm32f3xx_hal_rcc_ex.c **** /** @defgroup RCCEx_Exported_Functions RCCEx Exported Functions
  84:../../Drivers/STM32F3xx_HAL_Driver/Src/stm32f3xx_hal_rcc_ex.c ****   * @{
  85:../../Drivers/STM32F3xx_HAL_Driver/Src/stm32f3xx_hal_rcc_ex.c ****   */
  86:../../Drivers/STM32F3xx_HAL_Driver/Src/stm32f3xx_hal_rcc_ex.c **** 
  87:../../Drivers/STM32F3xx_HAL_Driver/Src/stm32f3xx_hal_rcc_ex.c **** /** @defgroup RCCEx_Exported_Functions_Group1 Extended Peripheral Control functions 
ARM GAS  /tmp/ccIre3F4.s 			page 3


  88:../../Drivers/STM32F3xx_HAL_Driver/Src/stm32f3xx_hal_rcc_ex.c ****   * @brief    Extended Peripheral Control functions
  89:../../Drivers/STM32F3xx_HAL_Driver/Src/stm32f3xx_hal_rcc_ex.c ****   *
  90:../../Drivers/STM32F3xx_HAL_Driver/Src/stm32f3xx_hal_rcc_ex.c **** @verbatim   
  91:../../Drivers/STM32F3xx_HAL_Driver/Src/stm32f3xx_hal_rcc_ex.c ****  ===============================================================================
  92:../../Drivers/STM32F3xx_HAL_Driver/Src/stm32f3xx_hal_rcc_ex.c ****                 ##### Extended Peripheral Control functions  #####
  93:../../Drivers/STM32F3xx_HAL_Driver/Src/stm32f3xx_hal_rcc_ex.c ****  ===============================================================================  
  94:../../Drivers/STM32F3xx_HAL_Driver/Src/stm32f3xx_hal_rcc_ex.c ****     [..]
  95:../../Drivers/STM32F3xx_HAL_Driver/Src/stm32f3xx_hal_rcc_ex.c ****     This subsection provides a set of functions allowing to control the RCC Clocks 
  96:../../Drivers/STM32F3xx_HAL_Driver/Src/stm32f3xx_hal_rcc_ex.c ****     frequencies.
  97:../../Drivers/STM32F3xx_HAL_Driver/Src/stm32f3xx_hal_rcc_ex.c ****     [..] 
  98:../../Drivers/STM32F3xx_HAL_Driver/Src/stm32f3xx_hal_rcc_ex.c ****     (@) Important note: Care must be taken when HAL_RCCEx_PeriphCLKConfig() is used to
  99:../../Drivers/STM32F3xx_HAL_Driver/Src/stm32f3xx_hal_rcc_ex.c ****         select the RTC clock source; in this case the Backup domain will be reset in  
 100:../../Drivers/STM32F3xx_HAL_Driver/Src/stm32f3xx_hal_rcc_ex.c ****         order to modify the RTC Clock source, as consequence RTC registers (including 
 101:../../Drivers/STM32F3xx_HAL_Driver/Src/stm32f3xx_hal_rcc_ex.c ****         the backup registers) are set to their reset values.
 102:../../Drivers/STM32F3xx_HAL_Driver/Src/stm32f3xx_hal_rcc_ex.c ****       
 103:../../Drivers/STM32F3xx_HAL_Driver/Src/stm32f3xx_hal_rcc_ex.c **** @endverbatim
 104:../../Drivers/STM32F3xx_HAL_Driver/Src/stm32f3xx_hal_rcc_ex.c ****   * @{
 105:../../Drivers/STM32F3xx_HAL_Driver/Src/stm32f3xx_hal_rcc_ex.c ****   */
 106:../../Drivers/STM32F3xx_HAL_Driver/Src/stm32f3xx_hal_rcc_ex.c **** 
 107:../../Drivers/STM32F3xx_HAL_Driver/Src/stm32f3xx_hal_rcc_ex.c **** /**
 108:../../Drivers/STM32F3xx_HAL_Driver/Src/stm32f3xx_hal_rcc_ex.c ****   * @brief  Initializes the RCC extended peripherals clocks according to the specified
 109:../../Drivers/STM32F3xx_HAL_Driver/Src/stm32f3xx_hal_rcc_ex.c ****   *         parameters in the RCC_PeriphCLKInitTypeDef.
 110:../../Drivers/STM32F3xx_HAL_Driver/Src/stm32f3xx_hal_rcc_ex.c ****   * @param  PeriphClkInit pointer to an RCC_PeriphCLKInitTypeDef structure that
 111:../../Drivers/STM32F3xx_HAL_Driver/Src/stm32f3xx_hal_rcc_ex.c ****   *         contains the configuration information for the Extended Peripherals clocks
 112:../../Drivers/STM32F3xx_HAL_Driver/Src/stm32f3xx_hal_rcc_ex.c ****   *         (ADC, CEC, I2C, I2S, SDADC, HRTIM, TIM, USART, RTC and USB).
 113:../../Drivers/STM32F3xx_HAL_Driver/Src/stm32f3xx_hal_rcc_ex.c ****   *
 114:../../Drivers/STM32F3xx_HAL_Driver/Src/stm32f3xx_hal_rcc_ex.c ****   * @note   Care must be taken when HAL_RCCEx_PeriphCLKConfig() is used to select 
 115:../../Drivers/STM32F3xx_HAL_Driver/Src/stm32f3xx_hal_rcc_ex.c ****   *         the RTC clock source; in this case the Backup domain will be reset in  
 116:../../Drivers/STM32F3xx_HAL_Driver/Src/stm32f3xx_hal_rcc_ex.c ****   *         order to modify the RTC Clock source, as consequence RTC registers (including 
 117:../../Drivers/STM32F3xx_HAL_Driver/Src/stm32f3xx_hal_rcc_ex.c ****   *         the backup registers) and RCC_BDCR register are set to their reset values.
 118:../../Drivers/STM32F3xx_HAL_Driver/Src/stm32f3xx_hal_rcc_ex.c ****   *
 119:../../Drivers/STM32F3xx_HAL_Driver/Src/stm32f3xx_hal_rcc_ex.c ****   * @retval HAL status
 120:../../Drivers/STM32F3xx_HAL_Driver/Src/stm32f3xx_hal_rcc_ex.c ****   */
 121:../../Drivers/STM32F3xx_HAL_Driver/Src/stm32f3xx_hal_rcc_ex.c **** HAL_StatusTypeDef HAL_RCCEx_PeriphCLKConfig(RCC_PeriphCLKInitTypeDef  *PeriphClkInit)
 122:../../Drivers/STM32F3xx_HAL_Driver/Src/stm32f3xx_hal_rcc_ex.c **** {
  29              		.loc 1 122 0
  30              		.cfi_startproc
  31              		@ args = 0, pretend = 0, frame = 72
  32              		@ frame_needed = 1, uses_anonymous_args = 0
  33 0000 80B5     		push	{r7, lr}
  34              	.LCFI0:
  35              		.cfi_def_cfa_offset 8
  36              		.cfi_offset 7, -8
  37              		.cfi_offset 14, -4
  38 0002 92B0     		sub	sp, sp, #72
  39              	.LCFI1:
  40              		.cfi_def_cfa_offset 80
  41 0004 00AF     		add	r7, sp, #0
  42              	.LCFI2:
  43              		.cfi_def_cfa_register 7
  44 0006 7860     		str	r0, [r7, #4]
 123:../../Drivers/STM32F3xx_HAL_Driver/Src/stm32f3xx_hal_rcc_ex.c ****   uint32_t tickstart = 0U;
  45              		.loc 1 123 0
  46 0008 0023     		movs	r3, #0
  47 000a 3B64     		str	r3, [r7, #64]
 124:../../Drivers/STM32F3xx_HAL_Driver/Src/stm32f3xx_hal_rcc_ex.c ****   uint32_t temp_reg = 0U;
  48              		.loc 1 124 0
ARM GAS  /tmp/ccIre3F4.s 			page 4


  49 000c 0023     		movs	r3, #0
  50 000e FB63     		str	r3, [r7, #60]
 125:../../Drivers/STM32F3xx_HAL_Driver/Src/stm32f3xx_hal_rcc_ex.c ****     
 126:../../Drivers/STM32F3xx_HAL_Driver/Src/stm32f3xx_hal_rcc_ex.c ****   /* Check the parameters */
 127:../../Drivers/STM32F3xx_HAL_Driver/Src/stm32f3xx_hal_rcc_ex.c ****   assert_param(IS_RCC_PERIPHCLOCK(PeriphClkInit->PeriphClockSelection));
 128:../../Drivers/STM32F3xx_HAL_Driver/Src/stm32f3xx_hal_rcc_ex.c ****   
 129:../../Drivers/STM32F3xx_HAL_Driver/Src/stm32f3xx_hal_rcc_ex.c ****   /*---------------------------- RTC configuration -------------------------------*/
 130:../../Drivers/STM32F3xx_HAL_Driver/Src/stm32f3xx_hal_rcc_ex.c ****   if(((PeriphClkInit->PeriphClockSelection) & RCC_PERIPHCLK_RTC) == (RCC_PERIPHCLK_RTC))
  51              		.loc 1 130 0
  52 0010 7B68     		ldr	r3, [r7, #4]
  53 0012 1B68     		ldr	r3, [r3]
  54 0014 03F48033 		and	r3, r3, #65536
  55 0018 002B     		cmp	r3, #0
  56 001a 00F0F680 		beq	.L2
  57              	.LBB18:
 131:../../Drivers/STM32F3xx_HAL_Driver/Src/stm32f3xx_hal_rcc_ex.c ****   {
 132:../../Drivers/STM32F3xx_HAL_Driver/Src/stm32f3xx_hal_rcc_ex.c ****     /* check for RTC Parameters used to output RTCCLK */
 133:../../Drivers/STM32F3xx_HAL_Driver/Src/stm32f3xx_hal_rcc_ex.c ****     assert_param(IS_RCC_RTCCLKSOURCE(PeriphClkInit->RTCClockSelection));
 134:../../Drivers/STM32F3xx_HAL_Driver/Src/stm32f3xx_hal_rcc_ex.c **** 
 135:../../Drivers/STM32F3xx_HAL_Driver/Src/stm32f3xx_hal_rcc_ex.c ****     FlagStatus       pwrclkchanged = RESET;
  58              		.loc 1 135 0
  59 001e 0023     		movs	r3, #0
  60 0020 87F84730 		strb	r3, [r7, #71]
 136:../../Drivers/STM32F3xx_HAL_Driver/Src/stm32f3xx_hal_rcc_ex.c **** 
 137:../../Drivers/STM32F3xx_HAL_Driver/Src/stm32f3xx_hal_rcc_ex.c ****     /* As soon as function is called to change RTC clock source, activation of the 
 138:../../Drivers/STM32F3xx_HAL_Driver/Src/stm32f3xx_hal_rcc_ex.c ****        power domain is done. */
 139:../../Drivers/STM32F3xx_HAL_Driver/Src/stm32f3xx_hal_rcc_ex.c ****     /* Requires to enable write access to Backup Domain of necessary */
 140:../../Drivers/STM32F3xx_HAL_Driver/Src/stm32f3xx_hal_rcc_ex.c ****     if(__HAL_RCC_PWR_IS_CLK_DISABLED())
  61              		.loc 1 140 0
  62 0024 604B     		ldr	r3, .L34
  63 0026 DB69     		ldr	r3, [r3, #28]
  64 0028 03F08053 		and	r3, r3, #268435456
  65 002c 002B     		cmp	r3, #0
  66 002e 0ED1     		bne	.L3
  67              	.LBB19:
 141:../../Drivers/STM32F3xx_HAL_Driver/Src/stm32f3xx_hal_rcc_ex.c ****     {
 142:../../Drivers/STM32F3xx_HAL_Driver/Src/stm32f3xx_hal_rcc_ex.c ****       __HAL_RCC_PWR_CLK_ENABLE();
  68              		.loc 1 142 0
  69 0030 5D4A     		ldr	r2, .L34
  70 0032 5D4B     		ldr	r3, .L34
  71 0034 DB69     		ldr	r3, [r3, #28]
  72 0036 43F08053 		orr	r3, r3, #268435456
  73 003a D361     		str	r3, [r2, #28]
  74 003c 5A4B     		ldr	r3, .L34
  75 003e DB69     		ldr	r3, [r3, #28]
  76 0040 03F08053 		and	r3, r3, #268435456
  77 0044 BB60     		str	r3, [r7, #8]
  78 0046 BB68     		ldr	r3, [r7, #8]
  79              	.LBE19:
 143:../../Drivers/STM32F3xx_HAL_Driver/Src/stm32f3xx_hal_rcc_ex.c ****       pwrclkchanged = SET;
  80              		.loc 1 143 0
  81 0048 0123     		movs	r3, #1
  82 004a 87F84730 		strb	r3, [r7, #71]
  83              	.L3:
 144:../../Drivers/STM32F3xx_HAL_Driver/Src/stm32f3xx_hal_rcc_ex.c ****     }
 145:../../Drivers/STM32F3xx_HAL_Driver/Src/stm32f3xx_hal_rcc_ex.c ****     
 146:../../Drivers/STM32F3xx_HAL_Driver/Src/stm32f3xx_hal_rcc_ex.c ****     if(HAL_IS_BIT_CLR(PWR->CR, PWR_CR_DBP))
ARM GAS  /tmp/ccIre3F4.s 			page 5


  84              		.loc 1 146 0
  85 004e 574B     		ldr	r3, .L34+4
  86 0050 1B68     		ldr	r3, [r3]
  87 0052 03F48073 		and	r3, r3, #256
  88 0056 002B     		cmp	r3, #0
  89 0058 18D1     		bne	.L4
 147:../../Drivers/STM32F3xx_HAL_Driver/Src/stm32f3xx_hal_rcc_ex.c ****     {
 148:../../Drivers/STM32F3xx_HAL_Driver/Src/stm32f3xx_hal_rcc_ex.c ****       /* Enable write access to Backup domain */
 149:../../Drivers/STM32F3xx_HAL_Driver/Src/stm32f3xx_hal_rcc_ex.c ****       SET_BIT(PWR->CR, PWR_CR_DBP);
  90              		.loc 1 149 0
  91 005a 544A     		ldr	r2, .L34+4
  92 005c 534B     		ldr	r3, .L34+4
  93 005e 1B68     		ldr	r3, [r3]
  94 0060 43F48073 		orr	r3, r3, #256
  95 0064 1360     		str	r3, [r2]
 150:../../Drivers/STM32F3xx_HAL_Driver/Src/stm32f3xx_hal_rcc_ex.c ****       
 151:../../Drivers/STM32F3xx_HAL_Driver/Src/stm32f3xx_hal_rcc_ex.c ****       /* Wait for Backup domain Write protection disable */
 152:../../Drivers/STM32F3xx_HAL_Driver/Src/stm32f3xx_hal_rcc_ex.c ****       tickstart = HAL_GetTick();
  96              		.loc 1 152 0
  97 0066 FFF7FEFF 		bl	HAL_GetTick
  98 006a 3864     		str	r0, [r7, #64]
 153:../../Drivers/STM32F3xx_HAL_Driver/Src/stm32f3xx_hal_rcc_ex.c ****       
 154:../../Drivers/STM32F3xx_HAL_Driver/Src/stm32f3xx_hal_rcc_ex.c ****       while(HAL_IS_BIT_CLR(PWR->CR, PWR_CR_DBP))
  99              		.loc 1 154 0
 100 006c 08E0     		b	.L5
 101              	.L7:
 155:../../Drivers/STM32F3xx_HAL_Driver/Src/stm32f3xx_hal_rcc_ex.c ****       {
 156:../../Drivers/STM32F3xx_HAL_Driver/Src/stm32f3xx_hal_rcc_ex.c ****           if((HAL_GetTick() - tickstart) > RCC_DBP_TIMEOUT_VALUE)
 102              		.loc 1 156 0
 103 006e FFF7FEFF 		bl	HAL_GetTick
 104 0072 0246     		mov	r2, r0
 105 0074 3B6C     		ldr	r3, [r7, #64]
 106 0076 D31A     		subs	r3, r2, r3
 107 0078 642B     		cmp	r3, #100
 108 007a 01D9     		bls	.L5
 157:../../Drivers/STM32F3xx_HAL_Driver/Src/stm32f3xx_hal_rcc_ex.c ****         {
 158:../../Drivers/STM32F3xx_HAL_Driver/Src/stm32f3xx_hal_rcc_ex.c ****           return HAL_TIMEOUT;
 109              		.loc 1 158 0
 110 007c 0323     		movs	r3, #3
 111 007e 6AE1     		b	.L6
 112              	.L5:
 154:../../Drivers/STM32F3xx_HAL_Driver/Src/stm32f3xx_hal_rcc_ex.c ****       {
 113              		.loc 1 154 0
 114 0080 4A4B     		ldr	r3, .L34+4
 115 0082 1B68     		ldr	r3, [r3]
 116 0084 03F48073 		and	r3, r3, #256
 117 0088 002B     		cmp	r3, #0
 118 008a F0D0     		beq	.L7
 119              	.L4:
 159:../../Drivers/STM32F3xx_HAL_Driver/Src/stm32f3xx_hal_rcc_ex.c ****         }
 160:../../Drivers/STM32F3xx_HAL_Driver/Src/stm32f3xx_hal_rcc_ex.c ****       }
 161:../../Drivers/STM32F3xx_HAL_Driver/Src/stm32f3xx_hal_rcc_ex.c ****     }
 162:../../Drivers/STM32F3xx_HAL_Driver/Src/stm32f3xx_hal_rcc_ex.c ****     
 163:../../Drivers/STM32F3xx_HAL_Driver/Src/stm32f3xx_hal_rcc_ex.c ****     /* Reset the Backup domain only if the RTC Clock source selection is modified from reset value 
 164:../../Drivers/STM32F3xx_HAL_Driver/Src/stm32f3xx_hal_rcc_ex.c ****     temp_reg = (RCC->BDCR & RCC_BDCR_RTCSEL);
 120              		.loc 1 164 0
 121 008c 464B     		ldr	r3, .L34
ARM GAS  /tmp/ccIre3F4.s 			page 6


 122 008e 1B6A     		ldr	r3, [r3, #32]
 123 0090 03F44073 		and	r3, r3, #768
 124 0094 FB63     		str	r3, [r7, #60]
 165:../../Drivers/STM32F3xx_HAL_Driver/Src/stm32f3xx_hal_rcc_ex.c ****     if((temp_reg != 0x00000000U) && (temp_reg != (PeriphClkInit->RTCClockSelection & RCC_BDCR_RTCSE
 125              		.loc 1 165 0
 126 0096 FB6B     		ldr	r3, [r7, #60]
 127 0098 002B     		cmp	r3, #0
 128 009a 00F0A380 		beq	.L8
 129              		.loc 1 165 0 is_stmt 0 discriminator 1
 130 009e 7B68     		ldr	r3, [r7, #4]
 131 00a0 5B68     		ldr	r3, [r3, #4]
 132 00a2 03F44072 		and	r2, r3, #768
 133 00a6 FB6B     		ldr	r3, [r7, #60]
 134 00a8 9A42     		cmp	r2, r3
 135 00aa 00F09B80 		beq	.L8
 166:../../Drivers/STM32F3xx_HAL_Driver/Src/stm32f3xx_hal_rcc_ex.c ****     {
 167:../../Drivers/STM32F3xx_HAL_Driver/Src/stm32f3xx_hal_rcc_ex.c ****       /* Store the content of BDCR register before the reset of Backup Domain */
 168:../../Drivers/STM32F3xx_HAL_Driver/Src/stm32f3xx_hal_rcc_ex.c ****       temp_reg = (RCC->BDCR & ~(RCC_BDCR_RTCSEL));
 136              		.loc 1 168 0 is_stmt 1
 137 00ae 3E4B     		ldr	r3, .L34
 138 00b0 1B6A     		ldr	r3, [r3, #32]
 139 00b2 23F44073 		bic	r3, r3, #768
 140 00b6 FB63     		str	r3, [r7, #60]
 141 00b8 4FF48033 		mov	r3, #65536
 142 00bc BB63     		str	r3, [r7, #56]
 143              	.LBB20:
 144              	.LBB21:
 145              		.file 2 "../../Drivers/CMSIS/Include/cmsis_gcc.h"
   1:../../Drivers/CMSIS/Include/cmsis_gcc.h **** /**************************************************************************//**
   2:../../Drivers/CMSIS/Include/cmsis_gcc.h ****  * @file     cmsis_gcc.h
   3:../../Drivers/CMSIS/Include/cmsis_gcc.h ****  * @brief    CMSIS Cortex-M Core Function/Instruction Header File
   4:../../Drivers/CMSIS/Include/cmsis_gcc.h ****  * @version  V4.30
   5:../../Drivers/CMSIS/Include/cmsis_gcc.h ****  * @date     20. October 2015
   6:../../Drivers/CMSIS/Include/cmsis_gcc.h ****  ******************************************************************************/
   7:../../Drivers/CMSIS/Include/cmsis_gcc.h **** /* Copyright (c) 2009 - 2015 ARM LIMITED
   8:../../Drivers/CMSIS/Include/cmsis_gcc.h **** 
   9:../../Drivers/CMSIS/Include/cmsis_gcc.h ****    All rights reserved.
  10:../../Drivers/CMSIS/Include/cmsis_gcc.h ****    Redistribution and use in source and binary forms, with or without
  11:../../Drivers/CMSIS/Include/cmsis_gcc.h ****    modification, are permitted provided that the following conditions are met:
  12:../../Drivers/CMSIS/Include/cmsis_gcc.h ****    - Redistributions of source code must retain the above copyright
  13:../../Drivers/CMSIS/Include/cmsis_gcc.h ****      notice, this list of conditions and the following disclaimer.
  14:../../Drivers/CMSIS/Include/cmsis_gcc.h ****    - Redistributions in binary form must reproduce the above copyright
  15:../../Drivers/CMSIS/Include/cmsis_gcc.h ****      notice, this list of conditions and the following disclaimer in the
  16:../../Drivers/CMSIS/Include/cmsis_gcc.h ****      documentation and/or other materials provided with the distribution.
  17:../../Drivers/CMSIS/Include/cmsis_gcc.h ****    - Neither the name of ARM nor the names of its contributors may be used
  18:../../Drivers/CMSIS/Include/cmsis_gcc.h ****      to endorse or promote products derived from this software without
  19:../../Drivers/CMSIS/Include/cmsis_gcc.h ****      specific prior written permission.
  20:../../Drivers/CMSIS/Include/cmsis_gcc.h ****    *
  21:../../Drivers/CMSIS/Include/cmsis_gcc.h ****    THIS SOFTWARE IS PROVIDED BY THE COPYRIGHT HOLDERS AND CONTRIBUTORS "AS IS"
  22:../../Drivers/CMSIS/Include/cmsis_gcc.h ****    AND ANY EXPRESS OR IMPLIED WARRANTIES, INCLUDING, BUT NOT LIMITED TO, THE
  23:../../Drivers/CMSIS/Include/cmsis_gcc.h ****    IMPLIED WARRANTIES OF MERCHANTABILITY AND FITNESS FOR A PARTICULAR PURPOSE
  24:../../Drivers/CMSIS/Include/cmsis_gcc.h ****    ARE DISCLAIMED. IN NO EVENT SHALL COPYRIGHT HOLDERS AND CONTRIBUTORS BE
  25:../../Drivers/CMSIS/Include/cmsis_gcc.h ****    LIABLE FOR ANY DIRECT, INDIRECT, INCIDENTAL, SPECIAL, EXEMPLARY, OR
  26:../../Drivers/CMSIS/Include/cmsis_gcc.h ****    CONSEQUENTIAL DAMAGES (INCLUDING, BUT NOT LIMITED TO, PROCUREMENT OF
  27:../../Drivers/CMSIS/Include/cmsis_gcc.h ****    SUBSTITUTE GOODS OR SERVICES; LOSS OF USE, DATA, OR PROFITS; OR BUSINESS
  28:../../Drivers/CMSIS/Include/cmsis_gcc.h ****    INTERRUPTION) HOWEVER CAUSED AND ON ANY THEORY OF LIABILITY, WHETHER IN
  29:../../Drivers/CMSIS/Include/cmsis_gcc.h ****    CONTRACT, STRICT LIABILITY, OR TORT (INCLUDING NEGLIGENCE OR OTHERWISE)
ARM GAS  /tmp/ccIre3F4.s 			page 7


  30:../../Drivers/CMSIS/Include/cmsis_gcc.h ****    ARISING IN ANY WAY OUT OF THE USE OF THIS SOFTWARE, EVEN IF ADVISED OF THE
  31:../../Drivers/CMSIS/Include/cmsis_gcc.h ****    POSSIBILITY OF SUCH DAMAGE.
  32:../../Drivers/CMSIS/Include/cmsis_gcc.h ****    ---------------------------------------------------------------------------*/
  33:../../Drivers/CMSIS/Include/cmsis_gcc.h **** 
  34:../../Drivers/CMSIS/Include/cmsis_gcc.h **** 
  35:../../Drivers/CMSIS/Include/cmsis_gcc.h **** #ifndef __CMSIS_GCC_H
  36:../../Drivers/CMSIS/Include/cmsis_gcc.h **** #define __CMSIS_GCC_H
  37:../../Drivers/CMSIS/Include/cmsis_gcc.h **** 
  38:../../Drivers/CMSIS/Include/cmsis_gcc.h **** /* ignore some GCC warnings */
  39:../../Drivers/CMSIS/Include/cmsis_gcc.h **** #if defined ( __GNUC__ )
  40:../../Drivers/CMSIS/Include/cmsis_gcc.h **** #pragma GCC diagnostic push
  41:../../Drivers/CMSIS/Include/cmsis_gcc.h **** #pragma GCC diagnostic ignored "-Wsign-conversion"
  42:../../Drivers/CMSIS/Include/cmsis_gcc.h **** #pragma GCC diagnostic ignored "-Wconversion"
  43:../../Drivers/CMSIS/Include/cmsis_gcc.h **** #pragma GCC diagnostic ignored "-Wunused-parameter"
  44:../../Drivers/CMSIS/Include/cmsis_gcc.h **** #endif
  45:../../Drivers/CMSIS/Include/cmsis_gcc.h **** 
  46:../../Drivers/CMSIS/Include/cmsis_gcc.h **** 
  47:../../Drivers/CMSIS/Include/cmsis_gcc.h **** /* ###########################  Core Function Access  ########################### */
  48:../../Drivers/CMSIS/Include/cmsis_gcc.h **** /** \ingroup  CMSIS_Core_FunctionInterface
  49:../../Drivers/CMSIS/Include/cmsis_gcc.h ****     \defgroup CMSIS_Core_RegAccFunctions CMSIS Core Register Access Functions
  50:../../Drivers/CMSIS/Include/cmsis_gcc.h ****   @{
  51:../../Drivers/CMSIS/Include/cmsis_gcc.h ****  */
  52:../../Drivers/CMSIS/Include/cmsis_gcc.h **** 
  53:../../Drivers/CMSIS/Include/cmsis_gcc.h **** /**
  54:../../Drivers/CMSIS/Include/cmsis_gcc.h ****   \brief   Enable IRQ Interrupts
  55:../../Drivers/CMSIS/Include/cmsis_gcc.h ****   \details Enables IRQ interrupts by clearing the I-bit in the CPSR.
  56:../../Drivers/CMSIS/Include/cmsis_gcc.h ****            Can only be executed in Privileged modes.
  57:../../Drivers/CMSIS/Include/cmsis_gcc.h ****  */
  58:../../Drivers/CMSIS/Include/cmsis_gcc.h **** __attribute__( ( always_inline ) ) __STATIC_INLINE void __enable_irq(void)
  59:../../Drivers/CMSIS/Include/cmsis_gcc.h **** {
  60:../../Drivers/CMSIS/Include/cmsis_gcc.h ****   __ASM volatile ("cpsie i" : : : "memory");
  61:../../Drivers/CMSIS/Include/cmsis_gcc.h **** }
  62:../../Drivers/CMSIS/Include/cmsis_gcc.h **** 
  63:../../Drivers/CMSIS/Include/cmsis_gcc.h **** 
  64:../../Drivers/CMSIS/Include/cmsis_gcc.h **** /**
  65:../../Drivers/CMSIS/Include/cmsis_gcc.h ****   \brief   Disable IRQ Interrupts
  66:../../Drivers/CMSIS/Include/cmsis_gcc.h ****   \details Disables IRQ interrupts by setting the I-bit in the CPSR.
  67:../../Drivers/CMSIS/Include/cmsis_gcc.h ****   Can only be executed in Privileged modes.
  68:../../Drivers/CMSIS/Include/cmsis_gcc.h ****  */
  69:../../Drivers/CMSIS/Include/cmsis_gcc.h **** __attribute__( ( always_inline ) ) __STATIC_INLINE void __disable_irq(void)
  70:../../Drivers/CMSIS/Include/cmsis_gcc.h **** {
  71:../../Drivers/CMSIS/Include/cmsis_gcc.h ****   __ASM volatile ("cpsid i" : : : "memory");
  72:../../Drivers/CMSIS/Include/cmsis_gcc.h **** }
  73:../../Drivers/CMSIS/Include/cmsis_gcc.h **** 
  74:../../Drivers/CMSIS/Include/cmsis_gcc.h **** 
  75:../../Drivers/CMSIS/Include/cmsis_gcc.h **** /**
  76:../../Drivers/CMSIS/Include/cmsis_gcc.h ****   \brief   Get Control Register
  77:../../Drivers/CMSIS/Include/cmsis_gcc.h ****   \details Returns the content of the Control Register.
  78:../../Drivers/CMSIS/Include/cmsis_gcc.h ****   \return               Control Register value
  79:../../Drivers/CMSIS/Include/cmsis_gcc.h ****  */
  80:../../Drivers/CMSIS/Include/cmsis_gcc.h **** __attribute__( ( always_inline ) ) __STATIC_INLINE uint32_t __get_CONTROL(void)
  81:../../Drivers/CMSIS/Include/cmsis_gcc.h **** {
  82:../../Drivers/CMSIS/Include/cmsis_gcc.h ****   uint32_t result;
  83:../../Drivers/CMSIS/Include/cmsis_gcc.h **** 
  84:../../Drivers/CMSIS/Include/cmsis_gcc.h ****   __ASM volatile ("MRS %0, control" : "=r" (result) );
  85:../../Drivers/CMSIS/Include/cmsis_gcc.h ****   return(result);
  86:../../Drivers/CMSIS/Include/cmsis_gcc.h **** }
ARM GAS  /tmp/ccIre3F4.s 			page 8


  87:../../Drivers/CMSIS/Include/cmsis_gcc.h **** 
  88:../../Drivers/CMSIS/Include/cmsis_gcc.h **** 
  89:../../Drivers/CMSIS/Include/cmsis_gcc.h **** /**
  90:../../Drivers/CMSIS/Include/cmsis_gcc.h ****   \brief   Set Control Register
  91:../../Drivers/CMSIS/Include/cmsis_gcc.h ****   \details Writes the given value to the Control Register.
  92:../../Drivers/CMSIS/Include/cmsis_gcc.h ****   \param [in]    control  Control Register value to set
  93:../../Drivers/CMSIS/Include/cmsis_gcc.h ****  */
  94:../../Drivers/CMSIS/Include/cmsis_gcc.h **** __attribute__( ( always_inline ) ) __STATIC_INLINE void __set_CONTROL(uint32_t control)
  95:../../Drivers/CMSIS/Include/cmsis_gcc.h **** {
  96:../../Drivers/CMSIS/Include/cmsis_gcc.h ****   __ASM volatile ("MSR control, %0" : : "r" (control) : "memory");
  97:../../Drivers/CMSIS/Include/cmsis_gcc.h **** }
  98:../../Drivers/CMSIS/Include/cmsis_gcc.h **** 
  99:../../Drivers/CMSIS/Include/cmsis_gcc.h **** 
 100:../../Drivers/CMSIS/Include/cmsis_gcc.h **** /**
 101:../../Drivers/CMSIS/Include/cmsis_gcc.h ****   \brief   Get IPSR Register
 102:../../Drivers/CMSIS/Include/cmsis_gcc.h ****   \details Returns the content of the IPSR Register.
 103:../../Drivers/CMSIS/Include/cmsis_gcc.h ****   \return               IPSR Register value
 104:../../Drivers/CMSIS/Include/cmsis_gcc.h ****  */
 105:../../Drivers/CMSIS/Include/cmsis_gcc.h **** __attribute__( ( always_inline ) ) __STATIC_INLINE uint32_t __get_IPSR(void)
 106:../../Drivers/CMSIS/Include/cmsis_gcc.h **** {
 107:../../Drivers/CMSIS/Include/cmsis_gcc.h ****   uint32_t result;
 108:../../Drivers/CMSIS/Include/cmsis_gcc.h **** 
 109:../../Drivers/CMSIS/Include/cmsis_gcc.h ****   __ASM volatile ("MRS %0, ipsr" : "=r" (result) );
 110:../../Drivers/CMSIS/Include/cmsis_gcc.h ****   return(result);
 111:../../Drivers/CMSIS/Include/cmsis_gcc.h **** }
 112:../../Drivers/CMSIS/Include/cmsis_gcc.h **** 
 113:../../Drivers/CMSIS/Include/cmsis_gcc.h **** 
 114:../../Drivers/CMSIS/Include/cmsis_gcc.h **** /**
 115:../../Drivers/CMSIS/Include/cmsis_gcc.h ****   \brief   Get APSR Register
 116:../../Drivers/CMSIS/Include/cmsis_gcc.h ****   \details Returns the content of the APSR Register.
 117:../../Drivers/CMSIS/Include/cmsis_gcc.h ****   \return               APSR Register value
 118:../../Drivers/CMSIS/Include/cmsis_gcc.h ****  */
 119:../../Drivers/CMSIS/Include/cmsis_gcc.h **** __attribute__( ( always_inline ) ) __STATIC_INLINE uint32_t __get_APSR(void)
 120:../../Drivers/CMSIS/Include/cmsis_gcc.h **** {
 121:../../Drivers/CMSIS/Include/cmsis_gcc.h ****   uint32_t result;
 122:../../Drivers/CMSIS/Include/cmsis_gcc.h **** 
 123:../../Drivers/CMSIS/Include/cmsis_gcc.h ****   __ASM volatile ("MRS %0, apsr" : "=r" (result) );
 124:../../Drivers/CMSIS/Include/cmsis_gcc.h ****   return(result);
 125:../../Drivers/CMSIS/Include/cmsis_gcc.h **** }
 126:../../Drivers/CMSIS/Include/cmsis_gcc.h **** 
 127:../../Drivers/CMSIS/Include/cmsis_gcc.h **** 
 128:../../Drivers/CMSIS/Include/cmsis_gcc.h **** /**
 129:../../Drivers/CMSIS/Include/cmsis_gcc.h ****   \brief   Get xPSR Register
 130:../../Drivers/CMSIS/Include/cmsis_gcc.h ****   \details Returns the content of the xPSR Register.
 131:../../Drivers/CMSIS/Include/cmsis_gcc.h **** 
 132:../../Drivers/CMSIS/Include/cmsis_gcc.h ****     \return               xPSR Register value
 133:../../Drivers/CMSIS/Include/cmsis_gcc.h ****  */
 134:../../Drivers/CMSIS/Include/cmsis_gcc.h **** __attribute__( ( always_inline ) ) __STATIC_INLINE uint32_t __get_xPSR(void)
 135:../../Drivers/CMSIS/Include/cmsis_gcc.h **** {
 136:../../Drivers/CMSIS/Include/cmsis_gcc.h ****   uint32_t result;
 137:../../Drivers/CMSIS/Include/cmsis_gcc.h **** 
 138:../../Drivers/CMSIS/Include/cmsis_gcc.h ****   __ASM volatile ("MRS %0, xpsr" : "=r" (result) );
 139:../../Drivers/CMSIS/Include/cmsis_gcc.h ****   return(result);
 140:../../Drivers/CMSIS/Include/cmsis_gcc.h **** }
 141:../../Drivers/CMSIS/Include/cmsis_gcc.h **** 
 142:../../Drivers/CMSIS/Include/cmsis_gcc.h **** 
 143:../../Drivers/CMSIS/Include/cmsis_gcc.h **** /**
ARM GAS  /tmp/ccIre3F4.s 			page 9


 144:../../Drivers/CMSIS/Include/cmsis_gcc.h ****   \brief   Get Process Stack Pointer
 145:../../Drivers/CMSIS/Include/cmsis_gcc.h ****   \details Returns the current value of the Process Stack Pointer (PSP).
 146:../../Drivers/CMSIS/Include/cmsis_gcc.h ****   \return               PSP Register value
 147:../../Drivers/CMSIS/Include/cmsis_gcc.h ****  */
 148:../../Drivers/CMSIS/Include/cmsis_gcc.h **** __attribute__( ( always_inline ) ) __STATIC_INLINE uint32_t __get_PSP(void)
 149:../../Drivers/CMSIS/Include/cmsis_gcc.h **** {
 150:../../Drivers/CMSIS/Include/cmsis_gcc.h ****   register uint32_t result;
 151:../../Drivers/CMSIS/Include/cmsis_gcc.h **** 
 152:../../Drivers/CMSIS/Include/cmsis_gcc.h ****   __ASM volatile ("MRS %0, psp\n"  : "=r" (result) );
 153:../../Drivers/CMSIS/Include/cmsis_gcc.h ****   return(result);
 154:../../Drivers/CMSIS/Include/cmsis_gcc.h **** }
 155:../../Drivers/CMSIS/Include/cmsis_gcc.h **** 
 156:../../Drivers/CMSIS/Include/cmsis_gcc.h **** 
 157:../../Drivers/CMSIS/Include/cmsis_gcc.h **** /**
 158:../../Drivers/CMSIS/Include/cmsis_gcc.h ****   \brief   Set Process Stack Pointer
 159:../../Drivers/CMSIS/Include/cmsis_gcc.h ****   \details Assigns the given value to the Process Stack Pointer (PSP).
 160:../../Drivers/CMSIS/Include/cmsis_gcc.h ****   \param [in]    topOfProcStack  Process Stack Pointer value to set
 161:../../Drivers/CMSIS/Include/cmsis_gcc.h ****  */
 162:../../Drivers/CMSIS/Include/cmsis_gcc.h **** __attribute__( ( always_inline ) ) __STATIC_INLINE void __set_PSP(uint32_t topOfProcStack)
 163:../../Drivers/CMSIS/Include/cmsis_gcc.h **** {
 164:../../Drivers/CMSIS/Include/cmsis_gcc.h ****   __ASM volatile ("MSR psp, %0\n" : : "r" (topOfProcStack) : "sp");
 165:../../Drivers/CMSIS/Include/cmsis_gcc.h **** }
 166:../../Drivers/CMSIS/Include/cmsis_gcc.h **** 
 167:../../Drivers/CMSIS/Include/cmsis_gcc.h **** 
 168:../../Drivers/CMSIS/Include/cmsis_gcc.h **** /**
 169:../../Drivers/CMSIS/Include/cmsis_gcc.h ****   \brief   Get Main Stack Pointer
 170:../../Drivers/CMSIS/Include/cmsis_gcc.h ****   \details Returns the current value of the Main Stack Pointer (MSP).
 171:../../Drivers/CMSIS/Include/cmsis_gcc.h ****   \return               MSP Register value
 172:../../Drivers/CMSIS/Include/cmsis_gcc.h ****  */
 173:../../Drivers/CMSIS/Include/cmsis_gcc.h **** __attribute__( ( always_inline ) ) __STATIC_INLINE uint32_t __get_MSP(void)
 174:../../Drivers/CMSIS/Include/cmsis_gcc.h **** {
 175:../../Drivers/CMSIS/Include/cmsis_gcc.h ****   register uint32_t result;
 176:../../Drivers/CMSIS/Include/cmsis_gcc.h **** 
 177:../../Drivers/CMSIS/Include/cmsis_gcc.h ****   __ASM volatile ("MRS %0, msp\n" : "=r" (result) );
 178:../../Drivers/CMSIS/Include/cmsis_gcc.h ****   return(result);
 179:../../Drivers/CMSIS/Include/cmsis_gcc.h **** }
 180:../../Drivers/CMSIS/Include/cmsis_gcc.h **** 
 181:../../Drivers/CMSIS/Include/cmsis_gcc.h **** 
 182:../../Drivers/CMSIS/Include/cmsis_gcc.h **** /**
 183:../../Drivers/CMSIS/Include/cmsis_gcc.h ****   \brief   Set Main Stack Pointer
 184:../../Drivers/CMSIS/Include/cmsis_gcc.h ****   \details Assigns the given value to the Main Stack Pointer (MSP).
 185:../../Drivers/CMSIS/Include/cmsis_gcc.h **** 
 186:../../Drivers/CMSIS/Include/cmsis_gcc.h ****     \param [in]    topOfMainStack  Main Stack Pointer value to set
 187:../../Drivers/CMSIS/Include/cmsis_gcc.h ****  */
 188:../../Drivers/CMSIS/Include/cmsis_gcc.h **** __attribute__( ( always_inline ) ) __STATIC_INLINE void __set_MSP(uint32_t topOfMainStack)
 189:../../Drivers/CMSIS/Include/cmsis_gcc.h **** {
 190:../../Drivers/CMSIS/Include/cmsis_gcc.h ****   __ASM volatile ("MSR msp, %0\n" : : "r" (topOfMainStack) : "sp");
 191:../../Drivers/CMSIS/Include/cmsis_gcc.h **** }
 192:../../Drivers/CMSIS/Include/cmsis_gcc.h **** 
 193:../../Drivers/CMSIS/Include/cmsis_gcc.h **** 
 194:../../Drivers/CMSIS/Include/cmsis_gcc.h **** /**
 195:../../Drivers/CMSIS/Include/cmsis_gcc.h ****   \brief   Get Priority Mask
 196:../../Drivers/CMSIS/Include/cmsis_gcc.h ****   \details Returns the current state of the priority mask bit from the Priority Mask Register.
 197:../../Drivers/CMSIS/Include/cmsis_gcc.h ****   \return               Priority Mask value
 198:../../Drivers/CMSIS/Include/cmsis_gcc.h ****  */
 199:../../Drivers/CMSIS/Include/cmsis_gcc.h **** __attribute__( ( always_inline ) ) __STATIC_INLINE uint32_t __get_PRIMASK(void)
 200:../../Drivers/CMSIS/Include/cmsis_gcc.h **** {
ARM GAS  /tmp/ccIre3F4.s 			page 10


 201:../../Drivers/CMSIS/Include/cmsis_gcc.h ****   uint32_t result;
 202:../../Drivers/CMSIS/Include/cmsis_gcc.h **** 
 203:../../Drivers/CMSIS/Include/cmsis_gcc.h ****   __ASM volatile ("MRS %0, primask" : "=r" (result) );
 204:../../Drivers/CMSIS/Include/cmsis_gcc.h ****   return(result);
 205:../../Drivers/CMSIS/Include/cmsis_gcc.h **** }
 206:../../Drivers/CMSIS/Include/cmsis_gcc.h **** 
 207:../../Drivers/CMSIS/Include/cmsis_gcc.h **** 
 208:../../Drivers/CMSIS/Include/cmsis_gcc.h **** /**
 209:../../Drivers/CMSIS/Include/cmsis_gcc.h ****   \brief   Set Priority Mask
 210:../../Drivers/CMSIS/Include/cmsis_gcc.h ****   \details Assigns the given value to the Priority Mask Register.
 211:../../Drivers/CMSIS/Include/cmsis_gcc.h ****   \param [in]    priMask  Priority Mask
 212:../../Drivers/CMSIS/Include/cmsis_gcc.h ****  */
 213:../../Drivers/CMSIS/Include/cmsis_gcc.h **** __attribute__( ( always_inline ) ) __STATIC_INLINE void __set_PRIMASK(uint32_t priMask)
 214:../../Drivers/CMSIS/Include/cmsis_gcc.h **** {
 215:../../Drivers/CMSIS/Include/cmsis_gcc.h ****   __ASM volatile ("MSR primask, %0" : : "r" (priMask) : "memory");
 216:../../Drivers/CMSIS/Include/cmsis_gcc.h **** }
 217:../../Drivers/CMSIS/Include/cmsis_gcc.h **** 
 218:../../Drivers/CMSIS/Include/cmsis_gcc.h **** 
 219:../../Drivers/CMSIS/Include/cmsis_gcc.h **** #if       (__CORTEX_M >= 0x03U)
 220:../../Drivers/CMSIS/Include/cmsis_gcc.h **** 
 221:../../Drivers/CMSIS/Include/cmsis_gcc.h **** /**
 222:../../Drivers/CMSIS/Include/cmsis_gcc.h ****   \brief   Enable FIQ
 223:../../Drivers/CMSIS/Include/cmsis_gcc.h ****   \details Enables FIQ interrupts by clearing the F-bit in the CPSR.
 224:../../Drivers/CMSIS/Include/cmsis_gcc.h ****            Can only be executed in Privileged modes.
 225:../../Drivers/CMSIS/Include/cmsis_gcc.h ****  */
 226:../../Drivers/CMSIS/Include/cmsis_gcc.h **** __attribute__( ( always_inline ) ) __STATIC_INLINE void __enable_fault_irq(void)
 227:../../Drivers/CMSIS/Include/cmsis_gcc.h **** {
 228:../../Drivers/CMSIS/Include/cmsis_gcc.h ****   __ASM volatile ("cpsie f" : : : "memory");
 229:../../Drivers/CMSIS/Include/cmsis_gcc.h **** }
 230:../../Drivers/CMSIS/Include/cmsis_gcc.h **** 
 231:../../Drivers/CMSIS/Include/cmsis_gcc.h **** 
 232:../../Drivers/CMSIS/Include/cmsis_gcc.h **** /**
 233:../../Drivers/CMSIS/Include/cmsis_gcc.h ****   \brief   Disable FIQ
 234:../../Drivers/CMSIS/Include/cmsis_gcc.h ****   \details Disables FIQ interrupts by setting the F-bit in the CPSR.
 235:../../Drivers/CMSIS/Include/cmsis_gcc.h ****            Can only be executed in Privileged modes.
 236:../../Drivers/CMSIS/Include/cmsis_gcc.h ****  */
 237:../../Drivers/CMSIS/Include/cmsis_gcc.h **** __attribute__( ( always_inline ) ) __STATIC_INLINE void __disable_fault_irq(void)
 238:../../Drivers/CMSIS/Include/cmsis_gcc.h **** {
 239:../../Drivers/CMSIS/Include/cmsis_gcc.h ****   __ASM volatile ("cpsid f" : : : "memory");
 240:../../Drivers/CMSIS/Include/cmsis_gcc.h **** }
 241:../../Drivers/CMSIS/Include/cmsis_gcc.h **** 
 242:../../Drivers/CMSIS/Include/cmsis_gcc.h **** 
 243:../../Drivers/CMSIS/Include/cmsis_gcc.h **** /**
 244:../../Drivers/CMSIS/Include/cmsis_gcc.h ****   \brief   Get Base Priority
 245:../../Drivers/CMSIS/Include/cmsis_gcc.h ****   \details Returns the current value of the Base Priority register.
 246:../../Drivers/CMSIS/Include/cmsis_gcc.h ****   \return               Base Priority register value
 247:../../Drivers/CMSIS/Include/cmsis_gcc.h ****  */
 248:../../Drivers/CMSIS/Include/cmsis_gcc.h **** __attribute__( ( always_inline ) ) __STATIC_INLINE uint32_t __get_BASEPRI(void)
 249:../../Drivers/CMSIS/Include/cmsis_gcc.h **** {
 250:../../Drivers/CMSIS/Include/cmsis_gcc.h ****   uint32_t result;
 251:../../Drivers/CMSIS/Include/cmsis_gcc.h **** 
 252:../../Drivers/CMSIS/Include/cmsis_gcc.h ****   __ASM volatile ("MRS %0, basepri" : "=r" (result) );
 253:../../Drivers/CMSIS/Include/cmsis_gcc.h ****   return(result);
 254:../../Drivers/CMSIS/Include/cmsis_gcc.h **** }
 255:../../Drivers/CMSIS/Include/cmsis_gcc.h **** 
 256:../../Drivers/CMSIS/Include/cmsis_gcc.h **** 
 257:../../Drivers/CMSIS/Include/cmsis_gcc.h **** /**
ARM GAS  /tmp/ccIre3F4.s 			page 11


 258:../../Drivers/CMSIS/Include/cmsis_gcc.h ****   \brief   Set Base Priority
 259:../../Drivers/CMSIS/Include/cmsis_gcc.h ****   \details Assigns the given value to the Base Priority register.
 260:../../Drivers/CMSIS/Include/cmsis_gcc.h ****   \param [in]    basePri  Base Priority value to set
 261:../../Drivers/CMSIS/Include/cmsis_gcc.h ****  */
 262:../../Drivers/CMSIS/Include/cmsis_gcc.h **** __attribute__( ( always_inline ) ) __STATIC_INLINE void __set_BASEPRI(uint32_t value)
 263:../../Drivers/CMSIS/Include/cmsis_gcc.h **** {
 264:../../Drivers/CMSIS/Include/cmsis_gcc.h ****   __ASM volatile ("MSR basepri, %0" : : "r" (value) : "memory");
 265:../../Drivers/CMSIS/Include/cmsis_gcc.h **** }
 266:../../Drivers/CMSIS/Include/cmsis_gcc.h **** 
 267:../../Drivers/CMSIS/Include/cmsis_gcc.h **** 
 268:../../Drivers/CMSIS/Include/cmsis_gcc.h **** /**
 269:../../Drivers/CMSIS/Include/cmsis_gcc.h ****   \brief   Set Base Priority with condition
 270:../../Drivers/CMSIS/Include/cmsis_gcc.h ****   \details Assigns the given value to the Base Priority register only if BASEPRI masking is disable
 271:../../Drivers/CMSIS/Include/cmsis_gcc.h ****            or the new value increases the BASEPRI priority level.
 272:../../Drivers/CMSIS/Include/cmsis_gcc.h ****   \param [in]    basePri  Base Priority value to set
 273:../../Drivers/CMSIS/Include/cmsis_gcc.h ****  */
 274:../../Drivers/CMSIS/Include/cmsis_gcc.h **** __attribute__( ( always_inline ) ) __STATIC_INLINE void __set_BASEPRI_MAX(uint32_t value)
 275:../../Drivers/CMSIS/Include/cmsis_gcc.h **** {
 276:../../Drivers/CMSIS/Include/cmsis_gcc.h ****   __ASM volatile ("MSR basepri_max, %0" : : "r" (value) : "memory");
 277:../../Drivers/CMSIS/Include/cmsis_gcc.h **** }
 278:../../Drivers/CMSIS/Include/cmsis_gcc.h **** 
 279:../../Drivers/CMSIS/Include/cmsis_gcc.h **** 
 280:../../Drivers/CMSIS/Include/cmsis_gcc.h **** /**
 281:../../Drivers/CMSIS/Include/cmsis_gcc.h ****   \brief   Get Fault Mask
 282:../../Drivers/CMSIS/Include/cmsis_gcc.h ****   \details Returns the current value of the Fault Mask register.
 283:../../Drivers/CMSIS/Include/cmsis_gcc.h ****   \return               Fault Mask register value
 284:../../Drivers/CMSIS/Include/cmsis_gcc.h ****  */
 285:../../Drivers/CMSIS/Include/cmsis_gcc.h **** __attribute__( ( always_inline ) ) __STATIC_INLINE uint32_t __get_FAULTMASK(void)
 286:../../Drivers/CMSIS/Include/cmsis_gcc.h **** {
 287:../../Drivers/CMSIS/Include/cmsis_gcc.h ****   uint32_t result;
 288:../../Drivers/CMSIS/Include/cmsis_gcc.h **** 
 289:../../Drivers/CMSIS/Include/cmsis_gcc.h ****   __ASM volatile ("MRS %0, faultmask" : "=r" (result) );
 290:../../Drivers/CMSIS/Include/cmsis_gcc.h ****   return(result);
 291:../../Drivers/CMSIS/Include/cmsis_gcc.h **** }
 292:../../Drivers/CMSIS/Include/cmsis_gcc.h **** 
 293:../../Drivers/CMSIS/Include/cmsis_gcc.h **** 
 294:../../Drivers/CMSIS/Include/cmsis_gcc.h **** /**
 295:../../Drivers/CMSIS/Include/cmsis_gcc.h ****   \brief   Set Fault Mask
 296:../../Drivers/CMSIS/Include/cmsis_gcc.h ****   \details Assigns the given value to the Fault Mask register.
 297:../../Drivers/CMSIS/Include/cmsis_gcc.h ****   \param [in]    faultMask  Fault Mask value to set
 298:../../Drivers/CMSIS/Include/cmsis_gcc.h ****  */
 299:../../Drivers/CMSIS/Include/cmsis_gcc.h **** __attribute__( ( always_inline ) ) __STATIC_INLINE void __set_FAULTMASK(uint32_t faultMask)
 300:../../Drivers/CMSIS/Include/cmsis_gcc.h **** {
 301:../../Drivers/CMSIS/Include/cmsis_gcc.h ****   __ASM volatile ("MSR faultmask, %0" : : "r" (faultMask) : "memory");
 302:../../Drivers/CMSIS/Include/cmsis_gcc.h **** }
 303:../../Drivers/CMSIS/Include/cmsis_gcc.h **** 
 304:../../Drivers/CMSIS/Include/cmsis_gcc.h **** #endif /* (__CORTEX_M >= 0x03U) */
 305:../../Drivers/CMSIS/Include/cmsis_gcc.h **** 
 306:../../Drivers/CMSIS/Include/cmsis_gcc.h **** 
 307:../../Drivers/CMSIS/Include/cmsis_gcc.h **** #if       (__CORTEX_M == 0x04U) || (__CORTEX_M == 0x07U)
 308:../../Drivers/CMSIS/Include/cmsis_gcc.h **** 
 309:../../Drivers/CMSIS/Include/cmsis_gcc.h **** /**
 310:../../Drivers/CMSIS/Include/cmsis_gcc.h ****   \brief   Get FPSCR
 311:../../Drivers/CMSIS/Include/cmsis_gcc.h ****   \details Returns the current value of the Floating Point Status/Control register.
 312:../../Drivers/CMSIS/Include/cmsis_gcc.h ****   \return               Floating Point Status/Control register value
 313:../../Drivers/CMSIS/Include/cmsis_gcc.h ****  */
 314:../../Drivers/CMSIS/Include/cmsis_gcc.h **** __attribute__( ( always_inline ) ) __STATIC_INLINE uint32_t __get_FPSCR(void)
ARM GAS  /tmp/ccIre3F4.s 			page 12


 315:../../Drivers/CMSIS/Include/cmsis_gcc.h **** {
 316:../../Drivers/CMSIS/Include/cmsis_gcc.h **** #if (__FPU_PRESENT == 1U) && (__FPU_USED == 1U)
 317:../../Drivers/CMSIS/Include/cmsis_gcc.h ****   uint32_t result;
 318:../../Drivers/CMSIS/Include/cmsis_gcc.h **** 
 319:../../Drivers/CMSIS/Include/cmsis_gcc.h ****   /* Empty asm statement works as a scheduling barrier */
 320:../../Drivers/CMSIS/Include/cmsis_gcc.h ****   __ASM volatile ("");
 321:../../Drivers/CMSIS/Include/cmsis_gcc.h ****   __ASM volatile ("VMRS %0, fpscr" : "=r" (result) );
 322:../../Drivers/CMSIS/Include/cmsis_gcc.h ****   __ASM volatile ("");
 323:../../Drivers/CMSIS/Include/cmsis_gcc.h ****   return(result);
 324:../../Drivers/CMSIS/Include/cmsis_gcc.h **** #else
 325:../../Drivers/CMSIS/Include/cmsis_gcc.h ****    return(0);
 326:../../Drivers/CMSIS/Include/cmsis_gcc.h **** #endif
 327:../../Drivers/CMSIS/Include/cmsis_gcc.h **** }
 328:../../Drivers/CMSIS/Include/cmsis_gcc.h **** 
 329:../../Drivers/CMSIS/Include/cmsis_gcc.h **** 
 330:../../Drivers/CMSIS/Include/cmsis_gcc.h **** /**
 331:../../Drivers/CMSIS/Include/cmsis_gcc.h ****   \brief   Set FPSCR
 332:../../Drivers/CMSIS/Include/cmsis_gcc.h ****   \details Assigns the given value to the Floating Point Status/Control register.
 333:../../Drivers/CMSIS/Include/cmsis_gcc.h ****   \param [in]    fpscr  Floating Point Status/Control value to set
 334:../../Drivers/CMSIS/Include/cmsis_gcc.h ****  */
 335:../../Drivers/CMSIS/Include/cmsis_gcc.h **** __attribute__( ( always_inline ) ) __STATIC_INLINE void __set_FPSCR(uint32_t fpscr)
 336:../../Drivers/CMSIS/Include/cmsis_gcc.h **** {
 337:../../Drivers/CMSIS/Include/cmsis_gcc.h **** #if (__FPU_PRESENT == 1U) && (__FPU_USED == 1U)
 338:../../Drivers/CMSIS/Include/cmsis_gcc.h ****   /* Empty asm statement works as a scheduling barrier */
 339:../../Drivers/CMSIS/Include/cmsis_gcc.h ****   __ASM volatile ("");
 340:../../Drivers/CMSIS/Include/cmsis_gcc.h ****   __ASM volatile ("VMSR fpscr, %0" : : "r" (fpscr) : "vfpcc");
 341:../../Drivers/CMSIS/Include/cmsis_gcc.h ****   __ASM volatile ("");
 342:../../Drivers/CMSIS/Include/cmsis_gcc.h **** #endif
 343:../../Drivers/CMSIS/Include/cmsis_gcc.h **** }
 344:../../Drivers/CMSIS/Include/cmsis_gcc.h **** 
 345:../../Drivers/CMSIS/Include/cmsis_gcc.h **** #endif /* (__CORTEX_M == 0x04U) || (__CORTEX_M == 0x07U) */
 346:../../Drivers/CMSIS/Include/cmsis_gcc.h **** 
 347:../../Drivers/CMSIS/Include/cmsis_gcc.h **** 
 348:../../Drivers/CMSIS/Include/cmsis_gcc.h **** 
 349:../../Drivers/CMSIS/Include/cmsis_gcc.h **** /*@} end of CMSIS_Core_RegAccFunctions */
 350:../../Drivers/CMSIS/Include/cmsis_gcc.h **** 
 351:../../Drivers/CMSIS/Include/cmsis_gcc.h **** 
 352:../../Drivers/CMSIS/Include/cmsis_gcc.h **** /* ##########################  Core Instruction Access  ######################### */
 353:../../Drivers/CMSIS/Include/cmsis_gcc.h **** /** \defgroup CMSIS_Core_InstructionInterface CMSIS Core Instruction Interface
 354:../../Drivers/CMSIS/Include/cmsis_gcc.h ****   Access to dedicated instructions
 355:../../Drivers/CMSIS/Include/cmsis_gcc.h ****   @{
 356:../../Drivers/CMSIS/Include/cmsis_gcc.h **** */
 357:../../Drivers/CMSIS/Include/cmsis_gcc.h **** 
 358:../../Drivers/CMSIS/Include/cmsis_gcc.h **** /* Define macros for porting to both thumb1 and thumb2.
 359:../../Drivers/CMSIS/Include/cmsis_gcc.h ****  * For thumb1, use low register (r0-r7), specified by constraint "l"
 360:../../Drivers/CMSIS/Include/cmsis_gcc.h ****  * Otherwise, use general registers, specified by constraint "r" */
 361:../../Drivers/CMSIS/Include/cmsis_gcc.h **** #if defined (__thumb__) && !defined (__thumb2__)
 362:../../Drivers/CMSIS/Include/cmsis_gcc.h **** #define __CMSIS_GCC_OUT_REG(r) "=l" (r)
 363:../../Drivers/CMSIS/Include/cmsis_gcc.h **** #define __CMSIS_GCC_USE_REG(r) "l" (r)
 364:../../Drivers/CMSIS/Include/cmsis_gcc.h **** #else
 365:../../Drivers/CMSIS/Include/cmsis_gcc.h **** #define __CMSIS_GCC_OUT_REG(r) "=r" (r)
 366:../../Drivers/CMSIS/Include/cmsis_gcc.h **** #define __CMSIS_GCC_USE_REG(r) "r" (r)
 367:../../Drivers/CMSIS/Include/cmsis_gcc.h **** #endif
 368:../../Drivers/CMSIS/Include/cmsis_gcc.h **** 
 369:../../Drivers/CMSIS/Include/cmsis_gcc.h **** /**
 370:../../Drivers/CMSIS/Include/cmsis_gcc.h ****   \brief   No Operation
 371:../../Drivers/CMSIS/Include/cmsis_gcc.h ****   \details No Operation does nothing. This instruction can be used for code alignment purposes.
ARM GAS  /tmp/ccIre3F4.s 			page 13


 372:../../Drivers/CMSIS/Include/cmsis_gcc.h ****  */
 373:../../Drivers/CMSIS/Include/cmsis_gcc.h **** __attribute__((always_inline)) __STATIC_INLINE void __NOP(void)
 374:../../Drivers/CMSIS/Include/cmsis_gcc.h **** {
 375:../../Drivers/CMSIS/Include/cmsis_gcc.h ****   __ASM volatile ("nop");
 376:../../Drivers/CMSIS/Include/cmsis_gcc.h **** }
 377:../../Drivers/CMSIS/Include/cmsis_gcc.h **** 
 378:../../Drivers/CMSIS/Include/cmsis_gcc.h **** 
 379:../../Drivers/CMSIS/Include/cmsis_gcc.h **** /**
 380:../../Drivers/CMSIS/Include/cmsis_gcc.h ****   \brief   Wait For Interrupt
 381:../../Drivers/CMSIS/Include/cmsis_gcc.h ****   \details Wait For Interrupt is a hint instruction that suspends execution until one of a number o
 382:../../Drivers/CMSIS/Include/cmsis_gcc.h ****  */
 383:../../Drivers/CMSIS/Include/cmsis_gcc.h **** __attribute__((always_inline)) __STATIC_INLINE void __WFI(void)
 384:../../Drivers/CMSIS/Include/cmsis_gcc.h **** {
 385:../../Drivers/CMSIS/Include/cmsis_gcc.h ****   __ASM volatile ("wfi");
 386:../../Drivers/CMSIS/Include/cmsis_gcc.h **** }
 387:../../Drivers/CMSIS/Include/cmsis_gcc.h **** 
 388:../../Drivers/CMSIS/Include/cmsis_gcc.h **** 
 389:../../Drivers/CMSIS/Include/cmsis_gcc.h **** /**
 390:../../Drivers/CMSIS/Include/cmsis_gcc.h ****   \brief   Wait For Event
 391:../../Drivers/CMSIS/Include/cmsis_gcc.h ****   \details Wait For Event is a hint instruction that permits the processor to enter
 392:../../Drivers/CMSIS/Include/cmsis_gcc.h ****     a low-power state until one of a number of events occurs.
 393:../../Drivers/CMSIS/Include/cmsis_gcc.h ****  */
 394:../../Drivers/CMSIS/Include/cmsis_gcc.h **** __attribute__((always_inline)) __STATIC_INLINE void __WFE(void)
 395:../../Drivers/CMSIS/Include/cmsis_gcc.h **** {
 396:../../Drivers/CMSIS/Include/cmsis_gcc.h ****   __ASM volatile ("wfe");
 397:../../Drivers/CMSIS/Include/cmsis_gcc.h **** }
 398:../../Drivers/CMSIS/Include/cmsis_gcc.h **** 
 399:../../Drivers/CMSIS/Include/cmsis_gcc.h **** 
 400:../../Drivers/CMSIS/Include/cmsis_gcc.h **** /**
 401:../../Drivers/CMSIS/Include/cmsis_gcc.h ****   \brief   Send Event
 402:../../Drivers/CMSIS/Include/cmsis_gcc.h ****   \details Send Event is a hint instruction. It causes an event to be signaled to the CPU.
 403:../../Drivers/CMSIS/Include/cmsis_gcc.h ****  */
 404:../../Drivers/CMSIS/Include/cmsis_gcc.h **** __attribute__((always_inline)) __STATIC_INLINE void __SEV(void)
 405:../../Drivers/CMSIS/Include/cmsis_gcc.h **** {
 406:../../Drivers/CMSIS/Include/cmsis_gcc.h ****   __ASM volatile ("sev");
 407:../../Drivers/CMSIS/Include/cmsis_gcc.h **** }
 408:../../Drivers/CMSIS/Include/cmsis_gcc.h **** 
 409:../../Drivers/CMSIS/Include/cmsis_gcc.h **** 
 410:../../Drivers/CMSIS/Include/cmsis_gcc.h **** /**
 411:../../Drivers/CMSIS/Include/cmsis_gcc.h ****   \brief   Instruction Synchronization Barrier
 412:../../Drivers/CMSIS/Include/cmsis_gcc.h ****   \details Instruction Synchronization Barrier flushes the pipeline in the processor,
 413:../../Drivers/CMSIS/Include/cmsis_gcc.h ****            so that all instructions following the ISB are fetched from cache or memory,
 414:../../Drivers/CMSIS/Include/cmsis_gcc.h ****            after the instruction has been completed.
 415:../../Drivers/CMSIS/Include/cmsis_gcc.h ****  */
 416:../../Drivers/CMSIS/Include/cmsis_gcc.h **** __attribute__((always_inline)) __STATIC_INLINE void __ISB(void)
 417:../../Drivers/CMSIS/Include/cmsis_gcc.h **** {
 418:../../Drivers/CMSIS/Include/cmsis_gcc.h ****   __ASM volatile ("isb 0xF":::"memory");
 419:../../Drivers/CMSIS/Include/cmsis_gcc.h **** }
 420:../../Drivers/CMSIS/Include/cmsis_gcc.h **** 
 421:../../Drivers/CMSIS/Include/cmsis_gcc.h **** 
 422:../../Drivers/CMSIS/Include/cmsis_gcc.h **** /**
 423:../../Drivers/CMSIS/Include/cmsis_gcc.h ****   \brief   Data Synchronization Barrier
 424:../../Drivers/CMSIS/Include/cmsis_gcc.h ****   \details Acts as a special kind of Data Memory Barrier.
 425:../../Drivers/CMSIS/Include/cmsis_gcc.h ****            It completes when all explicit memory accesses before this instruction complete.
 426:../../Drivers/CMSIS/Include/cmsis_gcc.h ****  */
 427:../../Drivers/CMSIS/Include/cmsis_gcc.h **** __attribute__((always_inline)) __STATIC_INLINE void __DSB(void)
 428:../../Drivers/CMSIS/Include/cmsis_gcc.h **** {
ARM GAS  /tmp/ccIre3F4.s 			page 14


 429:../../Drivers/CMSIS/Include/cmsis_gcc.h ****   __ASM volatile ("dsb 0xF":::"memory");
 430:../../Drivers/CMSIS/Include/cmsis_gcc.h **** }
 431:../../Drivers/CMSIS/Include/cmsis_gcc.h **** 
 432:../../Drivers/CMSIS/Include/cmsis_gcc.h **** 
 433:../../Drivers/CMSIS/Include/cmsis_gcc.h **** /**
 434:../../Drivers/CMSIS/Include/cmsis_gcc.h ****   \brief   Data Memory Barrier
 435:../../Drivers/CMSIS/Include/cmsis_gcc.h ****   \details Ensures the apparent order of the explicit memory operations before
 436:../../Drivers/CMSIS/Include/cmsis_gcc.h ****            and after the instruction, without ensuring their completion.
 437:../../Drivers/CMSIS/Include/cmsis_gcc.h ****  */
 438:../../Drivers/CMSIS/Include/cmsis_gcc.h **** __attribute__((always_inline)) __STATIC_INLINE void __DMB(void)
 439:../../Drivers/CMSIS/Include/cmsis_gcc.h **** {
 440:../../Drivers/CMSIS/Include/cmsis_gcc.h ****   __ASM volatile ("dmb 0xF":::"memory");
 441:../../Drivers/CMSIS/Include/cmsis_gcc.h **** }
 442:../../Drivers/CMSIS/Include/cmsis_gcc.h **** 
 443:../../Drivers/CMSIS/Include/cmsis_gcc.h **** 
 444:../../Drivers/CMSIS/Include/cmsis_gcc.h **** /**
 445:../../Drivers/CMSIS/Include/cmsis_gcc.h ****   \brief   Reverse byte order (32 bit)
 446:../../Drivers/CMSIS/Include/cmsis_gcc.h ****   \details Reverses the byte order in integer value.
 447:../../Drivers/CMSIS/Include/cmsis_gcc.h ****   \param [in]    value  Value to reverse
 448:../../Drivers/CMSIS/Include/cmsis_gcc.h ****   \return               Reversed value
 449:../../Drivers/CMSIS/Include/cmsis_gcc.h ****  */
 450:../../Drivers/CMSIS/Include/cmsis_gcc.h **** __attribute__((always_inline)) __STATIC_INLINE uint32_t __REV(uint32_t value)
 451:../../Drivers/CMSIS/Include/cmsis_gcc.h **** {
 452:../../Drivers/CMSIS/Include/cmsis_gcc.h **** #if (__GNUC__ > 4) || (__GNUC__ == 4 && __GNUC_MINOR__ >= 5)
 453:../../Drivers/CMSIS/Include/cmsis_gcc.h ****   return __builtin_bswap32(value);
 454:../../Drivers/CMSIS/Include/cmsis_gcc.h **** #else
 455:../../Drivers/CMSIS/Include/cmsis_gcc.h ****   uint32_t result;
 456:../../Drivers/CMSIS/Include/cmsis_gcc.h **** 
 457:../../Drivers/CMSIS/Include/cmsis_gcc.h ****   __ASM volatile ("rev %0, %1" : __CMSIS_GCC_OUT_REG (result) : __CMSIS_GCC_USE_REG (value) );
 458:../../Drivers/CMSIS/Include/cmsis_gcc.h ****   return(result);
 459:../../Drivers/CMSIS/Include/cmsis_gcc.h **** #endif
 460:../../Drivers/CMSIS/Include/cmsis_gcc.h **** }
 461:../../Drivers/CMSIS/Include/cmsis_gcc.h **** 
 462:../../Drivers/CMSIS/Include/cmsis_gcc.h **** 
 463:../../Drivers/CMSIS/Include/cmsis_gcc.h **** /**
 464:../../Drivers/CMSIS/Include/cmsis_gcc.h ****   \brief   Reverse byte order (16 bit)
 465:../../Drivers/CMSIS/Include/cmsis_gcc.h ****   \details Reverses the byte order in two unsigned short values.
 466:../../Drivers/CMSIS/Include/cmsis_gcc.h ****   \param [in]    value  Value to reverse
 467:../../Drivers/CMSIS/Include/cmsis_gcc.h ****   \return               Reversed value
 468:../../Drivers/CMSIS/Include/cmsis_gcc.h ****  */
 469:../../Drivers/CMSIS/Include/cmsis_gcc.h **** __attribute__((always_inline)) __STATIC_INLINE uint32_t __REV16(uint32_t value)
 470:../../Drivers/CMSIS/Include/cmsis_gcc.h **** {
 471:../../Drivers/CMSIS/Include/cmsis_gcc.h ****   uint32_t result;
 472:../../Drivers/CMSIS/Include/cmsis_gcc.h **** 
 473:../../Drivers/CMSIS/Include/cmsis_gcc.h ****   __ASM volatile ("rev16 %0, %1" : __CMSIS_GCC_OUT_REG (result) : __CMSIS_GCC_USE_REG (value) );
 474:../../Drivers/CMSIS/Include/cmsis_gcc.h ****   return(result);
 475:../../Drivers/CMSIS/Include/cmsis_gcc.h **** }
 476:../../Drivers/CMSIS/Include/cmsis_gcc.h **** 
 477:../../Drivers/CMSIS/Include/cmsis_gcc.h **** 
 478:../../Drivers/CMSIS/Include/cmsis_gcc.h **** /**
 479:../../Drivers/CMSIS/Include/cmsis_gcc.h ****   \brief   Reverse byte order in signed short value
 480:../../Drivers/CMSIS/Include/cmsis_gcc.h ****   \details Reverses the byte order in a signed short value with sign extension to integer.
 481:../../Drivers/CMSIS/Include/cmsis_gcc.h ****   \param [in]    value  Value to reverse
 482:../../Drivers/CMSIS/Include/cmsis_gcc.h ****   \return               Reversed value
 483:../../Drivers/CMSIS/Include/cmsis_gcc.h ****  */
 484:../../Drivers/CMSIS/Include/cmsis_gcc.h **** __attribute__((always_inline)) __STATIC_INLINE int32_t __REVSH(int32_t value)
 485:../../Drivers/CMSIS/Include/cmsis_gcc.h **** {
ARM GAS  /tmp/ccIre3F4.s 			page 15


 486:../../Drivers/CMSIS/Include/cmsis_gcc.h **** #if (__GNUC__ > 4) || (__GNUC__ == 4 && __GNUC_MINOR__ >= 8)
 487:../../Drivers/CMSIS/Include/cmsis_gcc.h ****   return (short)__builtin_bswap16(value);
 488:../../Drivers/CMSIS/Include/cmsis_gcc.h **** #else
 489:../../Drivers/CMSIS/Include/cmsis_gcc.h ****   int32_t result;
 490:../../Drivers/CMSIS/Include/cmsis_gcc.h **** 
 491:../../Drivers/CMSIS/Include/cmsis_gcc.h ****   __ASM volatile ("revsh %0, %1" : __CMSIS_GCC_OUT_REG (result) : __CMSIS_GCC_USE_REG (value) );
 492:../../Drivers/CMSIS/Include/cmsis_gcc.h ****   return(result);
 493:../../Drivers/CMSIS/Include/cmsis_gcc.h **** #endif
 494:../../Drivers/CMSIS/Include/cmsis_gcc.h **** }
 495:../../Drivers/CMSIS/Include/cmsis_gcc.h **** 
 496:../../Drivers/CMSIS/Include/cmsis_gcc.h **** 
 497:../../Drivers/CMSIS/Include/cmsis_gcc.h **** /**
 498:../../Drivers/CMSIS/Include/cmsis_gcc.h ****   \brief   Rotate Right in unsigned value (32 bit)
 499:../../Drivers/CMSIS/Include/cmsis_gcc.h ****   \details Rotate Right (immediate) provides the value of the contents of a register rotated by a v
 500:../../Drivers/CMSIS/Include/cmsis_gcc.h ****   \param [in]    value  Value to rotate
 501:../../Drivers/CMSIS/Include/cmsis_gcc.h ****   \param [in]    value  Number of Bits to rotate
 502:../../Drivers/CMSIS/Include/cmsis_gcc.h ****   \return               Rotated value
 503:../../Drivers/CMSIS/Include/cmsis_gcc.h ****  */
 504:../../Drivers/CMSIS/Include/cmsis_gcc.h **** __attribute__((always_inline)) __STATIC_INLINE uint32_t __ROR(uint32_t op1, uint32_t op2)
 505:../../Drivers/CMSIS/Include/cmsis_gcc.h **** {
 506:../../Drivers/CMSIS/Include/cmsis_gcc.h ****   return (op1 >> op2) | (op1 << (32U - op2));
 507:../../Drivers/CMSIS/Include/cmsis_gcc.h **** }
 508:../../Drivers/CMSIS/Include/cmsis_gcc.h **** 
 509:../../Drivers/CMSIS/Include/cmsis_gcc.h **** 
 510:../../Drivers/CMSIS/Include/cmsis_gcc.h **** /**
 511:../../Drivers/CMSIS/Include/cmsis_gcc.h ****   \brief   Breakpoint
 512:../../Drivers/CMSIS/Include/cmsis_gcc.h ****   \details Causes the processor to enter Debug state.
 513:../../Drivers/CMSIS/Include/cmsis_gcc.h ****            Debug tools can use this to investigate system state when the instruction at a particula
 514:../../Drivers/CMSIS/Include/cmsis_gcc.h ****   \param [in]    value  is ignored by the processor.
 515:../../Drivers/CMSIS/Include/cmsis_gcc.h ****                  If required, a debugger can use it to store additional information about the break
 516:../../Drivers/CMSIS/Include/cmsis_gcc.h ****  */
 517:../../Drivers/CMSIS/Include/cmsis_gcc.h **** #define __BKPT(value)                       __ASM volatile ("bkpt "#value)
 518:../../Drivers/CMSIS/Include/cmsis_gcc.h **** 
 519:../../Drivers/CMSIS/Include/cmsis_gcc.h **** 
 520:../../Drivers/CMSIS/Include/cmsis_gcc.h **** /**
 521:../../Drivers/CMSIS/Include/cmsis_gcc.h ****   \brief   Reverse bit order of value
 522:../../Drivers/CMSIS/Include/cmsis_gcc.h ****   \details Reverses the bit order of the given value.
 523:../../Drivers/CMSIS/Include/cmsis_gcc.h ****   \param [in]    value  Value to reverse
 524:../../Drivers/CMSIS/Include/cmsis_gcc.h ****   \return               Reversed value
 525:../../Drivers/CMSIS/Include/cmsis_gcc.h ****  */
 526:../../Drivers/CMSIS/Include/cmsis_gcc.h **** __attribute__((always_inline)) __STATIC_INLINE uint32_t __RBIT(uint32_t value)
 527:../../Drivers/CMSIS/Include/cmsis_gcc.h **** {
 528:../../Drivers/CMSIS/Include/cmsis_gcc.h ****   uint32_t result;
 529:../../Drivers/CMSIS/Include/cmsis_gcc.h **** 
 530:../../Drivers/CMSIS/Include/cmsis_gcc.h **** #if       (__CORTEX_M >= 0x03U) || (__CORTEX_SC >= 300U)
 531:../../Drivers/CMSIS/Include/cmsis_gcc.h ****    __ASM volatile ("rbit %0, %1" : "=r" (result) : "r" (value) );
 146              		.loc 2 531 0
 147 00be BB6B     		ldr	r3, [r7, #56]
 148              	@ 531 "../../Drivers/CMSIS/Include/cmsis_gcc.h" 1
 149 00c0 93FAA3F3 		rbit r3, r3
 150              	@ 0 "" 2
 151              		.thumb
 152 00c4 7B63     		str	r3, [r7, #52]
 532:../../Drivers/CMSIS/Include/cmsis_gcc.h **** #else
 533:../../Drivers/CMSIS/Include/cmsis_gcc.h ****   int32_t s = 4 /*sizeof(v)*/ * 8 - 1; /* extra shift needed at end */
 534:../../Drivers/CMSIS/Include/cmsis_gcc.h **** 
 535:../../Drivers/CMSIS/Include/cmsis_gcc.h ****   result = value;                      /* r will be reversed bits of v; first get LSB of v */
ARM GAS  /tmp/ccIre3F4.s 			page 16


 536:../../Drivers/CMSIS/Include/cmsis_gcc.h ****   for (value >>= 1U; value; value >>= 1U)
 537:../../Drivers/CMSIS/Include/cmsis_gcc.h ****   {
 538:../../Drivers/CMSIS/Include/cmsis_gcc.h ****     result <<= 1U;
 539:../../Drivers/CMSIS/Include/cmsis_gcc.h ****     result |= value & 1U;
 540:../../Drivers/CMSIS/Include/cmsis_gcc.h ****     s--;
 541:../../Drivers/CMSIS/Include/cmsis_gcc.h ****   }
 542:../../Drivers/CMSIS/Include/cmsis_gcc.h ****   result <<= s;                        /* shift when v's highest bits are zero */
 543:../../Drivers/CMSIS/Include/cmsis_gcc.h **** #endif
 544:../../Drivers/CMSIS/Include/cmsis_gcc.h ****   return(result);
 153              		.loc 2 544 0
 154 00c6 7B6B     		ldr	r3, [r7, #52]
 155              	.LBE21:
 156              	.LBE20:
 169:../../Drivers/STM32F3xx_HAL_Driver/Src/stm32f3xx_hal_rcc_ex.c ****       /* RTC Clock selection can be changed only if the Backup Domain is reset */
 170:../../Drivers/STM32F3xx_HAL_Driver/Src/stm32f3xx_hal_rcc_ex.c ****       __HAL_RCC_BACKUPRESET_FORCE();
 157              		.loc 1 170 0
 158 00c8 B3FA83F3 		clz	r3, r3
 159 00cc 1A46     		mov	r2, r3
 160 00ce 384B     		ldr	r3, .L34+8
 161 00d0 1344     		add	r3, r3, r2
 162 00d2 9B00     		lsls	r3, r3, #2
 163 00d4 1A46     		mov	r2, r3
 164 00d6 0123     		movs	r3, #1
 165 00d8 1360     		str	r3, [r2]
 166 00da 4FF48033 		mov	r3, #65536
 167 00de 3B63     		str	r3, [r7, #48]
 168              	.LBB22:
 169              	.LBB23:
 531:../../Drivers/CMSIS/Include/cmsis_gcc.h **** #else
 170              		.loc 2 531 0
 171 00e0 3B6B     		ldr	r3, [r7, #48]
 172              	@ 531 "../../Drivers/CMSIS/Include/cmsis_gcc.h" 1
 173 00e2 93FAA3F3 		rbit r3, r3
 174              	@ 0 "" 2
 175              		.thumb
 176 00e6 FB62     		str	r3, [r7, #44]
 177              		.loc 2 544 0
 178 00e8 FB6A     		ldr	r3, [r7, #44]
 179              	.LBE23:
 180              	.LBE22:
 171:../../Drivers/STM32F3xx_HAL_Driver/Src/stm32f3xx_hal_rcc_ex.c ****       __HAL_RCC_BACKUPRESET_RELEASE();
 181              		.loc 1 171 0
 182 00ea B3FA83F3 		clz	r3, r3
 183 00ee 1A46     		mov	r2, r3
 184 00f0 2F4B     		ldr	r3, .L34+8
 185 00f2 1344     		add	r3, r3, r2
 186 00f4 9B00     		lsls	r3, r3, #2
 187 00f6 1A46     		mov	r2, r3
 188 00f8 0023     		movs	r3, #0
 189 00fa 1360     		str	r3, [r2]
 172:../../Drivers/STM32F3xx_HAL_Driver/Src/stm32f3xx_hal_rcc_ex.c ****       /* Restore the Content of BDCR register */
 173:../../Drivers/STM32F3xx_HAL_Driver/Src/stm32f3xx_hal_rcc_ex.c ****       RCC->BDCR = temp_reg;
 190              		.loc 1 173 0
 191 00fc 2A4A     		ldr	r2, .L34
 192 00fe FB6B     		ldr	r3, [r7, #60]
 193 0100 1362     		str	r3, [r2, #32]
 174:../../Drivers/STM32F3xx_HAL_Driver/Src/stm32f3xx_hal_rcc_ex.c ****     
ARM GAS  /tmp/ccIre3F4.s 			page 17


 175:../../Drivers/STM32F3xx_HAL_Driver/Src/stm32f3xx_hal_rcc_ex.c ****       /* Wait for LSERDY if LSE was enabled */
 176:../../Drivers/STM32F3xx_HAL_Driver/Src/stm32f3xx_hal_rcc_ex.c ****       if (HAL_IS_BIT_SET(temp_reg, RCC_BDCR_LSEON))
 194              		.loc 1 176 0
 195 0102 FB6B     		ldr	r3, [r7, #60]
 196 0104 03F00103 		and	r3, r3, #1
 197 0108 002B     		cmp	r3, #0
 198 010a 6BD0     		beq	.L8
 177:../../Drivers/STM32F3xx_HAL_Driver/Src/stm32f3xx_hal_rcc_ex.c ****       {
 178:../../Drivers/STM32F3xx_HAL_Driver/Src/stm32f3xx_hal_rcc_ex.c ****         /* Get Start Tick */
 179:../../Drivers/STM32F3xx_HAL_Driver/Src/stm32f3xx_hal_rcc_ex.c ****         tickstart = HAL_GetTick();
 199              		.loc 1 179 0
 200 010c FFF7FEFF 		bl	HAL_GetTick
 201 0110 3864     		str	r0, [r7, #64]
 180:../../Drivers/STM32F3xx_HAL_Driver/Src/stm32f3xx_hal_rcc_ex.c ****         
 181:../../Drivers/STM32F3xx_HAL_Driver/Src/stm32f3xx_hal_rcc_ex.c ****         /* Wait till LSE is ready */  
 182:../../Drivers/STM32F3xx_HAL_Driver/Src/stm32f3xx_hal_rcc_ex.c ****         while(__HAL_RCC_GET_FLAG(RCC_FLAG_LSERDY) == RESET)
 202              		.loc 1 182 0
 203 0112 0AE0     		b	.L11
 204              	.L22:
 183:../../Drivers/STM32F3xx_HAL_Driver/Src/stm32f3xx_hal_rcc_ex.c ****         {
 184:../../Drivers/STM32F3xx_HAL_Driver/Src/stm32f3xx_hal_rcc_ex.c ****             if((HAL_GetTick() - tickstart) > RCC_LSE_TIMEOUT_VALUE)
 205              		.loc 1 184 0
 206 0114 FFF7FEFF 		bl	HAL_GetTick
 207 0118 0246     		mov	r2, r0
 208 011a 3B6C     		ldr	r3, [r7, #64]
 209 011c D31A     		subs	r3, r2, r3
 210 011e 41F28832 		movw	r2, #5000
 211 0122 9342     		cmp	r3, r2
 212 0124 01D9     		bls	.L11
 185:../../Drivers/STM32F3xx_HAL_Driver/Src/stm32f3xx_hal_rcc_ex.c ****           {
 186:../../Drivers/STM32F3xx_HAL_Driver/Src/stm32f3xx_hal_rcc_ex.c ****             return HAL_TIMEOUT;
 213              		.loc 1 186 0
 214 0126 0323     		movs	r3, #3
 215 0128 15E1     		b	.L6
 216              	.L11:
 217 012a 0223     		movs	r3, #2
 218 012c BB62     		str	r3, [r7, #40]
 219              	.LBB24:
 220              	.LBB25:
 531:../../Drivers/CMSIS/Include/cmsis_gcc.h **** #else
 221              		.loc 2 531 0
 222 012e BB6A     		ldr	r3, [r7, #40]
 223              	@ 531 "../../Drivers/CMSIS/Include/cmsis_gcc.h" 1
 224 0130 93FAA3F3 		rbit r3, r3
 225              	@ 0 "" 2
 226              		.thumb
 227 0134 7B62     		str	r3, [r7, #36]
 228              		.loc 2 544 0
 229 0136 7B6A     		ldr	r3, [r7, #36]
 230              	.LBE25:
 231              	.LBE24:
 182:../../Drivers/STM32F3xx_HAL_Driver/Src/stm32f3xx_hal_rcc_ex.c ****         {
 232              		.loc 1 182 0
 233 0138 B3FA83F3 		clz	r3, r3
 234 013c DBB2     		uxtb	r3, r3
 235 013e 43F04003 		orr	r3, r3, #64
 236 0142 DBB2     		uxtb	r3, r3
ARM GAS  /tmp/ccIre3F4.s 			page 18


 237 0144 DBB2     		uxtb	r3, r3
 238 0146 5B09     		lsrs	r3, r3, #5
 239 0148 DBB2     		uxtb	r3, r3
 240 014a 012B     		cmp	r3, #1
 241 014c 02D1     		bne	.L13
 182:../../Drivers/STM32F3xx_HAL_Driver/Src/stm32f3xx_hal_rcc_ex.c ****         {
 242              		.loc 1 182 0 is_stmt 0 discriminator 1
 243 014e 164B     		ldr	r3, .L34
 244 0150 1B68     		ldr	r3, [r3]
 245 0152 31E0     		b	.L14
 246              	.L13:
 247 0154 0223     		movs	r3, #2
 248 0156 3B62     		str	r3, [r7, #32]
 249              	.LBB26:
 250              	.LBB27:
 531:../../Drivers/CMSIS/Include/cmsis_gcc.h **** #else
 251              		.loc 2 531 0 is_stmt 1 discriminator 2
 252 0158 3B6A     		ldr	r3, [r7, #32]
 253              	@ 531 "../../Drivers/CMSIS/Include/cmsis_gcc.h" 1
 254 015a 93FAA3F3 		rbit r3, r3
 255              	@ 0 "" 2
 256              		.thumb
 257 015e FB61     		str	r3, [r7, #28]
 258              		.loc 2 544 0 discriminator 2
 259 0160 FB69     		ldr	r3, [r7, #28]
 260              	.LBE27:
 261              	.LBE26:
 182:../../Drivers/STM32F3xx_HAL_Driver/Src/stm32f3xx_hal_rcc_ex.c ****         {
 262              		.loc 1 182 0 discriminator 2
 263 0162 B3FA83F3 		clz	r3, r3
 264 0166 DBB2     		uxtb	r3, r3
 265 0168 43F04003 		orr	r3, r3, #64
 266 016c DBB2     		uxtb	r3, r3
 267 016e DBB2     		uxtb	r3, r3
 268 0170 5B09     		lsrs	r3, r3, #5
 269 0172 DBB2     		uxtb	r3, r3
 270 0174 022B     		cmp	r3, #2
 271 0176 02D1     		bne	.L16
 182:../../Drivers/STM32F3xx_HAL_Driver/Src/stm32f3xx_hal_rcc_ex.c ****         {
 272              		.loc 1 182 0 is_stmt 0 discriminator 4
 273 0178 0B4B     		ldr	r3, .L34
 274 017a 1B6A     		ldr	r3, [r3, #32]
 275 017c 1CE0     		b	.L14
 276              	.L16:
 277 017e 0223     		movs	r3, #2
 278 0180 BB61     		str	r3, [r7, #24]
 279              	.LBB28:
 280              	.LBB29:
 531:../../Drivers/CMSIS/Include/cmsis_gcc.h **** #else
 281              		.loc 2 531 0 is_stmt 1 discriminator 5
 282 0182 BB69     		ldr	r3, [r7, #24]
 283              	@ 531 "../../Drivers/CMSIS/Include/cmsis_gcc.h" 1
 284 0184 93FAA3F3 		rbit r3, r3
 285              	@ 0 "" 2
 286              		.thumb
 287 0188 7B61     		str	r3, [r7, #20]
 288              		.loc 2 544 0 discriminator 5
ARM GAS  /tmp/ccIre3F4.s 			page 19


 289 018a 7B69     		ldr	r3, [r7, #20]
 290              	.LBE29:
 291              	.LBE28:
 182:../../Drivers/STM32F3xx_HAL_Driver/Src/stm32f3xx_hal_rcc_ex.c ****         {
 292              		.loc 1 182 0 discriminator 5
 293 018c B3FA83F3 		clz	r3, r3
 294 0190 DBB2     		uxtb	r3, r3
 295 0192 43F04003 		orr	r3, r3, #64
 296 0196 DBB2     		uxtb	r3, r3
 297 0198 DBB2     		uxtb	r3, r3
 298 019a 5B09     		lsrs	r3, r3, #5
 299 019c DBB2     		uxtb	r3, r3
 300 019e 042B     		cmp	r3, #4
 301 01a0 08D1     		bne	.L19
 182:../../Drivers/STM32F3xx_HAL_Driver/Src/stm32f3xx_hal_rcc_ex.c ****         {
 302              		.loc 1 182 0 is_stmt 0 discriminator 7
 303 01a2 014B     		ldr	r3, .L34
 304 01a4 5B68     		ldr	r3, [r3, #4]
 305 01a6 07E0     		b	.L14
 306              	.L35:
 307              		.align	2
 308              	.L34:
 309 01a8 00100240 		.word	1073876992
 310 01ac 00700040 		.word	1073770496
 311 01b0 00819010 		.word	277905664
 312              	.L19:
 182:../../Drivers/STM32F3xx_HAL_Driver/Src/stm32f3xx_hal_rcc_ex.c ****         {
 313              		.loc 1 182 0 discriminator 8
 314 01b4 6A4B     		ldr	r3, .L36
 315 01b6 5B6A     		ldr	r3, [r3, #36]
 316              	.L14:
 317 01b8 0222     		movs	r2, #2
 318 01ba 3A61     		str	r2, [r7, #16]
 319              	.LBB30:
 320              	.LBB31:
 531:../../Drivers/CMSIS/Include/cmsis_gcc.h **** #else
 321              		.loc 2 531 0 is_stmt 1 discriminator 12
 322 01bc 3A69     		ldr	r2, [r7, #16]
 323              	@ 531 "../../Drivers/CMSIS/Include/cmsis_gcc.h" 1
 324 01be 92FAA2F2 		rbit r2, r2
 325              	@ 0 "" 2
 326              		.thumb
 327 01c2 FA60     		str	r2, [r7, #12]
 328              		.loc 2 544 0 discriminator 12
 329 01c4 FA68     		ldr	r2, [r7, #12]
 330              	.LBE31:
 331              	.LBE30:
 182:../../Drivers/STM32F3xx_HAL_Driver/Src/stm32f3xx_hal_rcc_ex.c ****         {
 332              		.loc 1 182 0 discriminator 12
 333 01c6 B2FA82F2 		clz	r2, r2
 334 01ca D2B2     		uxtb	r2, r2
 335 01cc 42F04002 		orr	r2, r2, #64
 336 01d0 D2B2     		uxtb	r2, r2
 337 01d2 D2B2     		uxtb	r2, r2
 338 01d4 02F01F02 		and	r2, r2, #31
 339 01d8 0121     		movs	r1, #1
 340 01da 01FA02F2 		lsl	r2, r1, r2
ARM GAS  /tmp/ccIre3F4.s 			page 20


 341 01de 1340     		ands	r3, r3, r2
 342 01e0 002B     		cmp	r3, #0
 343 01e2 97D0     		beq	.L22
 344              	.L8:
 187:../../Drivers/STM32F3xx_HAL_Driver/Src/stm32f3xx_hal_rcc_ex.c ****           }      
 188:../../Drivers/STM32F3xx_HAL_Driver/Src/stm32f3xx_hal_rcc_ex.c ****         }  
 189:../../Drivers/STM32F3xx_HAL_Driver/Src/stm32f3xx_hal_rcc_ex.c ****       }
 190:../../Drivers/STM32F3xx_HAL_Driver/Src/stm32f3xx_hal_rcc_ex.c ****     }
 191:../../Drivers/STM32F3xx_HAL_Driver/Src/stm32f3xx_hal_rcc_ex.c ****     __HAL_RCC_RTC_CONFIG(PeriphClkInit->RTCClockSelection); 
 345              		.loc 1 191 0
 346 01e4 5E49     		ldr	r1, .L36
 347 01e6 5E4B     		ldr	r3, .L36
 348 01e8 1B6A     		ldr	r3, [r3, #32]
 349 01ea 23F44072 		bic	r2, r3, #768
 350 01ee 7B68     		ldr	r3, [r7, #4]
 351 01f0 5B68     		ldr	r3, [r3, #4]
 352 01f2 1343     		orrs	r3, r3, r2
 353 01f4 0B62     		str	r3, [r1, #32]
 192:../../Drivers/STM32F3xx_HAL_Driver/Src/stm32f3xx_hal_rcc_ex.c **** 
 193:../../Drivers/STM32F3xx_HAL_Driver/Src/stm32f3xx_hal_rcc_ex.c ****     /* Require to disable power clock if necessary */
 194:../../Drivers/STM32F3xx_HAL_Driver/Src/stm32f3xx_hal_rcc_ex.c ****     if(pwrclkchanged == SET)
 354              		.loc 1 194 0
 355 01f6 97F84730 		ldrb	r3, [r7, #71]	@ zero_extendqisi2
 356 01fa 012B     		cmp	r3, #1
 357 01fc 05D1     		bne	.L2
 195:../../Drivers/STM32F3xx_HAL_Driver/Src/stm32f3xx_hal_rcc_ex.c ****     {
 196:../../Drivers/STM32F3xx_HAL_Driver/Src/stm32f3xx_hal_rcc_ex.c ****       __HAL_RCC_PWR_CLK_DISABLE();
 358              		.loc 1 196 0
 359 01fe 584A     		ldr	r2, .L36
 360 0200 574B     		ldr	r3, .L36
 361 0202 DB69     		ldr	r3, [r3, #28]
 362 0204 23F08053 		bic	r3, r3, #268435456
 363 0208 D361     		str	r3, [r2, #28]
 364              	.L2:
 365              	.LBE18:
 197:../../Drivers/STM32F3xx_HAL_Driver/Src/stm32f3xx_hal_rcc_ex.c ****     }
 198:../../Drivers/STM32F3xx_HAL_Driver/Src/stm32f3xx_hal_rcc_ex.c ****   }
 199:../../Drivers/STM32F3xx_HAL_Driver/Src/stm32f3xx_hal_rcc_ex.c **** 
 200:../../Drivers/STM32F3xx_HAL_Driver/Src/stm32f3xx_hal_rcc_ex.c ****   /*------------------------------- USART1 Configuration ------------------------*/
 201:../../Drivers/STM32F3xx_HAL_Driver/Src/stm32f3xx_hal_rcc_ex.c ****   if(((PeriphClkInit->PeriphClockSelection) & RCC_PERIPHCLK_USART1) == RCC_PERIPHCLK_USART1)
 366              		.loc 1 201 0
 367 020a 7B68     		ldr	r3, [r7, #4]
 368 020c 1B68     		ldr	r3, [r3]
 369 020e 03F00103 		and	r3, r3, #1
 370 0212 002B     		cmp	r3, #0
 371 0214 08D0     		beq	.L23
 202:../../Drivers/STM32F3xx_HAL_Driver/Src/stm32f3xx_hal_rcc_ex.c ****   {
 203:../../Drivers/STM32F3xx_HAL_Driver/Src/stm32f3xx_hal_rcc_ex.c ****     /* Check the parameters */
 204:../../Drivers/STM32F3xx_HAL_Driver/Src/stm32f3xx_hal_rcc_ex.c ****     assert_param(IS_RCC_USART1CLKSOURCE(PeriphClkInit->Usart1ClockSelection));
 205:../../Drivers/STM32F3xx_HAL_Driver/Src/stm32f3xx_hal_rcc_ex.c ****     
 206:../../Drivers/STM32F3xx_HAL_Driver/Src/stm32f3xx_hal_rcc_ex.c ****     /* Configure the USART1 clock source */
 207:../../Drivers/STM32F3xx_HAL_Driver/Src/stm32f3xx_hal_rcc_ex.c ****     __HAL_RCC_USART1_CONFIG(PeriphClkInit->Usart1ClockSelection);
 372              		.loc 1 207 0
 373 0216 5249     		ldr	r1, .L36
 374 0218 514B     		ldr	r3, .L36
 375 021a 1B6B     		ldr	r3, [r3, #48]
 376 021c 23F00302 		bic	r2, r3, #3
ARM GAS  /tmp/ccIre3F4.s 			page 21


 377 0220 7B68     		ldr	r3, [r7, #4]
 378 0222 9B68     		ldr	r3, [r3, #8]
 379 0224 1343     		orrs	r3, r3, r2
 380 0226 0B63     		str	r3, [r1, #48]
 381              	.L23:
 208:../../Drivers/STM32F3xx_HAL_Driver/Src/stm32f3xx_hal_rcc_ex.c ****   }
 209:../../Drivers/STM32F3xx_HAL_Driver/Src/stm32f3xx_hal_rcc_ex.c **** 
 210:../../Drivers/STM32F3xx_HAL_Driver/Src/stm32f3xx_hal_rcc_ex.c **** #if defined(RCC_CFGR3_USART2SW)
 211:../../Drivers/STM32F3xx_HAL_Driver/Src/stm32f3xx_hal_rcc_ex.c ****   /*----------------------------- USART2 Configuration --------------------------*/ 
 212:../../Drivers/STM32F3xx_HAL_Driver/Src/stm32f3xx_hal_rcc_ex.c ****   if(((PeriphClkInit->PeriphClockSelection) & RCC_PERIPHCLK_USART2) == RCC_PERIPHCLK_USART2)
 213:../../Drivers/STM32F3xx_HAL_Driver/Src/stm32f3xx_hal_rcc_ex.c ****   {
 214:../../Drivers/STM32F3xx_HAL_Driver/Src/stm32f3xx_hal_rcc_ex.c ****     /* Check the parameters */
 215:../../Drivers/STM32F3xx_HAL_Driver/Src/stm32f3xx_hal_rcc_ex.c ****     assert_param(IS_RCC_USART2CLKSOURCE(PeriphClkInit->Usart2ClockSelection));
 216:../../Drivers/STM32F3xx_HAL_Driver/Src/stm32f3xx_hal_rcc_ex.c ****     
 217:../../Drivers/STM32F3xx_HAL_Driver/Src/stm32f3xx_hal_rcc_ex.c ****     /* Configure the USART2 clock source */
 218:../../Drivers/STM32F3xx_HAL_Driver/Src/stm32f3xx_hal_rcc_ex.c ****     __HAL_RCC_USART2_CONFIG(PeriphClkInit->Usart2ClockSelection);
 219:../../Drivers/STM32F3xx_HAL_Driver/Src/stm32f3xx_hal_rcc_ex.c ****   }
 220:../../Drivers/STM32F3xx_HAL_Driver/Src/stm32f3xx_hal_rcc_ex.c **** #endif /* RCC_CFGR3_USART2SW */
 221:../../Drivers/STM32F3xx_HAL_Driver/Src/stm32f3xx_hal_rcc_ex.c **** 
 222:../../Drivers/STM32F3xx_HAL_Driver/Src/stm32f3xx_hal_rcc_ex.c **** #if defined(RCC_CFGR3_USART3SW)
 223:../../Drivers/STM32F3xx_HAL_Driver/Src/stm32f3xx_hal_rcc_ex.c ****   /*------------------------------ USART3 Configuration ------------------------*/ 
 224:../../Drivers/STM32F3xx_HAL_Driver/Src/stm32f3xx_hal_rcc_ex.c ****   if(((PeriphClkInit->PeriphClockSelection) & RCC_PERIPHCLK_USART3) == RCC_PERIPHCLK_USART3)
 225:../../Drivers/STM32F3xx_HAL_Driver/Src/stm32f3xx_hal_rcc_ex.c ****   {
 226:../../Drivers/STM32F3xx_HAL_Driver/Src/stm32f3xx_hal_rcc_ex.c ****     /* Check the parameters */
 227:../../Drivers/STM32F3xx_HAL_Driver/Src/stm32f3xx_hal_rcc_ex.c ****     assert_param(IS_RCC_USART3CLKSOURCE(PeriphClkInit->Usart3ClockSelection));
 228:../../Drivers/STM32F3xx_HAL_Driver/Src/stm32f3xx_hal_rcc_ex.c ****     
 229:../../Drivers/STM32F3xx_HAL_Driver/Src/stm32f3xx_hal_rcc_ex.c ****     /* Configure the USART3 clock source */
 230:../../Drivers/STM32F3xx_HAL_Driver/Src/stm32f3xx_hal_rcc_ex.c ****     __HAL_RCC_USART3_CONFIG(PeriphClkInit->Usart3ClockSelection);
 231:../../Drivers/STM32F3xx_HAL_Driver/Src/stm32f3xx_hal_rcc_ex.c ****   }
 232:../../Drivers/STM32F3xx_HAL_Driver/Src/stm32f3xx_hal_rcc_ex.c **** #endif /* RCC_CFGR3_USART3SW */
 233:../../Drivers/STM32F3xx_HAL_Driver/Src/stm32f3xx_hal_rcc_ex.c **** 
 234:../../Drivers/STM32F3xx_HAL_Driver/Src/stm32f3xx_hal_rcc_ex.c ****   /*------------------------------ I2C1 Configuration ------------------------*/ 
 235:../../Drivers/STM32F3xx_HAL_Driver/Src/stm32f3xx_hal_rcc_ex.c ****   if(((PeriphClkInit->PeriphClockSelection) & RCC_PERIPHCLK_I2C1) == RCC_PERIPHCLK_I2C1)
 382              		.loc 1 235 0
 383 0228 7B68     		ldr	r3, [r7, #4]
 384 022a 1B68     		ldr	r3, [r3]
 385 022c 03F02003 		and	r3, r3, #32
 386 0230 002B     		cmp	r3, #0
 387 0232 08D0     		beq	.L24
 236:../../Drivers/STM32F3xx_HAL_Driver/Src/stm32f3xx_hal_rcc_ex.c ****   {
 237:../../Drivers/STM32F3xx_HAL_Driver/Src/stm32f3xx_hal_rcc_ex.c ****     /* Check the parameters */
 238:../../Drivers/STM32F3xx_HAL_Driver/Src/stm32f3xx_hal_rcc_ex.c ****     assert_param(IS_RCC_I2C1CLKSOURCE(PeriphClkInit->I2c1ClockSelection));
 239:../../Drivers/STM32F3xx_HAL_Driver/Src/stm32f3xx_hal_rcc_ex.c ****     
 240:../../Drivers/STM32F3xx_HAL_Driver/Src/stm32f3xx_hal_rcc_ex.c ****     /* Configure the I2C1 clock source */
 241:../../Drivers/STM32F3xx_HAL_Driver/Src/stm32f3xx_hal_rcc_ex.c ****     __HAL_RCC_I2C1_CONFIG(PeriphClkInit->I2c1ClockSelection);
 388              		.loc 1 241 0
 389 0234 4A49     		ldr	r1, .L36
 390 0236 4A4B     		ldr	r3, .L36
 391 0238 1B6B     		ldr	r3, [r3, #48]
 392 023a 23F01002 		bic	r2, r3, #16
 393 023e 7B68     		ldr	r3, [r7, #4]
 394 0240 DB68     		ldr	r3, [r3, #12]
 395 0242 1343     		orrs	r3, r3, r2
 396 0244 0B63     		str	r3, [r1, #48]
 397              	.L24:
 242:../../Drivers/STM32F3xx_HAL_Driver/Src/stm32f3xx_hal_rcc_ex.c ****   }
 243:../../Drivers/STM32F3xx_HAL_Driver/Src/stm32f3xx_hal_rcc_ex.c **** 
ARM GAS  /tmp/ccIre3F4.s 			page 22


 244:../../Drivers/STM32F3xx_HAL_Driver/Src/stm32f3xx_hal_rcc_ex.c **** #if defined(STM32F302xE) || defined(STM32F303xE)\
 245:../../Drivers/STM32F3xx_HAL_Driver/Src/stm32f3xx_hal_rcc_ex.c ****  || defined(STM32F302xC) || defined(STM32F303xC)\
 246:../../Drivers/STM32F3xx_HAL_Driver/Src/stm32f3xx_hal_rcc_ex.c ****  || defined(STM32F302x8)                        \
 247:../../Drivers/STM32F3xx_HAL_Driver/Src/stm32f3xx_hal_rcc_ex.c ****  || defined(STM32F373xC)
 248:../../Drivers/STM32F3xx_HAL_Driver/Src/stm32f3xx_hal_rcc_ex.c ****   /*------------------------------ USB Configuration ------------------------*/ 
 249:../../Drivers/STM32F3xx_HAL_Driver/Src/stm32f3xx_hal_rcc_ex.c ****   if(((PeriphClkInit->PeriphClockSelection) & RCC_PERIPHCLK_USB) == RCC_PERIPHCLK_USB)
 398              		.loc 1 249 0
 399 0246 7B68     		ldr	r3, [r7, #4]
 400 0248 1B68     		ldr	r3, [r3]
 401 024a 03F40033 		and	r3, r3, #131072
 402 024e 002B     		cmp	r3, #0
 403 0250 08D0     		beq	.L25
 250:../../Drivers/STM32F3xx_HAL_Driver/Src/stm32f3xx_hal_rcc_ex.c ****   {
 251:../../Drivers/STM32F3xx_HAL_Driver/Src/stm32f3xx_hal_rcc_ex.c ****     /* Check the parameters */
 252:../../Drivers/STM32F3xx_HAL_Driver/Src/stm32f3xx_hal_rcc_ex.c ****     assert_param(IS_RCC_USBCLKSOURCE(PeriphClkInit->USBClockSelection));
 253:../../Drivers/STM32F3xx_HAL_Driver/Src/stm32f3xx_hal_rcc_ex.c ****     
 254:../../Drivers/STM32F3xx_HAL_Driver/Src/stm32f3xx_hal_rcc_ex.c ****     /* Configure the USB clock source */
 255:../../Drivers/STM32F3xx_HAL_Driver/Src/stm32f3xx_hal_rcc_ex.c ****     __HAL_RCC_USB_CONFIG(PeriphClkInit->USBClockSelection);
 404              		.loc 1 255 0
 405 0252 4349     		ldr	r1, .L36
 406 0254 424B     		ldr	r3, .L36
 407 0256 5B68     		ldr	r3, [r3, #4]
 408 0258 23F48002 		bic	r2, r3, #4194304
 409 025c 7B68     		ldr	r3, [r7, #4]
 410 025e 1B6B     		ldr	r3, [r3, #48]
 411 0260 1343     		orrs	r3, r3, r2
 412 0262 4B60     		str	r3, [r1, #4]
 413              	.L25:
 256:../../Drivers/STM32F3xx_HAL_Driver/Src/stm32f3xx_hal_rcc_ex.c ****   }
 257:../../Drivers/STM32F3xx_HAL_Driver/Src/stm32f3xx_hal_rcc_ex.c **** 
 258:../../Drivers/STM32F3xx_HAL_Driver/Src/stm32f3xx_hal_rcc_ex.c **** #endif /* STM32F302xE || STM32F303xE || */
 259:../../Drivers/STM32F3xx_HAL_Driver/Src/stm32f3xx_hal_rcc_ex.c ****        /* STM32F302xC || STM32F303xC || */
 260:../../Drivers/STM32F3xx_HAL_Driver/Src/stm32f3xx_hal_rcc_ex.c ****        /* STM32F302x8                || */
 261:../../Drivers/STM32F3xx_HAL_Driver/Src/stm32f3xx_hal_rcc_ex.c ****        /* STM32F373xC                   */
 262:../../Drivers/STM32F3xx_HAL_Driver/Src/stm32f3xx_hal_rcc_ex.c **** 
 263:../../Drivers/STM32F3xx_HAL_Driver/Src/stm32f3xx_hal_rcc_ex.c **** #if defined(STM32F302xE) || defined(STM32F303xE) || defined(STM32F398xx)\
 264:../../Drivers/STM32F3xx_HAL_Driver/Src/stm32f3xx_hal_rcc_ex.c ****  || defined(STM32F302xC) || defined(STM32F303xC) || defined(STM32F358xx)\
 265:../../Drivers/STM32F3xx_HAL_Driver/Src/stm32f3xx_hal_rcc_ex.c ****  || defined(STM32F301x8) || defined(STM32F302x8) || defined(STM32F318xx)\
 266:../../Drivers/STM32F3xx_HAL_Driver/Src/stm32f3xx_hal_rcc_ex.c ****  || defined(STM32F373xC) || defined(STM32F378xx)
 267:../../Drivers/STM32F3xx_HAL_Driver/Src/stm32f3xx_hal_rcc_ex.c **** 
 268:../../Drivers/STM32F3xx_HAL_Driver/Src/stm32f3xx_hal_rcc_ex.c ****   /*------------------------------ I2C2 Configuration ------------------------*/ 
 269:../../Drivers/STM32F3xx_HAL_Driver/Src/stm32f3xx_hal_rcc_ex.c ****   if(((PeriphClkInit->PeriphClockSelection) & RCC_PERIPHCLK_I2C2) == RCC_PERIPHCLK_I2C2)
 414              		.loc 1 269 0
 415 0264 7B68     		ldr	r3, [r7, #4]
 416 0266 1B68     		ldr	r3, [r3]
 417 0268 03F04003 		and	r3, r3, #64
 418 026c 002B     		cmp	r3, #0
 419 026e 08D0     		beq	.L26
 270:../../Drivers/STM32F3xx_HAL_Driver/Src/stm32f3xx_hal_rcc_ex.c ****   {
 271:../../Drivers/STM32F3xx_HAL_Driver/Src/stm32f3xx_hal_rcc_ex.c ****     /* Check the parameters */
 272:../../Drivers/STM32F3xx_HAL_Driver/Src/stm32f3xx_hal_rcc_ex.c ****     assert_param(IS_RCC_I2C2CLKSOURCE(PeriphClkInit->I2c2ClockSelection));
 273:../../Drivers/STM32F3xx_HAL_Driver/Src/stm32f3xx_hal_rcc_ex.c ****     
 274:../../Drivers/STM32F3xx_HAL_Driver/Src/stm32f3xx_hal_rcc_ex.c ****     /* Configure the I2C2 clock source */
 275:../../Drivers/STM32F3xx_HAL_Driver/Src/stm32f3xx_hal_rcc_ex.c ****     __HAL_RCC_I2C2_CONFIG(PeriphClkInit->I2c2ClockSelection);
 420              		.loc 1 275 0
 421 0270 3B49     		ldr	r1, .L36
 422 0272 3B4B     		ldr	r3, .L36
ARM GAS  /tmp/ccIre3F4.s 			page 23


 423 0274 1B6B     		ldr	r3, [r3, #48]
 424 0276 23F02002 		bic	r2, r3, #32
 425 027a 7B68     		ldr	r3, [r7, #4]
 426 027c 1B69     		ldr	r3, [r3, #16]
 427 027e 1343     		orrs	r3, r3, r2
 428 0280 0B63     		str	r3, [r1, #48]
 429              	.L26:
 276:../../Drivers/STM32F3xx_HAL_Driver/Src/stm32f3xx_hal_rcc_ex.c ****   }
 277:../../Drivers/STM32F3xx_HAL_Driver/Src/stm32f3xx_hal_rcc_ex.c **** 
 278:../../Drivers/STM32F3xx_HAL_Driver/Src/stm32f3xx_hal_rcc_ex.c **** #endif /* STM32F302xE || STM32F303xE || STM32F398xx || */
 279:../../Drivers/STM32F3xx_HAL_Driver/Src/stm32f3xx_hal_rcc_ex.c ****        /* STM32F302xC || STM32F303xC || STM32F358xx || */
 280:../../Drivers/STM32F3xx_HAL_Driver/Src/stm32f3xx_hal_rcc_ex.c ****        /* STM32F301x8 || STM32F302x8 || STM32F318xx || */
 281:../../Drivers/STM32F3xx_HAL_Driver/Src/stm32f3xx_hal_rcc_ex.c ****        /* STM32F373xC || STM32F378xx                   */
 282:../../Drivers/STM32F3xx_HAL_Driver/Src/stm32f3xx_hal_rcc_ex.c ****   
 283:../../Drivers/STM32F3xx_HAL_Driver/Src/stm32f3xx_hal_rcc_ex.c **** #if defined(STM32F302xE) || defined(STM32F303xE) || defined(STM32F398xx)\
 284:../../Drivers/STM32F3xx_HAL_Driver/Src/stm32f3xx_hal_rcc_ex.c ****  || defined(STM32F301x8) || defined(STM32F302x8) || defined(STM32F318xx)
 285:../../Drivers/STM32F3xx_HAL_Driver/Src/stm32f3xx_hal_rcc_ex.c **** 
 286:../../Drivers/STM32F3xx_HAL_Driver/Src/stm32f3xx_hal_rcc_ex.c ****   /*------------------------------ I2C3 Configuration ------------------------*/ 
 287:../../Drivers/STM32F3xx_HAL_Driver/Src/stm32f3xx_hal_rcc_ex.c ****   if(((PeriphClkInit->PeriphClockSelection) & RCC_PERIPHCLK_I2C3) == RCC_PERIPHCLK_I2C3)
 430              		.loc 1 287 0
 431 0282 7B68     		ldr	r3, [r7, #4]
 432 0284 1B68     		ldr	r3, [r3]
 433 0286 03F40043 		and	r3, r3, #32768
 434 028a 002B     		cmp	r3, #0
 435 028c 08D0     		beq	.L27
 288:../../Drivers/STM32F3xx_HAL_Driver/Src/stm32f3xx_hal_rcc_ex.c ****   {
 289:../../Drivers/STM32F3xx_HAL_Driver/Src/stm32f3xx_hal_rcc_ex.c ****     /* Check the parameters */
 290:../../Drivers/STM32F3xx_HAL_Driver/Src/stm32f3xx_hal_rcc_ex.c ****     assert_param(IS_RCC_I2C3CLKSOURCE(PeriphClkInit->I2c3ClockSelection));
 291:../../Drivers/STM32F3xx_HAL_Driver/Src/stm32f3xx_hal_rcc_ex.c ****     
 292:../../Drivers/STM32F3xx_HAL_Driver/Src/stm32f3xx_hal_rcc_ex.c ****     /* Configure the I2C3 clock source */
 293:../../Drivers/STM32F3xx_HAL_Driver/Src/stm32f3xx_hal_rcc_ex.c ****     __HAL_RCC_I2C3_CONFIG(PeriphClkInit->I2c3ClockSelection);
 436              		.loc 1 293 0
 437 028e 3449     		ldr	r1, .L36
 438 0290 334B     		ldr	r3, .L36
 439 0292 1B6B     		ldr	r3, [r3, #48]
 440 0294 23F04002 		bic	r2, r3, #64
 441 0298 7B68     		ldr	r3, [r7, #4]
 442 029a 5B69     		ldr	r3, [r3, #20]
 443 029c 1343     		orrs	r3, r3, r2
 444 029e 0B63     		str	r3, [r1, #48]
 445              	.L27:
 294:../../Drivers/STM32F3xx_HAL_Driver/Src/stm32f3xx_hal_rcc_ex.c ****   }
 295:../../Drivers/STM32F3xx_HAL_Driver/Src/stm32f3xx_hal_rcc_ex.c **** #endif /* STM32F302xE || STM32F303xE || STM32F398xx || */
 296:../../Drivers/STM32F3xx_HAL_Driver/Src/stm32f3xx_hal_rcc_ex.c ****        /* STM32F301x8 || STM32F302x8 || STM32F318xx    */
 297:../../Drivers/STM32F3xx_HAL_Driver/Src/stm32f3xx_hal_rcc_ex.c ****   
 298:../../Drivers/STM32F3xx_HAL_Driver/Src/stm32f3xx_hal_rcc_ex.c **** #if defined(STM32F302xE) || defined(STM32F303xE) || defined(STM32F398xx)\
 299:../../Drivers/STM32F3xx_HAL_Driver/Src/stm32f3xx_hal_rcc_ex.c ****  || defined(STM32F302xC) || defined(STM32F303xC) || defined(STM32F358xx)
 300:../../Drivers/STM32F3xx_HAL_Driver/Src/stm32f3xx_hal_rcc_ex.c **** 
 301:../../Drivers/STM32F3xx_HAL_Driver/Src/stm32f3xx_hal_rcc_ex.c ****   /*------------------------------ UART4 Configuration ------------------------*/ 
 302:../../Drivers/STM32F3xx_HAL_Driver/Src/stm32f3xx_hal_rcc_ex.c ****   if(((PeriphClkInit->PeriphClockSelection) & RCC_PERIPHCLK_UART4) == RCC_PERIPHCLK_UART4)
 303:../../Drivers/STM32F3xx_HAL_Driver/Src/stm32f3xx_hal_rcc_ex.c ****   {
 304:../../Drivers/STM32F3xx_HAL_Driver/Src/stm32f3xx_hal_rcc_ex.c ****     /* Check the parameters */
 305:../../Drivers/STM32F3xx_HAL_Driver/Src/stm32f3xx_hal_rcc_ex.c ****     assert_param(IS_RCC_UART4CLKSOURCE(PeriphClkInit->Uart4ClockSelection));
 306:../../Drivers/STM32F3xx_HAL_Driver/Src/stm32f3xx_hal_rcc_ex.c ****     
 307:../../Drivers/STM32F3xx_HAL_Driver/Src/stm32f3xx_hal_rcc_ex.c ****     /* Configure the UART4 clock source */
 308:../../Drivers/STM32F3xx_HAL_Driver/Src/stm32f3xx_hal_rcc_ex.c ****     __HAL_RCC_UART4_CONFIG(PeriphClkInit->Uart4ClockSelection);
 309:../../Drivers/STM32F3xx_HAL_Driver/Src/stm32f3xx_hal_rcc_ex.c ****   }
ARM GAS  /tmp/ccIre3F4.s 			page 24


 310:../../Drivers/STM32F3xx_HAL_Driver/Src/stm32f3xx_hal_rcc_ex.c **** 
 311:../../Drivers/STM32F3xx_HAL_Driver/Src/stm32f3xx_hal_rcc_ex.c ****   /*------------------------------ UART5 Configuration ------------------------*/ 
 312:../../Drivers/STM32F3xx_HAL_Driver/Src/stm32f3xx_hal_rcc_ex.c ****   if(((PeriphClkInit->PeriphClockSelection) & RCC_PERIPHCLK_UART5) == RCC_PERIPHCLK_UART5)
 313:../../Drivers/STM32F3xx_HAL_Driver/Src/stm32f3xx_hal_rcc_ex.c ****   {
 314:../../Drivers/STM32F3xx_HAL_Driver/Src/stm32f3xx_hal_rcc_ex.c ****     /* Check the parameters */
 315:../../Drivers/STM32F3xx_HAL_Driver/Src/stm32f3xx_hal_rcc_ex.c ****     assert_param(IS_RCC_UART5CLKSOURCE(PeriphClkInit->Uart5ClockSelection));
 316:../../Drivers/STM32F3xx_HAL_Driver/Src/stm32f3xx_hal_rcc_ex.c ****     
 317:../../Drivers/STM32F3xx_HAL_Driver/Src/stm32f3xx_hal_rcc_ex.c ****     /* Configure the UART5 clock source */
 318:../../Drivers/STM32F3xx_HAL_Driver/Src/stm32f3xx_hal_rcc_ex.c ****     __HAL_RCC_UART5_CONFIG(PeriphClkInit->Uart5ClockSelection);
 319:../../Drivers/STM32F3xx_HAL_Driver/Src/stm32f3xx_hal_rcc_ex.c ****   }
 320:../../Drivers/STM32F3xx_HAL_Driver/Src/stm32f3xx_hal_rcc_ex.c **** 
 321:../../Drivers/STM32F3xx_HAL_Driver/Src/stm32f3xx_hal_rcc_ex.c **** #endif /* STM32F302xE || STM32F303xE || STM32F398xx || */
 322:../../Drivers/STM32F3xx_HAL_Driver/Src/stm32f3xx_hal_rcc_ex.c ****        /* STM32F302xC || STM32F303xC || STM32F358xx    */
 323:../../Drivers/STM32F3xx_HAL_Driver/Src/stm32f3xx_hal_rcc_ex.c **** 
 324:../../Drivers/STM32F3xx_HAL_Driver/Src/stm32f3xx_hal_rcc_ex.c **** #if defined(STM32F302xE) || defined(STM32F303xE) || defined(STM32F398xx)\
 325:../../Drivers/STM32F3xx_HAL_Driver/Src/stm32f3xx_hal_rcc_ex.c ****  || defined(STM32F302xC) || defined(STM32F303xC) || defined(STM32F358xx)\
 326:../../Drivers/STM32F3xx_HAL_Driver/Src/stm32f3xx_hal_rcc_ex.c ****  || defined(STM32F301x8) || defined(STM32F302x8) || defined(STM32F318xx)
 327:../../Drivers/STM32F3xx_HAL_Driver/Src/stm32f3xx_hal_rcc_ex.c ****   /*------------------------------ I2S Configuration ------------------------*/ 
 328:../../Drivers/STM32F3xx_HAL_Driver/Src/stm32f3xx_hal_rcc_ex.c ****   if(((PeriphClkInit->PeriphClockSelection) & RCC_PERIPHCLK_I2S) == RCC_PERIPHCLK_I2S)
 446              		.loc 1 328 0
 447 02a0 7B68     		ldr	r3, [r7, #4]
 448 02a2 1B68     		ldr	r3, [r3]
 449 02a4 03F40073 		and	r3, r3, #512
 450 02a8 002B     		cmp	r3, #0
 451 02aa 08D0     		beq	.L28
 329:../../Drivers/STM32F3xx_HAL_Driver/Src/stm32f3xx_hal_rcc_ex.c ****   {
 330:../../Drivers/STM32F3xx_HAL_Driver/Src/stm32f3xx_hal_rcc_ex.c ****     /* Check the parameters */
 331:../../Drivers/STM32F3xx_HAL_Driver/Src/stm32f3xx_hal_rcc_ex.c ****     assert_param(IS_RCC_I2SCLKSOURCE(PeriphClkInit->I2sClockSelection));
 332:../../Drivers/STM32F3xx_HAL_Driver/Src/stm32f3xx_hal_rcc_ex.c ****     
 333:../../Drivers/STM32F3xx_HAL_Driver/Src/stm32f3xx_hal_rcc_ex.c ****     /* Configure the I2S clock source */
 334:../../Drivers/STM32F3xx_HAL_Driver/Src/stm32f3xx_hal_rcc_ex.c ****     __HAL_RCC_I2S_CONFIG(PeriphClkInit->I2sClockSelection);
 452              		.loc 1 334 0
 453 02ac 2C49     		ldr	r1, .L36
 454 02ae 2C4B     		ldr	r3, .L36
 455 02b0 5B68     		ldr	r3, [r3, #4]
 456 02b2 23F40002 		bic	r2, r3, #8388608
 457 02b6 7B68     		ldr	r3, [r7, #4]
 458 02b8 DB69     		ldr	r3, [r3, #28]
 459 02ba 1343     		orrs	r3, r3, r2
 460 02bc 4B60     		str	r3, [r1, #4]
 461              	.L28:
 335:../../Drivers/STM32F3xx_HAL_Driver/Src/stm32f3xx_hal_rcc_ex.c ****   }
 336:../../Drivers/STM32F3xx_HAL_Driver/Src/stm32f3xx_hal_rcc_ex.c **** 
 337:../../Drivers/STM32F3xx_HAL_Driver/Src/stm32f3xx_hal_rcc_ex.c **** #endif /* STM32F302xE || STM32F303xE || STM32F398xx || */
 338:../../Drivers/STM32F3xx_HAL_Driver/Src/stm32f3xx_hal_rcc_ex.c ****        /* STM32F302xC || STM32F303xC || STM32F358xx || */
 339:../../Drivers/STM32F3xx_HAL_Driver/Src/stm32f3xx_hal_rcc_ex.c ****        /* STM32F301x8 || STM32F302x8 || STM32F318xx    */
 340:../../Drivers/STM32F3xx_HAL_Driver/Src/stm32f3xx_hal_rcc_ex.c ****   
 341:../../Drivers/STM32F3xx_HAL_Driver/Src/stm32f3xx_hal_rcc_ex.c **** #if defined(STM32F301x8) || defined(STM32F302x8) || defined(STM32F318xx)
 342:../../Drivers/STM32F3xx_HAL_Driver/Src/stm32f3xx_hal_rcc_ex.c ****       
 343:../../Drivers/STM32F3xx_HAL_Driver/Src/stm32f3xx_hal_rcc_ex.c ****   /*------------------------------ ADC1 clock Configuration ------------------*/ 
 344:../../Drivers/STM32F3xx_HAL_Driver/Src/stm32f3xx_hal_rcc_ex.c ****   if(((PeriphClkInit->PeriphClockSelection) & RCC_PERIPHCLK_ADC1) == RCC_PERIPHCLK_ADC1)
 462              		.loc 1 344 0
 463 02be 7B68     		ldr	r3, [r7, #4]
 464 02c0 1B68     		ldr	r3, [r3]
 465 02c2 03F08003 		and	r3, r3, #128
 466 02c6 002B     		cmp	r3, #0
 467 02c8 08D0     		beq	.L29
ARM GAS  /tmp/ccIre3F4.s 			page 25


 345:../../Drivers/STM32F3xx_HAL_Driver/Src/stm32f3xx_hal_rcc_ex.c ****   {
 346:../../Drivers/STM32F3xx_HAL_Driver/Src/stm32f3xx_hal_rcc_ex.c ****     /* Check the parameters */
 347:../../Drivers/STM32F3xx_HAL_Driver/Src/stm32f3xx_hal_rcc_ex.c ****     assert_param(IS_RCC_ADC1PLLCLK_DIV(PeriphClkInit->Adc1ClockSelection));
 348:../../Drivers/STM32F3xx_HAL_Driver/Src/stm32f3xx_hal_rcc_ex.c ****     
 349:../../Drivers/STM32F3xx_HAL_Driver/Src/stm32f3xx_hal_rcc_ex.c ****     /* Configure the ADC1 clock source */
 350:../../Drivers/STM32F3xx_HAL_Driver/Src/stm32f3xx_hal_rcc_ex.c ****     __HAL_RCC_ADC1_CONFIG(PeriphClkInit->Adc1ClockSelection);
 468              		.loc 1 350 0
 469 02ca 2549     		ldr	r1, .L36
 470 02cc 244B     		ldr	r3, .L36
 471 02ce DB6A     		ldr	r3, [r3, #44]
 472 02d0 23F4F872 		bic	r2, r3, #496
 473 02d4 7B68     		ldr	r3, [r7, #4]
 474 02d6 9B69     		ldr	r3, [r3, #24]
 475 02d8 1343     		orrs	r3, r3, r2
 476 02da CB62     		str	r3, [r1, #44]
 477              	.L29:
 351:../../Drivers/STM32F3xx_HAL_Driver/Src/stm32f3xx_hal_rcc_ex.c ****   }
 352:../../Drivers/STM32F3xx_HAL_Driver/Src/stm32f3xx_hal_rcc_ex.c **** 
 353:../../Drivers/STM32F3xx_HAL_Driver/Src/stm32f3xx_hal_rcc_ex.c **** #endif /* STM32F301x8 || STM32F302x8 || STM32F318xx */
 354:../../Drivers/STM32F3xx_HAL_Driver/Src/stm32f3xx_hal_rcc_ex.c ****   
 355:../../Drivers/STM32F3xx_HAL_Driver/Src/stm32f3xx_hal_rcc_ex.c **** #if defined(STM32F302xE) || defined(STM32F303xE) || defined(STM32F398xx)\
 356:../../Drivers/STM32F3xx_HAL_Driver/Src/stm32f3xx_hal_rcc_ex.c ****  || defined(STM32F302xC) || defined(STM32F303xC) || defined(STM32F358xx)\
 357:../../Drivers/STM32F3xx_HAL_Driver/Src/stm32f3xx_hal_rcc_ex.c ****  || defined(STM32F303x8) || defined(STM32F334x8) || defined(STM32F328xx)
 358:../../Drivers/STM32F3xx_HAL_Driver/Src/stm32f3xx_hal_rcc_ex.c ****       
 359:../../Drivers/STM32F3xx_HAL_Driver/Src/stm32f3xx_hal_rcc_ex.c ****   /*------------------------------ ADC1 & ADC2 clock Configuration -------------*/ 
 360:../../Drivers/STM32F3xx_HAL_Driver/Src/stm32f3xx_hal_rcc_ex.c ****   if(((PeriphClkInit->PeriphClockSelection) & RCC_PERIPHCLK_ADC12) == RCC_PERIPHCLK_ADC12)
 361:../../Drivers/STM32F3xx_HAL_Driver/Src/stm32f3xx_hal_rcc_ex.c ****   {
 362:../../Drivers/STM32F3xx_HAL_Driver/Src/stm32f3xx_hal_rcc_ex.c ****     /* Check the parameters */
 363:../../Drivers/STM32F3xx_HAL_Driver/Src/stm32f3xx_hal_rcc_ex.c ****     assert_param(IS_RCC_ADC12PLLCLK_DIV(PeriphClkInit->Adc12ClockSelection));
 364:../../Drivers/STM32F3xx_HAL_Driver/Src/stm32f3xx_hal_rcc_ex.c ****     
 365:../../Drivers/STM32F3xx_HAL_Driver/Src/stm32f3xx_hal_rcc_ex.c ****     /* Configure the ADC12 clock source */
 366:../../Drivers/STM32F3xx_HAL_Driver/Src/stm32f3xx_hal_rcc_ex.c ****     __HAL_RCC_ADC12_CONFIG(PeriphClkInit->Adc12ClockSelection);
 367:../../Drivers/STM32F3xx_HAL_Driver/Src/stm32f3xx_hal_rcc_ex.c ****   }
 368:../../Drivers/STM32F3xx_HAL_Driver/Src/stm32f3xx_hal_rcc_ex.c **** 
 369:../../Drivers/STM32F3xx_HAL_Driver/Src/stm32f3xx_hal_rcc_ex.c **** #endif /* STM32F302xE || STM32F303xE || STM32F398xx || */
 370:../../Drivers/STM32F3xx_HAL_Driver/Src/stm32f3xx_hal_rcc_ex.c ****        /* STM32F302xC || STM32F303xC || STM32F358xx || */
 371:../../Drivers/STM32F3xx_HAL_Driver/Src/stm32f3xx_hal_rcc_ex.c ****        /* STM32F303x8 || STM32F334x8 || STM32F328xx    */    
 372:../../Drivers/STM32F3xx_HAL_Driver/Src/stm32f3xx_hal_rcc_ex.c ****   
 373:../../Drivers/STM32F3xx_HAL_Driver/Src/stm32f3xx_hal_rcc_ex.c **** #if defined(STM32F303xE) || defined(STM32F398xx)\
 374:../../Drivers/STM32F3xx_HAL_Driver/Src/stm32f3xx_hal_rcc_ex.c ****  || defined(STM32F303xC) || defined(STM32F358xx)
 375:../../Drivers/STM32F3xx_HAL_Driver/Src/stm32f3xx_hal_rcc_ex.c **** 
 376:../../Drivers/STM32F3xx_HAL_Driver/Src/stm32f3xx_hal_rcc_ex.c ****   /*------------------------------ ADC3 & ADC4 clock Configuration -------------*/ 
 377:../../Drivers/STM32F3xx_HAL_Driver/Src/stm32f3xx_hal_rcc_ex.c ****   if(((PeriphClkInit->PeriphClockSelection) & RCC_PERIPHCLK_ADC34) == RCC_PERIPHCLK_ADC34)
 378:../../Drivers/STM32F3xx_HAL_Driver/Src/stm32f3xx_hal_rcc_ex.c ****   {
 379:../../Drivers/STM32F3xx_HAL_Driver/Src/stm32f3xx_hal_rcc_ex.c ****     /* Check the parameters */
 380:../../Drivers/STM32F3xx_HAL_Driver/Src/stm32f3xx_hal_rcc_ex.c ****     assert_param(IS_RCC_ADC34PLLCLK_DIV(PeriphClkInit->Adc34ClockSelection));
 381:../../Drivers/STM32F3xx_HAL_Driver/Src/stm32f3xx_hal_rcc_ex.c ****     
 382:../../Drivers/STM32F3xx_HAL_Driver/Src/stm32f3xx_hal_rcc_ex.c ****     /* Configure the ADC34 clock source */
 383:../../Drivers/STM32F3xx_HAL_Driver/Src/stm32f3xx_hal_rcc_ex.c ****     __HAL_RCC_ADC34_CONFIG(PeriphClkInit->Adc34ClockSelection);
 384:../../Drivers/STM32F3xx_HAL_Driver/Src/stm32f3xx_hal_rcc_ex.c ****   }
 385:../../Drivers/STM32F3xx_HAL_Driver/Src/stm32f3xx_hal_rcc_ex.c **** 
 386:../../Drivers/STM32F3xx_HAL_Driver/Src/stm32f3xx_hal_rcc_ex.c **** #endif /* STM32F303xE || STM32F398xx || */
 387:../../Drivers/STM32F3xx_HAL_Driver/Src/stm32f3xx_hal_rcc_ex.c ****        /* STM32F303xC || STM32F358xx    */
 388:../../Drivers/STM32F3xx_HAL_Driver/Src/stm32f3xx_hal_rcc_ex.c **** 
 389:../../Drivers/STM32F3xx_HAL_Driver/Src/stm32f3xx_hal_rcc_ex.c **** #if defined(STM32F373xC) || defined(STM32F378xx)
 390:../../Drivers/STM32F3xx_HAL_Driver/Src/stm32f3xx_hal_rcc_ex.c ****       
 391:../../Drivers/STM32F3xx_HAL_Driver/Src/stm32f3xx_hal_rcc_ex.c ****   /*------------------------------ ADC1 clock Configuration ------------------*/ 
ARM GAS  /tmp/ccIre3F4.s 			page 26


 392:../../Drivers/STM32F3xx_HAL_Driver/Src/stm32f3xx_hal_rcc_ex.c ****   if(((PeriphClkInit->PeriphClockSelection) & RCC_PERIPHCLK_ADC1) == RCC_PERIPHCLK_ADC1)
 393:../../Drivers/STM32F3xx_HAL_Driver/Src/stm32f3xx_hal_rcc_ex.c ****   {
 394:../../Drivers/STM32F3xx_HAL_Driver/Src/stm32f3xx_hal_rcc_ex.c ****     /* Check the parameters */
 395:../../Drivers/STM32F3xx_HAL_Driver/Src/stm32f3xx_hal_rcc_ex.c ****     assert_param(IS_RCC_ADC1PCLK2_DIV(PeriphClkInit->Adc1ClockSelection));
 396:../../Drivers/STM32F3xx_HAL_Driver/Src/stm32f3xx_hal_rcc_ex.c ****     
 397:../../Drivers/STM32F3xx_HAL_Driver/Src/stm32f3xx_hal_rcc_ex.c ****     /* Configure the ADC1 clock source */
 398:../../Drivers/STM32F3xx_HAL_Driver/Src/stm32f3xx_hal_rcc_ex.c ****     __HAL_RCC_ADC1_CONFIG(PeriphClkInit->Adc1ClockSelection);
 399:../../Drivers/STM32F3xx_HAL_Driver/Src/stm32f3xx_hal_rcc_ex.c ****   }
 400:../../Drivers/STM32F3xx_HAL_Driver/Src/stm32f3xx_hal_rcc_ex.c **** 
 401:../../Drivers/STM32F3xx_HAL_Driver/Src/stm32f3xx_hal_rcc_ex.c **** #endif /* STM32F373xC || STM32F378xx */
 402:../../Drivers/STM32F3xx_HAL_Driver/Src/stm32f3xx_hal_rcc_ex.c **** 
 403:../../Drivers/STM32F3xx_HAL_Driver/Src/stm32f3xx_hal_rcc_ex.c **** #if defined(STM32F302xE) || defined(STM32F303xE) || defined(STM32F398xx)\
 404:../../Drivers/STM32F3xx_HAL_Driver/Src/stm32f3xx_hal_rcc_ex.c ****  || defined(STM32F302xC) || defined(STM32F303xC) || defined(STM32F358xx)\
 405:../../Drivers/STM32F3xx_HAL_Driver/Src/stm32f3xx_hal_rcc_ex.c ****  || defined(STM32F303x8) || defined(STM32F334x8) || defined(STM32F328xx)\
 406:../../Drivers/STM32F3xx_HAL_Driver/Src/stm32f3xx_hal_rcc_ex.c ****  || defined(STM32F301x8) || defined(STM32F302x8) || defined(STM32F318xx)
 407:../../Drivers/STM32F3xx_HAL_Driver/Src/stm32f3xx_hal_rcc_ex.c **** 
 408:../../Drivers/STM32F3xx_HAL_Driver/Src/stm32f3xx_hal_rcc_ex.c ****   /*------------------------------ TIM1 clock Configuration ----------------*/ 
 409:../../Drivers/STM32F3xx_HAL_Driver/Src/stm32f3xx_hal_rcc_ex.c ****   if(((PeriphClkInit->PeriphClockSelection) & RCC_PERIPHCLK_TIM1) == RCC_PERIPHCLK_TIM1)
 478              		.loc 1 409 0
 479 02dc 7B68     		ldr	r3, [r7, #4]
 480 02de 1B68     		ldr	r3, [r3]
 481 02e0 03F48053 		and	r3, r3, #4096
 482 02e4 002B     		cmp	r3, #0
 483 02e6 08D0     		beq	.L30
 410:../../Drivers/STM32F3xx_HAL_Driver/Src/stm32f3xx_hal_rcc_ex.c ****   {
 411:../../Drivers/STM32F3xx_HAL_Driver/Src/stm32f3xx_hal_rcc_ex.c ****     /* Check the parameters */
 412:../../Drivers/STM32F3xx_HAL_Driver/Src/stm32f3xx_hal_rcc_ex.c ****     assert_param(IS_RCC_TIM1CLKSOURCE(PeriphClkInit->Tim1ClockSelection));
 413:../../Drivers/STM32F3xx_HAL_Driver/Src/stm32f3xx_hal_rcc_ex.c ****     
 414:../../Drivers/STM32F3xx_HAL_Driver/Src/stm32f3xx_hal_rcc_ex.c ****     /* Configure the TIM1 clock source */
 415:../../Drivers/STM32F3xx_HAL_Driver/Src/stm32f3xx_hal_rcc_ex.c ****     __HAL_RCC_TIM1_CONFIG(PeriphClkInit->Tim1ClockSelection);
 484              		.loc 1 415 0
 485 02e8 1D49     		ldr	r1, .L36
 486 02ea 1D4B     		ldr	r3, .L36
 487 02ec 1B6B     		ldr	r3, [r3, #48]
 488 02ee 23F48072 		bic	r2, r3, #256
 489 02f2 7B68     		ldr	r3, [r7, #4]
 490 02f4 1B6A     		ldr	r3, [r3, #32]
 491 02f6 1343     		orrs	r3, r3, r2
 492 02f8 0B63     		str	r3, [r1, #48]
 493              	.L30:
 416:../../Drivers/STM32F3xx_HAL_Driver/Src/stm32f3xx_hal_rcc_ex.c ****   }
 417:../../Drivers/STM32F3xx_HAL_Driver/Src/stm32f3xx_hal_rcc_ex.c **** 
 418:../../Drivers/STM32F3xx_HAL_Driver/Src/stm32f3xx_hal_rcc_ex.c **** #endif /* STM32F302xE || STM32F303xE || STM32F398xx || */
 419:../../Drivers/STM32F3xx_HAL_Driver/Src/stm32f3xx_hal_rcc_ex.c ****        /* STM32F302xC || STM32F303xC || STM32F358xx || */
 420:../../Drivers/STM32F3xx_HAL_Driver/Src/stm32f3xx_hal_rcc_ex.c ****        /* STM32F303x8 || STM32F334x8 || STM32F328xx || */
 421:../../Drivers/STM32F3xx_HAL_Driver/Src/stm32f3xx_hal_rcc_ex.c ****        /* STM32F301x8 || STM32F302x8 || STM32F318xx    */
 422:../../Drivers/STM32F3xx_HAL_Driver/Src/stm32f3xx_hal_rcc_ex.c ****   
 423:../../Drivers/STM32F3xx_HAL_Driver/Src/stm32f3xx_hal_rcc_ex.c **** #if defined(STM32F303xE) || defined(STM32F398xx)\
 424:../../Drivers/STM32F3xx_HAL_Driver/Src/stm32f3xx_hal_rcc_ex.c ****  || defined(STM32F303xC) || defined(STM32F358xx)
 425:../../Drivers/STM32F3xx_HAL_Driver/Src/stm32f3xx_hal_rcc_ex.c **** 
 426:../../Drivers/STM32F3xx_HAL_Driver/Src/stm32f3xx_hal_rcc_ex.c ****   /*------------------------------ TIM8 clock Configuration ----------------*/ 
 427:../../Drivers/STM32F3xx_HAL_Driver/Src/stm32f3xx_hal_rcc_ex.c ****   if(((PeriphClkInit->PeriphClockSelection) & RCC_PERIPHCLK_TIM8) == RCC_PERIPHCLK_TIM8)
 428:../../Drivers/STM32F3xx_HAL_Driver/Src/stm32f3xx_hal_rcc_ex.c ****   {
 429:../../Drivers/STM32F3xx_HAL_Driver/Src/stm32f3xx_hal_rcc_ex.c ****     /* Check the parameters */
 430:../../Drivers/STM32F3xx_HAL_Driver/Src/stm32f3xx_hal_rcc_ex.c ****     assert_param(IS_RCC_TIM8CLKSOURCE(PeriphClkInit->Tim8ClockSelection));
 431:../../Drivers/STM32F3xx_HAL_Driver/Src/stm32f3xx_hal_rcc_ex.c ****     
 432:../../Drivers/STM32F3xx_HAL_Driver/Src/stm32f3xx_hal_rcc_ex.c ****     /* Configure the TIM8 clock source */
ARM GAS  /tmp/ccIre3F4.s 			page 27


 433:../../Drivers/STM32F3xx_HAL_Driver/Src/stm32f3xx_hal_rcc_ex.c ****     __HAL_RCC_TIM8_CONFIG(PeriphClkInit->Tim8ClockSelection);
 434:../../Drivers/STM32F3xx_HAL_Driver/Src/stm32f3xx_hal_rcc_ex.c ****   }
 435:../../Drivers/STM32F3xx_HAL_Driver/Src/stm32f3xx_hal_rcc_ex.c **** 
 436:../../Drivers/STM32F3xx_HAL_Driver/Src/stm32f3xx_hal_rcc_ex.c **** #endif /* STM32F303xE || STM32F398xx || */
 437:../../Drivers/STM32F3xx_HAL_Driver/Src/stm32f3xx_hal_rcc_ex.c ****        /* STM32F303xC || STM32F358xx    */
 438:../../Drivers/STM32F3xx_HAL_Driver/Src/stm32f3xx_hal_rcc_ex.c **** 
 439:../../Drivers/STM32F3xx_HAL_Driver/Src/stm32f3xx_hal_rcc_ex.c **** #if defined(STM32F301x8) || defined(STM32F302x8) || defined(STM32F318xx)
 440:../../Drivers/STM32F3xx_HAL_Driver/Src/stm32f3xx_hal_rcc_ex.c **** 
 441:../../Drivers/STM32F3xx_HAL_Driver/Src/stm32f3xx_hal_rcc_ex.c ****   /*------------------------------ TIM15 clock Configuration ----------------*/ 
 442:../../Drivers/STM32F3xx_HAL_Driver/Src/stm32f3xx_hal_rcc_ex.c ****   if(((PeriphClkInit->PeriphClockSelection) & RCC_PERIPHCLK_TIM15) == RCC_PERIPHCLK_TIM15)
 494              		.loc 1 442 0
 495 02fa 7B68     		ldr	r3, [r7, #4]
 496 02fc 1B68     		ldr	r3, [r3]
 497 02fe 03F48023 		and	r3, r3, #262144
 498 0302 002B     		cmp	r3, #0
 499 0304 08D0     		beq	.L31
 443:../../Drivers/STM32F3xx_HAL_Driver/Src/stm32f3xx_hal_rcc_ex.c ****   {
 444:../../Drivers/STM32F3xx_HAL_Driver/Src/stm32f3xx_hal_rcc_ex.c ****     /* Check the parameters */
 445:../../Drivers/STM32F3xx_HAL_Driver/Src/stm32f3xx_hal_rcc_ex.c ****     assert_param(IS_RCC_TIM15CLKSOURCE(PeriphClkInit->Tim15ClockSelection));
 446:../../Drivers/STM32F3xx_HAL_Driver/Src/stm32f3xx_hal_rcc_ex.c ****     
 447:../../Drivers/STM32F3xx_HAL_Driver/Src/stm32f3xx_hal_rcc_ex.c ****     /* Configure the TIM15 clock source */
 448:../../Drivers/STM32F3xx_HAL_Driver/Src/stm32f3xx_hal_rcc_ex.c ****     __HAL_RCC_TIM15_CONFIG(PeriphClkInit->Tim15ClockSelection);
 500              		.loc 1 448 0
 501 0306 1649     		ldr	r1, .L36
 502 0308 154B     		ldr	r3, .L36
 503 030a 1B6B     		ldr	r3, [r3, #48]
 504 030c 23F48062 		bic	r2, r3, #1024
 505 0310 7B68     		ldr	r3, [r7, #4]
 506 0312 5B6A     		ldr	r3, [r3, #36]
 507 0314 1343     		orrs	r3, r3, r2
 508 0316 0B63     		str	r3, [r1, #48]
 509              	.L31:
 449:../../Drivers/STM32F3xx_HAL_Driver/Src/stm32f3xx_hal_rcc_ex.c ****   }
 450:../../Drivers/STM32F3xx_HAL_Driver/Src/stm32f3xx_hal_rcc_ex.c **** 
 451:../../Drivers/STM32F3xx_HAL_Driver/Src/stm32f3xx_hal_rcc_ex.c ****   /*------------------------------ TIM16 clock Configuration ----------------*/ 
 452:../../Drivers/STM32F3xx_HAL_Driver/Src/stm32f3xx_hal_rcc_ex.c ****   if(((PeriphClkInit->PeriphClockSelection) & RCC_PERIPHCLK_TIM16) == RCC_PERIPHCLK_TIM16)
 510              		.loc 1 452 0
 511 0318 7B68     		ldr	r3, [r7, #4]
 512 031a 1B68     		ldr	r3, [r3]
 513 031c 03F40023 		and	r3, r3, #524288
 514 0320 002B     		cmp	r3, #0
 515 0322 08D0     		beq	.L32
 453:../../Drivers/STM32F3xx_HAL_Driver/Src/stm32f3xx_hal_rcc_ex.c ****   {
 454:../../Drivers/STM32F3xx_HAL_Driver/Src/stm32f3xx_hal_rcc_ex.c ****     /* Check the parameters */
 455:../../Drivers/STM32F3xx_HAL_Driver/Src/stm32f3xx_hal_rcc_ex.c ****     assert_param(IS_RCC_TIM16CLKSOURCE(PeriphClkInit->Tim16ClockSelection));
 456:../../Drivers/STM32F3xx_HAL_Driver/Src/stm32f3xx_hal_rcc_ex.c ****     
 457:../../Drivers/STM32F3xx_HAL_Driver/Src/stm32f3xx_hal_rcc_ex.c ****     /* Configure the TIM16 clock source */
 458:../../Drivers/STM32F3xx_HAL_Driver/Src/stm32f3xx_hal_rcc_ex.c ****     __HAL_RCC_TIM16_CONFIG(PeriphClkInit->Tim16ClockSelection);
 516              		.loc 1 458 0
 517 0324 0E49     		ldr	r1, .L36
 518 0326 0E4B     		ldr	r3, .L36
 519 0328 1B6B     		ldr	r3, [r3, #48]
 520 032a 23F40062 		bic	r2, r3, #2048
 521 032e 7B68     		ldr	r3, [r7, #4]
 522 0330 9B6A     		ldr	r3, [r3, #40]
 523 0332 1343     		orrs	r3, r3, r2
 524 0334 0B63     		str	r3, [r1, #48]
ARM GAS  /tmp/ccIre3F4.s 			page 28


 525              	.L32:
 459:../../Drivers/STM32F3xx_HAL_Driver/Src/stm32f3xx_hal_rcc_ex.c ****   }
 460:../../Drivers/STM32F3xx_HAL_Driver/Src/stm32f3xx_hal_rcc_ex.c **** 
 461:../../Drivers/STM32F3xx_HAL_Driver/Src/stm32f3xx_hal_rcc_ex.c ****   /*------------------------------ TIM17 clock Configuration ----------------*/ 
 462:../../Drivers/STM32F3xx_HAL_Driver/Src/stm32f3xx_hal_rcc_ex.c ****   if(((PeriphClkInit->PeriphClockSelection) & RCC_PERIPHCLK_TIM17) == RCC_PERIPHCLK_TIM17)
 526              		.loc 1 462 0
 527 0336 7B68     		ldr	r3, [r7, #4]
 528 0338 1B68     		ldr	r3, [r3]
 529 033a 03F48013 		and	r3, r3, #1048576
 530 033e 002B     		cmp	r3, #0
 531 0340 08D0     		beq	.L33
 463:../../Drivers/STM32F3xx_HAL_Driver/Src/stm32f3xx_hal_rcc_ex.c ****   {
 464:../../Drivers/STM32F3xx_HAL_Driver/Src/stm32f3xx_hal_rcc_ex.c ****     /* Check the parameters */
 465:../../Drivers/STM32F3xx_HAL_Driver/Src/stm32f3xx_hal_rcc_ex.c ****     assert_param(IS_RCC_TIM17CLKSOURCE(PeriphClkInit->Tim17ClockSelection));
 466:../../Drivers/STM32F3xx_HAL_Driver/Src/stm32f3xx_hal_rcc_ex.c ****     
 467:../../Drivers/STM32F3xx_HAL_Driver/Src/stm32f3xx_hal_rcc_ex.c ****     /* Configure the TIM17 clock source */
 468:../../Drivers/STM32F3xx_HAL_Driver/Src/stm32f3xx_hal_rcc_ex.c ****     __HAL_RCC_TIM17_CONFIG(PeriphClkInit->Tim17ClockSelection);
 532              		.loc 1 468 0
 533 0342 0749     		ldr	r1, .L36
 534 0344 064B     		ldr	r3, .L36
 535 0346 1B6B     		ldr	r3, [r3, #48]
 536 0348 23F40052 		bic	r2, r3, #8192
 537 034c 7B68     		ldr	r3, [r7, #4]
 538 034e DB6A     		ldr	r3, [r3, #44]
 539 0350 1343     		orrs	r3, r3, r2
 540 0352 0B63     		str	r3, [r1, #48]
 541              	.L33:
 469:../../Drivers/STM32F3xx_HAL_Driver/Src/stm32f3xx_hal_rcc_ex.c ****   }
 470:../../Drivers/STM32F3xx_HAL_Driver/Src/stm32f3xx_hal_rcc_ex.c **** 
 471:../../Drivers/STM32F3xx_HAL_Driver/Src/stm32f3xx_hal_rcc_ex.c **** #endif /* STM32F301x8 || STM32F302x8 || STM32F318xx */
 472:../../Drivers/STM32F3xx_HAL_Driver/Src/stm32f3xx_hal_rcc_ex.c **** 
 473:../../Drivers/STM32F3xx_HAL_Driver/Src/stm32f3xx_hal_rcc_ex.c **** #if defined(STM32F334x8)
 474:../../Drivers/STM32F3xx_HAL_Driver/Src/stm32f3xx_hal_rcc_ex.c **** 
 475:../../Drivers/STM32F3xx_HAL_Driver/Src/stm32f3xx_hal_rcc_ex.c ****   /*------------------------------ HRTIM1 clock Configuration ----------------*/ 
 476:../../Drivers/STM32F3xx_HAL_Driver/Src/stm32f3xx_hal_rcc_ex.c ****   if(((PeriphClkInit->PeriphClockSelection) & RCC_PERIPHCLK_HRTIM1) == RCC_PERIPHCLK_HRTIM1)
 477:../../Drivers/STM32F3xx_HAL_Driver/Src/stm32f3xx_hal_rcc_ex.c ****   {
 478:../../Drivers/STM32F3xx_HAL_Driver/Src/stm32f3xx_hal_rcc_ex.c ****     /* Check the parameters */
 479:../../Drivers/STM32F3xx_HAL_Driver/Src/stm32f3xx_hal_rcc_ex.c ****     assert_param(IS_RCC_HRTIM1CLKSOURCE(PeriphClkInit->Hrtim1ClockSelection));
 480:../../Drivers/STM32F3xx_HAL_Driver/Src/stm32f3xx_hal_rcc_ex.c ****     
 481:../../Drivers/STM32F3xx_HAL_Driver/Src/stm32f3xx_hal_rcc_ex.c ****     /* Configure the HRTIM1 clock source */
 482:../../Drivers/STM32F3xx_HAL_Driver/Src/stm32f3xx_hal_rcc_ex.c ****     __HAL_RCC_HRTIM1_CONFIG(PeriphClkInit->Hrtim1ClockSelection);
 483:../../Drivers/STM32F3xx_HAL_Driver/Src/stm32f3xx_hal_rcc_ex.c ****   }
 484:../../Drivers/STM32F3xx_HAL_Driver/Src/stm32f3xx_hal_rcc_ex.c **** 
 485:../../Drivers/STM32F3xx_HAL_Driver/Src/stm32f3xx_hal_rcc_ex.c **** #endif /* STM32F334x8 */
 486:../../Drivers/STM32F3xx_HAL_Driver/Src/stm32f3xx_hal_rcc_ex.c **** 
 487:../../Drivers/STM32F3xx_HAL_Driver/Src/stm32f3xx_hal_rcc_ex.c **** #if defined(STM32F373xC) || defined(STM32F378xx)
 488:../../Drivers/STM32F3xx_HAL_Driver/Src/stm32f3xx_hal_rcc_ex.c ****   
 489:../../Drivers/STM32F3xx_HAL_Driver/Src/stm32f3xx_hal_rcc_ex.c ****   /*------------------------------ SDADC clock Configuration -------------------*/ 
 490:../../Drivers/STM32F3xx_HAL_Driver/Src/stm32f3xx_hal_rcc_ex.c ****   if(((PeriphClkInit->PeriphClockSelection) & RCC_PERIPHCLK_SDADC) == RCC_PERIPHCLK_SDADC)
 491:../../Drivers/STM32F3xx_HAL_Driver/Src/stm32f3xx_hal_rcc_ex.c ****   {
 492:../../Drivers/STM32F3xx_HAL_Driver/Src/stm32f3xx_hal_rcc_ex.c ****     /* Check the parameters */
 493:../../Drivers/STM32F3xx_HAL_Driver/Src/stm32f3xx_hal_rcc_ex.c ****     assert_param(IS_RCC_SDADCSYSCLK_DIV(PeriphClkInit->SdadcClockSelection));
 494:../../Drivers/STM32F3xx_HAL_Driver/Src/stm32f3xx_hal_rcc_ex.c ****     
 495:../../Drivers/STM32F3xx_HAL_Driver/Src/stm32f3xx_hal_rcc_ex.c ****     /* Configure the SDADC clock prescaler */
 496:../../Drivers/STM32F3xx_HAL_Driver/Src/stm32f3xx_hal_rcc_ex.c ****     __HAL_RCC_SDADC_CONFIG(PeriphClkInit->SdadcClockSelection);
 497:../../Drivers/STM32F3xx_HAL_Driver/Src/stm32f3xx_hal_rcc_ex.c ****   }
 498:../../Drivers/STM32F3xx_HAL_Driver/Src/stm32f3xx_hal_rcc_ex.c **** 
ARM GAS  /tmp/ccIre3F4.s 			page 29


 499:../../Drivers/STM32F3xx_HAL_Driver/Src/stm32f3xx_hal_rcc_ex.c ****   /*------------------------------ CEC clock Configuration -------------------*/ 
 500:../../Drivers/STM32F3xx_HAL_Driver/Src/stm32f3xx_hal_rcc_ex.c ****   if(((PeriphClkInit->PeriphClockSelection) & RCC_PERIPHCLK_CEC) == RCC_PERIPHCLK_CEC)
 501:../../Drivers/STM32F3xx_HAL_Driver/Src/stm32f3xx_hal_rcc_ex.c ****   {
 502:../../Drivers/STM32F3xx_HAL_Driver/Src/stm32f3xx_hal_rcc_ex.c ****     /* Check the parameters */
 503:../../Drivers/STM32F3xx_HAL_Driver/Src/stm32f3xx_hal_rcc_ex.c ****     assert_param(IS_RCC_CECCLKSOURCE(PeriphClkInit->CecClockSelection));
 504:../../Drivers/STM32F3xx_HAL_Driver/Src/stm32f3xx_hal_rcc_ex.c ****     
 505:../../Drivers/STM32F3xx_HAL_Driver/Src/stm32f3xx_hal_rcc_ex.c ****     /* Configure the CEC clock source */
 506:../../Drivers/STM32F3xx_HAL_Driver/Src/stm32f3xx_hal_rcc_ex.c ****     __HAL_RCC_CEC_CONFIG(PeriphClkInit->CecClockSelection);
 507:../../Drivers/STM32F3xx_HAL_Driver/Src/stm32f3xx_hal_rcc_ex.c ****   }
 508:../../Drivers/STM32F3xx_HAL_Driver/Src/stm32f3xx_hal_rcc_ex.c **** 
 509:../../Drivers/STM32F3xx_HAL_Driver/Src/stm32f3xx_hal_rcc_ex.c **** #endif /* STM32F373xC || STM32F378xx */
 510:../../Drivers/STM32F3xx_HAL_Driver/Src/stm32f3xx_hal_rcc_ex.c ****   
 511:../../Drivers/STM32F3xx_HAL_Driver/Src/stm32f3xx_hal_rcc_ex.c **** #if defined(STM32F302xE) || defined(STM32F303xE) || defined(STM32F398xx)
 512:../../Drivers/STM32F3xx_HAL_Driver/Src/stm32f3xx_hal_rcc_ex.c ****   
 513:../../Drivers/STM32F3xx_HAL_Driver/Src/stm32f3xx_hal_rcc_ex.c ****   /*------------------------------ TIM2 clock Configuration -------------------*/ 
 514:../../Drivers/STM32F3xx_HAL_Driver/Src/stm32f3xx_hal_rcc_ex.c ****   if(((PeriphClkInit->PeriphClockSelection) & RCC_PERIPHCLK_TIM2) == RCC_PERIPHCLK_TIM2)
 515:../../Drivers/STM32F3xx_HAL_Driver/Src/stm32f3xx_hal_rcc_ex.c ****   {
 516:../../Drivers/STM32F3xx_HAL_Driver/Src/stm32f3xx_hal_rcc_ex.c ****     /* Check the parameters */
 517:../../Drivers/STM32F3xx_HAL_Driver/Src/stm32f3xx_hal_rcc_ex.c ****     assert_param(IS_RCC_TIM2CLKSOURCE(PeriphClkInit->Tim2ClockSelection));
 518:../../Drivers/STM32F3xx_HAL_Driver/Src/stm32f3xx_hal_rcc_ex.c ****     
 519:../../Drivers/STM32F3xx_HAL_Driver/Src/stm32f3xx_hal_rcc_ex.c ****     /* Configure the CEC clock source */
 520:../../Drivers/STM32F3xx_HAL_Driver/Src/stm32f3xx_hal_rcc_ex.c ****     __HAL_RCC_TIM2_CONFIG(PeriphClkInit->Tim2ClockSelection);
 521:../../Drivers/STM32F3xx_HAL_Driver/Src/stm32f3xx_hal_rcc_ex.c ****   }
 522:../../Drivers/STM32F3xx_HAL_Driver/Src/stm32f3xx_hal_rcc_ex.c **** 
 523:../../Drivers/STM32F3xx_HAL_Driver/Src/stm32f3xx_hal_rcc_ex.c ****   /*------------------------------ TIM3 clock Configuration -------------------*/ 
 524:../../Drivers/STM32F3xx_HAL_Driver/Src/stm32f3xx_hal_rcc_ex.c ****   if(((PeriphClkInit->PeriphClockSelection) & RCC_PERIPHCLK_TIM34) == RCC_PERIPHCLK_TIM34)
 525:../../Drivers/STM32F3xx_HAL_Driver/Src/stm32f3xx_hal_rcc_ex.c ****   {
 526:../../Drivers/STM32F3xx_HAL_Driver/Src/stm32f3xx_hal_rcc_ex.c ****     /* Check the parameters */
 527:../../Drivers/STM32F3xx_HAL_Driver/Src/stm32f3xx_hal_rcc_ex.c ****     assert_param(IS_RCC_TIM3CLKSOURCE(PeriphClkInit->Tim34ClockSelection));
 528:../../Drivers/STM32F3xx_HAL_Driver/Src/stm32f3xx_hal_rcc_ex.c ****     
 529:../../Drivers/STM32F3xx_HAL_Driver/Src/stm32f3xx_hal_rcc_ex.c ****     /* Configure the CEC clock source */
 530:../../Drivers/STM32F3xx_HAL_Driver/Src/stm32f3xx_hal_rcc_ex.c ****     __HAL_RCC_TIM34_CONFIG(PeriphClkInit->Tim34ClockSelection);
 531:../../Drivers/STM32F3xx_HAL_Driver/Src/stm32f3xx_hal_rcc_ex.c ****   }
 532:../../Drivers/STM32F3xx_HAL_Driver/Src/stm32f3xx_hal_rcc_ex.c **** 
 533:../../Drivers/STM32F3xx_HAL_Driver/Src/stm32f3xx_hal_rcc_ex.c ****   /*------------------------------ TIM15 clock Configuration ------------------*/ 
 534:../../Drivers/STM32F3xx_HAL_Driver/Src/stm32f3xx_hal_rcc_ex.c ****   if(((PeriphClkInit->PeriphClockSelection) & RCC_PERIPHCLK_TIM15) == RCC_PERIPHCLK_TIM15)
 535:../../Drivers/STM32F3xx_HAL_Driver/Src/stm32f3xx_hal_rcc_ex.c ****   {
 536:../../Drivers/STM32F3xx_HAL_Driver/Src/stm32f3xx_hal_rcc_ex.c ****     /* Check the parameters */
 537:../../Drivers/STM32F3xx_HAL_Driver/Src/stm32f3xx_hal_rcc_ex.c ****     assert_param(IS_RCC_TIM15CLKSOURCE(PeriphClkInit->Tim15ClockSelection));
 538:../../Drivers/STM32F3xx_HAL_Driver/Src/stm32f3xx_hal_rcc_ex.c ****     
 539:../../Drivers/STM32F3xx_HAL_Driver/Src/stm32f3xx_hal_rcc_ex.c ****     /* Configure the CEC clock source */
 540:../../Drivers/STM32F3xx_HAL_Driver/Src/stm32f3xx_hal_rcc_ex.c ****     __HAL_RCC_TIM15_CONFIG(PeriphClkInit->Tim15ClockSelection);
 541:../../Drivers/STM32F3xx_HAL_Driver/Src/stm32f3xx_hal_rcc_ex.c ****   }
 542:../../Drivers/STM32F3xx_HAL_Driver/Src/stm32f3xx_hal_rcc_ex.c **** 
 543:../../Drivers/STM32F3xx_HAL_Driver/Src/stm32f3xx_hal_rcc_ex.c ****   /*------------------------------ TIM16 clock Configuration ------------------*/ 
 544:../../Drivers/STM32F3xx_HAL_Driver/Src/stm32f3xx_hal_rcc_ex.c ****   if(((PeriphClkInit->PeriphClockSelection) & RCC_PERIPHCLK_TIM16) == RCC_PERIPHCLK_TIM16)
 545:../../Drivers/STM32F3xx_HAL_Driver/Src/stm32f3xx_hal_rcc_ex.c ****   {
 546:../../Drivers/STM32F3xx_HAL_Driver/Src/stm32f3xx_hal_rcc_ex.c ****     /* Check the parameters */
 547:../../Drivers/STM32F3xx_HAL_Driver/Src/stm32f3xx_hal_rcc_ex.c ****     assert_param(IS_RCC_TIM16CLKSOURCE(PeriphClkInit->Tim16ClockSelection));
 548:../../Drivers/STM32F3xx_HAL_Driver/Src/stm32f3xx_hal_rcc_ex.c ****     
 549:../../Drivers/STM32F3xx_HAL_Driver/Src/stm32f3xx_hal_rcc_ex.c ****     /* Configure the CEC clock source */
 550:../../Drivers/STM32F3xx_HAL_Driver/Src/stm32f3xx_hal_rcc_ex.c ****     __HAL_RCC_TIM16_CONFIG(PeriphClkInit->Tim16ClockSelection);
 551:../../Drivers/STM32F3xx_HAL_Driver/Src/stm32f3xx_hal_rcc_ex.c ****   }
 552:../../Drivers/STM32F3xx_HAL_Driver/Src/stm32f3xx_hal_rcc_ex.c **** 
 553:../../Drivers/STM32F3xx_HAL_Driver/Src/stm32f3xx_hal_rcc_ex.c ****   /*------------------------------ TIM17 clock Configuration ------------------*/ 
 554:../../Drivers/STM32F3xx_HAL_Driver/Src/stm32f3xx_hal_rcc_ex.c ****   if(((PeriphClkInit->PeriphClockSelection) & RCC_PERIPHCLK_TIM17) == RCC_PERIPHCLK_TIM17)
 555:../../Drivers/STM32F3xx_HAL_Driver/Src/stm32f3xx_hal_rcc_ex.c ****   {
ARM GAS  /tmp/ccIre3F4.s 			page 30


 556:../../Drivers/STM32F3xx_HAL_Driver/Src/stm32f3xx_hal_rcc_ex.c ****     /* Check the parameters */
 557:../../Drivers/STM32F3xx_HAL_Driver/Src/stm32f3xx_hal_rcc_ex.c ****     assert_param(IS_RCC_TIM17CLKSOURCE(PeriphClkInit->Tim17ClockSelection));
 558:../../Drivers/STM32F3xx_HAL_Driver/Src/stm32f3xx_hal_rcc_ex.c ****     
 559:../../Drivers/STM32F3xx_HAL_Driver/Src/stm32f3xx_hal_rcc_ex.c ****     /* Configure the CEC clock source */
 560:../../Drivers/STM32F3xx_HAL_Driver/Src/stm32f3xx_hal_rcc_ex.c ****     __HAL_RCC_TIM17_CONFIG(PeriphClkInit->Tim17ClockSelection);
 561:../../Drivers/STM32F3xx_HAL_Driver/Src/stm32f3xx_hal_rcc_ex.c ****   }
 562:../../Drivers/STM32F3xx_HAL_Driver/Src/stm32f3xx_hal_rcc_ex.c **** 
 563:../../Drivers/STM32F3xx_HAL_Driver/Src/stm32f3xx_hal_rcc_ex.c **** #endif /* STM32F302xE || STM32F303xE || STM32F398xx */  
 564:../../Drivers/STM32F3xx_HAL_Driver/Src/stm32f3xx_hal_rcc_ex.c **** 
 565:../../Drivers/STM32F3xx_HAL_Driver/Src/stm32f3xx_hal_rcc_ex.c **** #if defined(STM32F303xE) || defined(STM32F398xx)
 566:../../Drivers/STM32F3xx_HAL_Driver/Src/stm32f3xx_hal_rcc_ex.c ****   /*------------------------------ TIM20 clock Configuration ------------------*/ 
 567:../../Drivers/STM32F3xx_HAL_Driver/Src/stm32f3xx_hal_rcc_ex.c ****   if(((PeriphClkInit->PeriphClockSelection) & RCC_PERIPHCLK_TIM20) == RCC_PERIPHCLK_TIM20)
 568:../../Drivers/STM32F3xx_HAL_Driver/Src/stm32f3xx_hal_rcc_ex.c ****   {
 569:../../Drivers/STM32F3xx_HAL_Driver/Src/stm32f3xx_hal_rcc_ex.c ****     /* Check the parameters */
 570:../../Drivers/STM32F3xx_HAL_Driver/Src/stm32f3xx_hal_rcc_ex.c ****     assert_param(IS_RCC_TIM20CLKSOURCE(PeriphClkInit->Tim20ClockSelection));
 571:../../Drivers/STM32F3xx_HAL_Driver/Src/stm32f3xx_hal_rcc_ex.c ****     
 572:../../Drivers/STM32F3xx_HAL_Driver/Src/stm32f3xx_hal_rcc_ex.c ****     /* Configure the CEC clock source */
 573:../../Drivers/STM32F3xx_HAL_Driver/Src/stm32f3xx_hal_rcc_ex.c ****     __HAL_RCC_TIM20_CONFIG(PeriphClkInit->Tim20ClockSelection);
 574:../../Drivers/STM32F3xx_HAL_Driver/Src/stm32f3xx_hal_rcc_ex.c ****   }
 575:../../Drivers/STM32F3xx_HAL_Driver/Src/stm32f3xx_hal_rcc_ex.c **** #endif /* STM32F303xE || STM32F398xx */  
 576:../../Drivers/STM32F3xx_HAL_Driver/Src/stm32f3xx_hal_rcc_ex.c **** 
 577:../../Drivers/STM32F3xx_HAL_Driver/Src/stm32f3xx_hal_rcc_ex.c ****   
 578:../../Drivers/STM32F3xx_HAL_Driver/Src/stm32f3xx_hal_rcc_ex.c ****   return HAL_OK;
 542              		.loc 1 578 0
 543 0354 0023     		movs	r3, #0
 544              	.L6:
 579:../../Drivers/STM32F3xx_HAL_Driver/Src/stm32f3xx_hal_rcc_ex.c **** }
 545              		.loc 1 579 0
 546 0356 1846     		mov	r0, r3
 547 0358 4837     		adds	r7, r7, #72
 548              	.LCFI3:
 549              		.cfi_def_cfa_offset 8
 550 035a BD46     		mov	sp, r7
 551              	.LCFI4:
 552              		.cfi_def_cfa_register 13
 553              		@ sp needed
 554 035c 80BD     		pop	{r7, pc}
 555              	.L37:
 556 035e 00BF     		.align	2
 557              	.L36:
 558 0360 00100240 		.word	1073876992
 559              		.cfi_endproc
 560              	.LFE123:
 562              		.section	.text.HAL_RCCEx_GetPeriphCLKConfig,"ax",%progbits
 563              		.align	2
 564              		.global	HAL_RCCEx_GetPeriphCLKConfig
 565              		.thumb
 566              		.thumb_func
 568              	HAL_RCCEx_GetPeriphCLKConfig:
 569              	.LFB124:
 580:../../Drivers/STM32F3xx_HAL_Driver/Src/stm32f3xx_hal_rcc_ex.c **** 
 581:../../Drivers/STM32F3xx_HAL_Driver/Src/stm32f3xx_hal_rcc_ex.c **** /**
 582:../../Drivers/STM32F3xx_HAL_Driver/Src/stm32f3xx_hal_rcc_ex.c ****   * @brief  Get the RCC_ClkInitStruct according to the internal
 583:../../Drivers/STM32F3xx_HAL_Driver/Src/stm32f3xx_hal_rcc_ex.c ****   * RCC configuration registers.
 584:../../Drivers/STM32F3xx_HAL_Driver/Src/stm32f3xx_hal_rcc_ex.c ****   * @param  PeriphClkInit pointer to an RCC_PeriphCLKInitTypeDef structure that
 585:../../Drivers/STM32F3xx_HAL_Driver/Src/stm32f3xx_hal_rcc_ex.c ****   *         returns the configuration information for the Extended Peripherals clocks
 586:../../Drivers/STM32F3xx_HAL_Driver/Src/stm32f3xx_hal_rcc_ex.c ****   *         (ADC, CEC, I2C, I2S, SDADC, HRTIM, TIM, USART, RTC and USB clocks).
ARM GAS  /tmp/ccIre3F4.s 			page 31


 587:../../Drivers/STM32F3xx_HAL_Driver/Src/stm32f3xx_hal_rcc_ex.c ****   * @retval None
 588:../../Drivers/STM32F3xx_HAL_Driver/Src/stm32f3xx_hal_rcc_ex.c ****   */
 589:../../Drivers/STM32F3xx_HAL_Driver/Src/stm32f3xx_hal_rcc_ex.c **** void HAL_RCCEx_GetPeriphCLKConfig(RCC_PeriphCLKInitTypeDef  *PeriphClkInit)
 590:../../Drivers/STM32F3xx_HAL_Driver/Src/stm32f3xx_hal_rcc_ex.c **** {
 570              		.loc 1 590 0
 571              		.cfi_startproc
 572              		@ args = 0, pretend = 0, frame = 8
 573              		@ frame_needed = 1, uses_anonymous_args = 0
 574              		@ link register save eliminated.
 575 0000 80B4     		push	{r7}
 576              	.LCFI5:
 577              		.cfi_def_cfa_offset 4
 578              		.cfi_offset 7, -4
 579 0002 83B0     		sub	sp, sp, #12
 580              	.LCFI6:
 581              		.cfi_def_cfa_offset 16
 582 0004 00AF     		add	r7, sp, #0
 583              	.LCFI7:
 584              		.cfi_def_cfa_register 7
 585 0006 7860     		str	r0, [r7, #4]
 591:../../Drivers/STM32F3xx_HAL_Driver/Src/stm32f3xx_hal_rcc_ex.c ****   /* Set all possible values for the extended clock type parameter------------*/
 592:../../Drivers/STM32F3xx_HAL_Driver/Src/stm32f3xx_hal_rcc_ex.c ****   /* Common part first */
 593:../../Drivers/STM32F3xx_HAL_Driver/Src/stm32f3xx_hal_rcc_ex.c **** #if defined(RCC_CFGR3_USART2SW) && defined(RCC_CFGR3_USART3SW)
 594:../../Drivers/STM32F3xx_HAL_Driver/Src/stm32f3xx_hal_rcc_ex.c ****   PeriphClkInit->PeriphClockSelection = RCC_PERIPHCLK_USART1 | RCC_PERIPHCLK_USART2 | RCC_PERIPHCLK
 595:../../Drivers/STM32F3xx_HAL_Driver/Src/stm32f3xx_hal_rcc_ex.c ****                                         RCC_PERIPHCLK_I2C1   | RCC_PERIPHCLK_RTC;
 596:../../Drivers/STM32F3xx_HAL_Driver/Src/stm32f3xx_hal_rcc_ex.c **** #else
 597:../../Drivers/STM32F3xx_HAL_Driver/Src/stm32f3xx_hal_rcc_ex.c ****   PeriphClkInit->PeriphClockSelection = RCC_PERIPHCLK_USART1 | \
 586              		.loc 1 597 0
 587 0008 7B68     		ldr	r3, [r7, #4]
 588 000a 3C4A     		ldr	r2, .L39
 589 000c 1A60     		str	r2, [r3]
 598:../../Drivers/STM32F3xx_HAL_Driver/Src/stm32f3xx_hal_rcc_ex.c ****                                         RCC_PERIPHCLK_I2C1   | RCC_PERIPHCLK_RTC;
 599:../../Drivers/STM32F3xx_HAL_Driver/Src/stm32f3xx_hal_rcc_ex.c **** #endif /* RCC_CFGR3_USART2SW && RCC_CFGR3_USART3SW */
 600:../../Drivers/STM32F3xx_HAL_Driver/Src/stm32f3xx_hal_rcc_ex.c ****   
 601:../../Drivers/STM32F3xx_HAL_Driver/Src/stm32f3xx_hal_rcc_ex.c ****   /* Get the RTC configuration --------------------------------------------*/
 602:../../Drivers/STM32F3xx_HAL_Driver/Src/stm32f3xx_hal_rcc_ex.c ****   PeriphClkInit->RTCClockSelection = __HAL_RCC_GET_RTC_SOURCE();
 590              		.loc 1 602 0
 591 000e 3C4B     		ldr	r3, .L39+4
 592 0010 1B6A     		ldr	r3, [r3, #32]
 593 0012 03F44072 		and	r2, r3, #768
 594 0016 7B68     		ldr	r3, [r7, #4]
 595 0018 5A60     		str	r2, [r3, #4]
 603:../../Drivers/STM32F3xx_HAL_Driver/Src/stm32f3xx_hal_rcc_ex.c ****   /* Get the USART1 clock configuration --------------------------------------------*/
 604:../../Drivers/STM32F3xx_HAL_Driver/Src/stm32f3xx_hal_rcc_ex.c ****   PeriphClkInit->Usart1ClockSelection = __HAL_RCC_GET_USART1_SOURCE();
 596              		.loc 1 604 0
 597 001a 394B     		ldr	r3, .L39+4
 598 001c 1B6B     		ldr	r3, [r3, #48]
 599 001e 03F00302 		and	r2, r3, #3
 600 0022 7B68     		ldr	r3, [r7, #4]
 601 0024 9A60     		str	r2, [r3, #8]
 605:../../Drivers/STM32F3xx_HAL_Driver/Src/stm32f3xx_hal_rcc_ex.c **** #if defined(RCC_CFGR3_USART2SW)
 606:../../Drivers/STM32F3xx_HAL_Driver/Src/stm32f3xx_hal_rcc_ex.c ****   /* Get the USART2 clock configuration -----------------------------------------*/
 607:../../Drivers/STM32F3xx_HAL_Driver/Src/stm32f3xx_hal_rcc_ex.c ****   PeriphClkInit->Usart2ClockSelection = __HAL_RCC_GET_USART2_SOURCE();
 608:../../Drivers/STM32F3xx_HAL_Driver/Src/stm32f3xx_hal_rcc_ex.c **** #endif /* RCC_CFGR3_USART2SW */
 609:../../Drivers/STM32F3xx_HAL_Driver/Src/stm32f3xx_hal_rcc_ex.c **** #if defined(RCC_CFGR3_USART3SW)
 610:../../Drivers/STM32F3xx_HAL_Driver/Src/stm32f3xx_hal_rcc_ex.c ****    /* Get the USART3 clock configuration -----------------------------------------*/
 611:../../Drivers/STM32F3xx_HAL_Driver/Src/stm32f3xx_hal_rcc_ex.c ****   PeriphClkInit->Usart3ClockSelection = __HAL_RCC_GET_USART3_SOURCE();
ARM GAS  /tmp/ccIre3F4.s 			page 32


 612:../../Drivers/STM32F3xx_HAL_Driver/Src/stm32f3xx_hal_rcc_ex.c **** #endif /* RCC_CFGR3_USART3SW */
 613:../../Drivers/STM32F3xx_HAL_Driver/Src/stm32f3xx_hal_rcc_ex.c ****   /* Get the I2C1 clock configuration -----------------------------------------*/
 614:../../Drivers/STM32F3xx_HAL_Driver/Src/stm32f3xx_hal_rcc_ex.c ****   PeriphClkInit->I2c1ClockSelection = __HAL_RCC_GET_I2C1_SOURCE();
 602              		.loc 1 614 0
 603 0026 364B     		ldr	r3, .L39+4
 604 0028 1B6B     		ldr	r3, [r3, #48]
 605 002a 03F01002 		and	r2, r3, #16
 606 002e 7B68     		ldr	r3, [r7, #4]
 607 0030 DA60     		str	r2, [r3, #12]
 615:../../Drivers/STM32F3xx_HAL_Driver/Src/stm32f3xx_hal_rcc_ex.c **** 
 616:../../Drivers/STM32F3xx_HAL_Driver/Src/stm32f3xx_hal_rcc_ex.c **** #if defined(STM32F302xE) || defined(STM32F303xE)\
 617:../../Drivers/STM32F3xx_HAL_Driver/Src/stm32f3xx_hal_rcc_ex.c ****     || defined(STM32F302xC) || defined(STM32F303xC)\
 618:../../Drivers/STM32F3xx_HAL_Driver/Src/stm32f3xx_hal_rcc_ex.c ****     || defined(STM32F302x8)                        \
 619:../../Drivers/STM32F3xx_HAL_Driver/Src/stm32f3xx_hal_rcc_ex.c ****     || defined(STM32F373xC)
 620:../../Drivers/STM32F3xx_HAL_Driver/Src/stm32f3xx_hal_rcc_ex.c **** 
 621:../../Drivers/STM32F3xx_HAL_Driver/Src/stm32f3xx_hal_rcc_ex.c ****   PeriphClkInit->PeriphClockSelection |= RCC_PERIPHCLK_USB;
 608              		.loc 1 621 0
 609 0032 7B68     		ldr	r3, [r7, #4]
 610 0034 1B68     		ldr	r3, [r3]
 611 0036 43F40032 		orr	r2, r3, #131072
 612 003a 7B68     		ldr	r3, [r7, #4]
 613 003c 1A60     		str	r2, [r3]
 622:../../Drivers/STM32F3xx_HAL_Driver/Src/stm32f3xx_hal_rcc_ex.c ****   /* Get the USB clock configuration -----------------------------------------*/
 623:../../Drivers/STM32F3xx_HAL_Driver/Src/stm32f3xx_hal_rcc_ex.c ****   PeriphClkInit->USBClockSelection = __HAL_RCC_GET_USB_SOURCE();
 614              		.loc 1 623 0
 615 003e 304B     		ldr	r3, .L39+4
 616 0040 5B68     		ldr	r3, [r3, #4]
 617 0042 03F48002 		and	r2, r3, #4194304
 618 0046 7B68     		ldr	r3, [r7, #4]
 619 0048 1A63     		str	r2, [r3, #48]
 624:../../Drivers/STM32F3xx_HAL_Driver/Src/stm32f3xx_hal_rcc_ex.c **** 
 625:../../Drivers/STM32F3xx_HAL_Driver/Src/stm32f3xx_hal_rcc_ex.c **** #endif /* STM32F302xE || STM32F303xE || */
 626:../../Drivers/STM32F3xx_HAL_Driver/Src/stm32f3xx_hal_rcc_ex.c ****        /* STM32F302xC || STM32F303xC || */
 627:../../Drivers/STM32F3xx_HAL_Driver/Src/stm32f3xx_hal_rcc_ex.c ****        /* STM32F302x8                || */
 628:../../Drivers/STM32F3xx_HAL_Driver/Src/stm32f3xx_hal_rcc_ex.c ****        /* STM32F373xC                   */
 629:../../Drivers/STM32F3xx_HAL_Driver/Src/stm32f3xx_hal_rcc_ex.c **** 
 630:../../Drivers/STM32F3xx_HAL_Driver/Src/stm32f3xx_hal_rcc_ex.c **** #if defined(STM32F302xE) || defined(STM32F303xE) || defined(STM32F398xx)\
 631:../../Drivers/STM32F3xx_HAL_Driver/Src/stm32f3xx_hal_rcc_ex.c ****     || defined(STM32F302xC) || defined(STM32F303xC) || defined(STM32F358xx)\
 632:../../Drivers/STM32F3xx_HAL_Driver/Src/stm32f3xx_hal_rcc_ex.c ****     || defined(STM32F301x8) || defined(STM32F302x8) || defined(STM32F318xx)\
 633:../../Drivers/STM32F3xx_HAL_Driver/Src/stm32f3xx_hal_rcc_ex.c ****     || defined(STM32F373xC) || defined(STM32F378xx)
 634:../../Drivers/STM32F3xx_HAL_Driver/Src/stm32f3xx_hal_rcc_ex.c **** 
 635:../../Drivers/STM32F3xx_HAL_Driver/Src/stm32f3xx_hal_rcc_ex.c ****   PeriphClkInit->PeriphClockSelection |= RCC_PERIPHCLK_I2C2;
 620              		.loc 1 635 0
 621 004a 7B68     		ldr	r3, [r7, #4]
 622 004c 1B68     		ldr	r3, [r3]
 623 004e 43F04002 		orr	r2, r3, #64
 624 0052 7B68     		ldr	r3, [r7, #4]
 625 0054 1A60     		str	r2, [r3]
 636:../../Drivers/STM32F3xx_HAL_Driver/Src/stm32f3xx_hal_rcc_ex.c ****   /* Get the I2C2 clock configuration -----------------------------------------*/
 637:../../Drivers/STM32F3xx_HAL_Driver/Src/stm32f3xx_hal_rcc_ex.c ****   PeriphClkInit->I2c2ClockSelection = __HAL_RCC_GET_I2C2_SOURCE();
 626              		.loc 1 637 0
 627 0056 2A4B     		ldr	r3, .L39+4
 628 0058 1B6B     		ldr	r3, [r3, #48]
 629 005a 03F02002 		and	r2, r3, #32
 630 005e 7B68     		ldr	r3, [r7, #4]
 631 0060 1A61     		str	r2, [r3, #16]
 638:../../Drivers/STM32F3xx_HAL_Driver/Src/stm32f3xx_hal_rcc_ex.c **** 
ARM GAS  /tmp/ccIre3F4.s 			page 33


 639:../../Drivers/STM32F3xx_HAL_Driver/Src/stm32f3xx_hal_rcc_ex.c **** #endif /* STM32F302xE || STM32F303xE || STM32F398xx || */
 640:../../Drivers/STM32F3xx_HAL_Driver/Src/stm32f3xx_hal_rcc_ex.c ****        /* STM32F302xC || STM32F303xC || STM32F358xx || */
 641:../../Drivers/STM32F3xx_HAL_Driver/Src/stm32f3xx_hal_rcc_ex.c ****        /* STM32F301x8 || STM32F302x8 || STM32F318xx || */
 642:../../Drivers/STM32F3xx_HAL_Driver/Src/stm32f3xx_hal_rcc_ex.c ****        /* STM32F373xC || STM32F378xx                   */
 643:../../Drivers/STM32F3xx_HAL_Driver/Src/stm32f3xx_hal_rcc_ex.c ****   
 644:../../Drivers/STM32F3xx_HAL_Driver/Src/stm32f3xx_hal_rcc_ex.c **** #if defined(STM32F302xE) || defined(STM32F303xE) || defined(STM32F398xx)\
 645:../../Drivers/STM32F3xx_HAL_Driver/Src/stm32f3xx_hal_rcc_ex.c ****     || defined(STM32F301x8) || defined(STM32F302x8) || defined(STM32F318xx)
 646:../../Drivers/STM32F3xx_HAL_Driver/Src/stm32f3xx_hal_rcc_ex.c **** 
 647:../../Drivers/STM32F3xx_HAL_Driver/Src/stm32f3xx_hal_rcc_ex.c ****   PeriphClkInit->PeriphClockSelection |= RCC_PERIPHCLK_I2C3;
 632              		.loc 1 647 0
 633 0062 7B68     		ldr	r3, [r7, #4]
 634 0064 1B68     		ldr	r3, [r3]
 635 0066 43F40042 		orr	r2, r3, #32768
 636 006a 7B68     		ldr	r3, [r7, #4]
 637 006c 1A60     		str	r2, [r3]
 648:../../Drivers/STM32F3xx_HAL_Driver/Src/stm32f3xx_hal_rcc_ex.c ****   /* Get the I2C3 clock configuration -----------------------------------------*/
 649:../../Drivers/STM32F3xx_HAL_Driver/Src/stm32f3xx_hal_rcc_ex.c ****   PeriphClkInit->I2c3ClockSelection = __HAL_RCC_GET_I2C3_SOURCE();
 638              		.loc 1 649 0
 639 006e 244B     		ldr	r3, .L39+4
 640 0070 1B6B     		ldr	r3, [r3, #48]
 641 0072 03F04002 		and	r2, r3, #64
 642 0076 7B68     		ldr	r3, [r7, #4]
 643 0078 5A61     		str	r2, [r3, #20]
 650:../../Drivers/STM32F3xx_HAL_Driver/Src/stm32f3xx_hal_rcc_ex.c **** 
 651:../../Drivers/STM32F3xx_HAL_Driver/Src/stm32f3xx_hal_rcc_ex.c **** #endif /* STM32F302xE || STM32F303xE || STM32F398xx || */
 652:../../Drivers/STM32F3xx_HAL_Driver/Src/stm32f3xx_hal_rcc_ex.c ****        /* STM32F301x8 || STM32F302x8 || STM32F318xx    */
 653:../../Drivers/STM32F3xx_HAL_Driver/Src/stm32f3xx_hal_rcc_ex.c ****   
 654:../../Drivers/STM32F3xx_HAL_Driver/Src/stm32f3xx_hal_rcc_ex.c **** #if defined(STM32F302xE) || defined(STM32F303xE) || defined(STM32F398xx)\
 655:../../Drivers/STM32F3xx_HAL_Driver/Src/stm32f3xx_hal_rcc_ex.c ****     || defined(STM32F302xC) || defined(STM32F303xC) ||defined(STM32F358xx)
 656:../../Drivers/STM32F3xx_HAL_Driver/Src/stm32f3xx_hal_rcc_ex.c **** 
 657:../../Drivers/STM32F3xx_HAL_Driver/Src/stm32f3xx_hal_rcc_ex.c ****   PeriphClkInit->PeriphClockSelection |= (RCC_PERIPHCLK_UART4  | RCC_PERIPHCLK_UART5);
 658:../../Drivers/STM32F3xx_HAL_Driver/Src/stm32f3xx_hal_rcc_ex.c ****   /* Get the UART4 clock configuration -----------------------------------------*/
 659:../../Drivers/STM32F3xx_HAL_Driver/Src/stm32f3xx_hal_rcc_ex.c ****   PeriphClkInit->Uart4ClockSelection = __HAL_RCC_GET_UART4_SOURCE();
 660:../../Drivers/STM32F3xx_HAL_Driver/Src/stm32f3xx_hal_rcc_ex.c ****   /* Get the UART5 clock configuration -----------------------------------------*/
 661:../../Drivers/STM32F3xx_HAL_Driver/Src/stm32f3xx_hal_rcc_ex.c ****   PeriphClkInit->Uart5ClockSelection = __HAL_RCC_GET_UART5_SOURCE();
 662:../../Drivers/STM32F3xx_HAL_Driver/Src/stm32f3xx_hal_rcc_ex.c **** 
 663:../../Drivers/STM32F3xx_HAL_Driver/Src/stm32f3xx_hal_rcc_ex.c **** #endif /* STM32F302xE || STM32F303xE || STM32F398xx || */
 664:../../Drivers/STM32F3xx_HAL_Driver/Src/stm32f3xx_hal_rcc_ex.c ****        /* STM32F302xC || STM32F303xC || STM32F358xx */
 665:../../Drivers/STM32F3xx_HAL_Driver/Src/stm32f3xx_hal_rcc_ex.c **** 
 666:../../Drivers/STM32F3xx_HAL_Driver/Src/stm32f3xx_hal_rcc_ex.c **** #if defined(STM32F302xE) || defined(STM32F303xE) || defined(STM32F398xx)\
 667:../../Drivers/STM32F3xx_HAL_Driver/Src/stm32f3xx_hal_rcc_ex.c ****     || defined(STM32F302xC) || defined(STM32F303xC) || defined(STM32F358xx)\
 668:../../Drivers/STM32F3xx_HAL_Driver/Src/stm32f3xx_hal_rcc_ex.c ****     || defined(STM32F301x8) || defined(STM32F302x8) || defined(STM32F318xx)
 669:../../Drivers/STM32F3xx_HAL_Driver/Src/stm32f3xx_hal_rcc_ex.c **** 
 670:../../Drivers/STM32F3xx_HAL_Driver/Src/stm32f3xx_hal_rcc_ex.c ****   PeriphClkInit->PeriphClockSelection |= RCC_PERIPHCLK_I2S;
 644              		.loc 1 670 0
 645 007a 7B68     		ldr	r3, [r7, #4]
 646 007c 1B68     		ldr	r3, [r3]
 647 007e 43F40072 		orr	r2, r3, #512
 648 0082 7B68     		ldr	r3, [r7, #4]
 649 0084 1A60     		str	r2, [r3]
 671:../../Drivers/STM32F3xx_HAL_Driver/Src/stm32f3xx_hal_rcc_ex.c ****   /* Get the I2S clock configuration -----------------------------------------*/
 672:../../Drivers/STM32F3xx_HAL_Driver/Src/stm32f3xx_hal_rcc_ex.c ****   PeriphClkInit->I2sClockSelection = __HAL_RCC_GET_I2S_SOURCE();
 650              		.loc 1 672 0
 651 0086 1E4B     		ldr	r3, .L39+4
 652 0088 5B68     		ldr	r3, [r3, #4]
 653 008a 03F40002 		and	r2, r3, #8388608
 654 008e 7B68     		ldr	r3, [r7, #4]
ARM GAS  /tmp/ccIre3F4.s 			page 34


 655 0090 DA61     		str	r2, [r3, #28]
 673:../../Drivers/STM32F3xx_HAL_Driver/Src/stm32f3xx_hal_rcc_ex.c **** 
 674:../../Drivers/STM32F3xx_HAL_Driver/Src/stm32f3xx_hal_rcc_ex.c **** #endif /* STM32F302xE || STM32F303xE || STM32F398xx || */
 675:../../Drivers/STM32F3xx_HAL_Driver/Src/stm32f3xx_hal_rcc_ex.c ****        /* STM32F302xC || STM32F303xC || STM32F358xx || */
 676:../../Drivers/STM32F3xx_HAL_Driver/Src/stm32f3xx_hal_rcc_ex.c ****        /* STM32F301x8 || STM32F302x8 || STM32F318xx || */
 677:../../Drivers/STM32F3xx_HAL_Driver/Src/stm32f3xx_hal_rcc_ex.c ****   
 678:../../Drivers/STM32F3xx_HAL_Driver/Src/stm32f3xx_hal_rcc_ex.c **** #if defined(STM32F301x8) || defined(STM32F302x8) || defined(STM32F318xx)\
 679:../../Drivers/STM32F3xx_HAL_Driver/Src/stm32f3xx_hal_rcc_ex.c ****     || defined(STM32F373xC) || defined(STM32F378xx)
 680:../../Drivers/STM32F3xx_HAL_Driver/Src/stm32f3xx_hal_rcc_ex.c ****       
 681:../../Drivers/STM32F3xx_HAL_Driver/Src/stm32f3xx_hal_rcc_ex.c ****   PeriphClkInit->PeriphClockSelection |= RCC_PERIPHCLK_ADC1;
 656              		.loc 1 681 0
 657 0092 7B68     		ldr	r3, [r7, #4]
 658 0094 1B68     		ldr	r3, [r3]
 659 0096 43F08002 		orr	r2, r3, #128
 660 009a 7B68     		ldr	r3, [r7, #4]
 661 009c 1A60     		str	r2, [r3]
 682:../../Drivers/STM32F3xx_HAL_Driver/Src/stm32f3xx_hal_rcc_ex.c ****   /* Get the ADC1 clock configuration -----------------------------------------*/
 683:../../Drivers/STM32F3xx_HAL_Driver/Src/stm32f3xx_hal_rcc_ex.c ****   PeriphClkInit->Adc1ClockSelection = __HAL_RCC_GET_ADC1_SOURCE();
 662              		.loc 1 683 0
 663 009e 184B     		ldr	r3, .L39+4
 664 00a0 DB6A     		ldr	r3, [r3, #44]
 665 00a2 03F4F872 		and	r2, r3, #496
 666 00a6 7B68     		ldr	r3, [r7, #4]
 667 00a8 9A61     		str	r2, [r3, #24]
 684:../../Drivers/STM32F3xx_HAL_Driver/Src/stm32f3xx_hal_rcc_ex.c **** 
 685:../../Drivers/STM32F3xx_HAL_Driver/Src/stm32f3xx_hal_rcc_ex.c **** #endif /* STM32F301x8 || STM32F302x8 || STM32F318xx || */
 686:../../Drivers/STM32F3xx_HAL_Driver/Src/stm32f3xx_hal_rcc_ex.c ****        /* STM32F373xC || STM32F378xx                   */
 687:../../Drivers/STM32F3xx_HAL_Driver/Src/stm32f3xx_hal_rcc_ex.c **** 
 688:../../Drivers/STM32F3xx_HAL_Driver/Src/stm32f3xx_hal_rcc_ex.c **** #if defined(STM32F302xE) || defined(STM32F303xE) || defined(STM32F398xx)\
 689:../../Drivers/STM32F3xx_HAL_Driver/Src/stm32f3xx_hal_rcc_ex.c ****     || defined(STM32F302xC) || defined(STM32F303xC) || defined(STM32F358xx)\
 690:../../Drivers/STM32F3xx_HAL_Driver/Src/stm32f3xx_hal_rcc_ex.c ****     || defined(STM32F303x8) || defined(STM32F334x8) || defined(STM32F328xx)
 691:../../Drivers/STM32F3xx_HAL_Driver/Src/stm32f3xx_hal_rcc_ex.c **** 
 692:../../Drivers/STM32F3xx_HAL_Driver/Src/stm32f3xx_hal_rcc_ex.c ****   PeriphClkInit->PeriphClockSelection |= RCC_PERIPHCLK_ADC12;
 693:../../Drivers/STM32F3xx_HAL_Driver/Src/stm32f3xx_hal_rcc_ex.c ****   /* Get the ADC1 & ADC2 clock configuration -----------------------------------------*/
 694:../../Drivers/STM32F3xx_HAL_Driver/Src/stm32f3xx_hal_rcc_ex.c ****   PeriphClkInit->Adc12ClockSelection = __HAL_RCC_GET_ADC12_SOURCE();
 695:../../Drivers/STM32F3xx_HAL_Driver/Src/stm32f3xx_hal_rcc_ex.c **** 
 696:../../Drivers/STM32F3xx_HAL_Driver/Src/stm32f3xx_hal_rcc_ex.c **** #endif /* STM32F302xE || STM32F303xE || STM32F398xx || */
 697:../../Drivers/STM32F3xx_HAL_Driver/Src/stm32f3xx_hal_rcc_ex.c ****        /* STM32F302xC || STM32F303xC || STM32F358xx || */
 698:../../Drivers/STM32F3xx_HAL_Driver/Src/stm32f3xx_hal_rcc_ex.c ****        /* STM32F303x8 || STM32F334x8 || STM32F328xx    */
 699:../../Drivers/STM32F3xx_HAL_Driver/Src/stm32f3xx_hal_rcc_ex.c **** 
 700:../../Drivers/STM32F3xx_HAL_Driver/Src/stm32f3xx_hal_rcc_ex.c **** #if defined(STM32F303xE) || defined(STM32F398xx)\
 701:../../Drivers/STM32F3xx_HAL_Driver/Src/stm32f3xx_hal_rcc_ex.c ****     || defined(STM32F303xC) || defined(STM32F358xx)
 702:../../Drivers/STM32F3xx_HAL_Driver/Src/stm32f3xx_hal_rcc_ex.c **** 
 703:../../Drivers/STM32F3xx_HAL_Driver/Src/stm32f3xx_hal_rcc_ex.c ****   PeriphClkInit->PeriphClockSelection |= RCC_PERIPHCLK_ADC34;
 704:../../Drivers/STM32F3xx_HAL_Driver/Src/stm32f3xx_hal_rcc_ex.c ****    /* Get the ADC3 & ADC4 clock configuration -----------------------------------------*/
 705:../../Drivers/STM32F3xx_HAL_Driver/Src/stm32f3xx_hal_rcc_ex.c ****   PeriphClkInit->Adc34ClockSelection = __HAL_RCC_GET_ADC34_SOURCE();
 706:../../Drivers/STM32F3xx_HAL_Driver/Src/stm32f3xx_hal_rcc_ex.c **** 
 707:../../Drivers/STM32F3xx_HAL_Driver/Src/stm32f3xx_hal_rcc_ex.c **** #endif /* STM32F303xE || STM32F398xx || */
 708:../../Drivers/STM32F3xx_HAL_Driver/Src/stm32f3xx_hal_rcc_ex.c ****        /* STM32F303xC || STM32F358xx    */
 709:../../Drivers/STM32F3xx_HAL_Driver/Src/stm32f3xx_hal_rcc_ex.c **** 
 710:../../Drivers/STM32F3xx_HAL_Driver/Src/stm32f3xx_hal_rcc_ex.c **** #if defined(STM32F302xE) || defined(STM32F303xE) || defined(STM32F398xx)\
 711:../../Drivers/STM32F3xx_HAL_Driver/Src/stm32f3xx_hal_rcc_ex.c ****     || defined(STM32F302xC) || defined(STM32F303xC) || defined(STM32F358xx)\
 712:../../Drivers/STM32F3xx_HAL_Driver/Src/stm32f3xx_hal_rcc_ex.c ****     || defined(STM32F303x8) || defined(STM32F334x8) || defined(STM32F328xx)\
 713:../../Drivers/STM32F3xx_HAL_Driver/Src/stm32f3xx_hal_rcc_ex.c ****     || defined(STM32F301x8) || defined(STM32F302x8) || defined(STM32F318xx)
 714:../../Drivers/STM32F3xx_HAL_Driver/Src/stm32f3xx_hal_rcc_ex.c **** 
 715:../../Drivers/STM32F3xx_HAL_Driver/Src/stm32f3xx_hal_rcc_ex.c ****   PeriphClkInit->PeriphClockSelection |= RCC_PERIPHCLK_TIM1;
 668              		.loc 1 715 0
ARM GAS  /tmp/ccIre3F4.s 			page 35


 669 00aa 7B68     		ldr	r3, [r7, #4]
 670 00ac 1B68     		ldr	r3, [r3]
 671 00ae 43F48052 		orr	r2, r3, #4096
 672 00b2 7B68     		ldr	r3, [r7, #4]
 673 00b4 1A60     		str	r2, [r3]
 716:../../Drivers/STM32F3xx_HAL_Driver/Src/stm32f3xx_hal_rcc_ex.c ****   /* Get the TIM1 clock configuration -----------------------------------------*/
 717:../../Drivers/STM32F3xx_HAL_Driver/Src/stm32f3xx_hal_rcc_ex.c ****   PeriphClkInit->Tim1ClockSelection = __HAL_RCC_GET_TIM1_SOURCE();
 674              		.loc 1 717 0
 675 00b6 124B     		ldr	r3, .L39+4
 676 00b8 1B6B     		ldr	r3, [r3, #48]
 677 00ba 03F48072 		and	r2, r3, #256
 678 00be 7B68     		ldr	r3, [r7, #4]
 679 00c0 1A62     		str	r2, [r3, #32]
 718:../../Drivers/STM32F3xx_HAL_Driver/Src/stm32f3xx_hal_rcc_ex.c **** 
 719:../../Drivers/STM32F3xx_HAL_Driver/Src/stm32f3xx_hal_rcc_ex.c **** #endif /* STM32F302xE || STM32F303xE || STM32F398xx || */
 720:../../Drivers/STM32F3xx_HAL_Driver/Src/stm32f3xx_hal_rcc_ex.c ****        /* STM32F302xC || STM32F303xC || STM32F358xx || */
 721:../../Drivers/STM32F3xx_HAL_Driver/Src/stm32f3xx_hal_rcc_ex.c ****        /* STM32F303x8 || STM32F334x8 || STM32F328xx || */
 722:../../Drivers/STM32F3xx_HAL_Driver/Src/stm32f3xx_hal_rcc_ex.c ****        /* STM32F301x8 || STM32F302x8 || STM32F318xx    */
 723:../../Drivers/STM32F3xx_HAL_Driver/Src/stm32f3xx_hal_rcc_ex.c ****   
 724:../../Drivers/STM32F3xx_HAL_Driver/Src/stm32f3xx_hal_rcc_ex.c **** #if defined(STM32F303xE) || defined(STM32F398xx)\
 725:../../Drivers/STM32F3xx_HAL_Driver/Src/stm32f3xx_hal_rcc_ex.c ****     || defined(STM32F303xC) || defined(STM32F358xx)
 726:../../Drivers/STM32F3xx_HAL_Driver/Src/stm32f3xx_hal_rcc_ex.c **** 
 727:../../Drivers/STM32F3xx_HAL_Driver/Src/stm32f3xx_hal_rcc_ex.c ****   PeriphClkInit->PeriphClockSelection |= RCC_PERIPHCLK_TIM8;
 728:../../Drivers/STM32F3xx_HAL_Driver/Src/stm32f3xx_hal_rcc_ex.c ****   /* Get the TIM8 clock configuration -----------------------------------------*/
 729:../../Drivers/STM32F3xx_HAL_Driver/Src/stm32f3xx_hal_rcc_ex.c ****   PeriphClkInit->Tim8ClockSelection = __HAL_RCC_GET_TIM8_SOURCE();
 730:../../Drivers/STM32F3xx_HAL_Driver/Src/stm32f3xx_hal_rcc_ex.c **** 
 731:../../Drivers/STM32F3xx_HAL_Driver/Src/stm32f3xx_hal_rcc_ex.c **** #endif /* STM32F303xE || STM32F398xx || */
 732:../../Drivers/STM32F3xx_HAL_Driver/Src/stm32f3xx_hal_rcc_ex.c ****        /* STM32F303xC || STM32F358xx    */
 733:../../Drivers/STM32F3xx_HAL_Driver/Src/stm32f3xx_hal_rcc_ex.c **** 
 734:../../Drivers/STM32F3xx_HAL_Driver/Src/stm32f3xx_hal_rcc_ex.c **** #if defined(STM32F301x8) || defined(STM32F302x8) || defined(STM32F318xx)
 735:../../Drivers/STM32F3xx_HAL_Driver/Src/stm32f3xx_hal_rcc_ex.c **** 
 736:../../Drivers/STM32F3xx_HAL_Driver/Src/stm32f3xx_hal_rcc_ex.c ****   PeriphClkInit->PeriphClockSelection |= (RCC_PERIPHCLK_TIM15 | RCC_PERIPHCLK_TIM16 | RCC_PERIPHCLK
 680              		.loc 1 736 0
 681 00c2 7B68     		ldr	r3, [r7, #4]
 682 00c4 1B68     		ldr	r3, [r3]
 683 00c6 43F4E012 		orr	r2, r3, #1835008
 684 00ca 7B68     		ldr	r3, [r7, #4]
 685 00cc 1A60     		str	r2, [r3]
 737:../../Drivers/STM32F3xx_HAL_Driver/Src/stm32f3xx_hal_rcc_ex.c ****   /* Get the TIM15 clock configuration -----------------------------------------*/
 738:../../Drivers/STM32F3xx_HAL_Driver/Src/stm32f3xx_hal_rcc_ex.c ****   PeriphClkInit->Tim15ClockSelection = __HAL_RCC_GET_TIM15_SOURCE();
 686              		.loc 1 738 0
 687 00ce 0C4B     		ldr	r3, .L39+4
 688 00d0 1B6B     		ldr	r3, [r3, #48]
 689 00d2 03F48062 		and	r2, r3, #1024
 690 00d6 7B68     		ldr	r3, [r7, #4]
 691 00d8 5A62     		str	r2, [r3, #36]
 739:../../Drivers/STM32F3xx_HAL_Driver/Src/stm32f3xx_hal_rcc_ex.c ****   /* Get the TIM16 clock configuration -----------------------------------------*/
 740:../../Drivers/STM32F3xx_HAL_Driver/Src/stm32f3xx_hal_rcc_ex.c ****   PeriphClkInit->Tim16ClockSelection = __HAL_RCC_GET_TIM16_SOURCE();
 692              		.loc 1 740 0
 693 00da 094B     		ldr	r3, .L39+4
 694 00dc 1B6B     		ldr	r3, [r3, #48]
 695 00de 03F40062 		and	r2, r3, #2048
 696 00e2 7B68     		ldr	r3, [r7, #4]
 697 00e4 9A62     		str	r2, [r3, #40]
 741:../../Drivers/STM32F3xx_HAL_Driver/Src/stm32f3xx_hal_rcc_ex.c ****   /* Get the TIM17 clock configuration -----------------------------------------*/
 742:../../Drivers/STM32F3xx_HAL_Driver/Src/stm32f3xx_hal_rcc_ex.c ****   PeriphClkInit->Tim17ClockSelection = __HAL_RCC_GET_TIM17_SOURCE();
 698              		.loc 1 742 0
ARM GAS  /tmp/ccIre3F4.s 			page 36


 699 00e6 064B     		ldr	r3, .L39+4
 700 00e8 1B6B     		ldr	r3, [r3, #48]
 701 00ea 03F40052 		and	r2, r3, #8192
 702 00ee 7B68     		ldr	r3, [r7, #4]
 703 00f0 DA62     		str	r2, [r3, #44]
 743:../../Drivers/STM32F3xx_HAL_Driver/Src/stm32f3xx_hal_rcc_ex.c **** 
 744:../../Drivers/STM32F3xx_HAL_Driver/Src/stm32f3xx_hal_rcc_ex.c **** #endif /* STM32F301x8 || STM32F302x8 || STM32F318xx */
 745:../../Drivers/STM32F3xx_HAL_Driver/Src/stm32f3xx_hal_rcc_ex.c **** 
 746:../../Drivers/STM32F3xx_HAL_Driver/Src/stm32f3xx_hal_rcc_ex.c **** #if defined(STM32F334x8)
 747:../../Drivers/STM32F3xx_HAL_Driver/Src/stm32f3xx_hal_rcc_ex.c **** 
 748:../../Drivers/STM32F3xx_HAL_Driver/Src/stm32f3xx_hal_rcc_ex.c ****   PeriphClkInit->PeriphClockSelection |= RCC_PERIPHCLK_HRTIM1;
 749:../../Drivers/STM32F3xx_HAL_Driver/Src/stm32f3xx_hal_rcc_ex.c ****   /* Get the HRTIM1 clock configuration -----------------------------------------*/
 750:../../Drivers/STM32F3xx_HAL_Driver/Src/stm32f3xx_hal_rcc_ex.c ****   PeriphClkInit->Hrtim1ClockSelection = __HAL_RCC_GET_HRTIM1_SOURCE();
 751:../../Drivers/STM32F3xx_HAL_Driver/Src/stm32f3xx_hal_rcc_ex.c **** 
 752:../../Drivers/STM32F3xx_HAL_Driver/Src/stm32f3xx_hal_rcc_ex.c **** #endif /* STM32F334x8 */
 753:../../Drivers/STM32F3xx_HAL_Driver/Src/stm32f3xx_hal_rcc_ex.c **** 
 754:../../Drivers/STM32F3xx_HAL_Driver/Src/stm32f3xx_hal_rcc_ex.c **** #if defined(STM32F373xC) || defined(STM32F378xx)
 755:../../Drivers/STM32F3xx_HAL_Driver/Src/stm32f3xx_hal_rcc_ex.c **** 
 756:../../Drivers/STM32F3xx_HAL_Driver/Src/stm32f3xx_hal_rcc_ex.c ****   PeriphClkInit->PeriphClockSelection |= RCC_PERIPHCLK_SDADC;
 757:../../Drivers/STM32F3xx_HAL_Driver/Src/stm32f3xx_hal_rcc_ex.c ****   /* Get the SDADC clock configuration -----------------------------------------*/
 758:../../Drivers/STM32F3xx_HAL_Driver/Src/stm32f3xx_hal_rcc_ex.c ****   PeriphClkInit->SdadcClockSelection = __HAL_RCC_GET_SDADC_SOURCE();
 759:../../Drivers/STM32F3xx_HAL_Driver/Src/stm32f3xx_hal_rcc_ex.c **** 
 760:../../Drivers/STM32F3xx_HAL_Driver/Src/stm32f3xx_hal_rcc_ex.c ****   PeriphClkInit->PeriphClockSelection |= RCC_PERIPHCLK_CEC;
 761:../../Drivers/STM32F3xx_HAL_Driver/Src/stm32f3xx_hal_rcc_ex.c ****   /* Get the CEC clock configuration -----------------------------------------*/
 762:../../Drivers/STM32F3xx_HAL_Driver/Src/stm32f3xx_hal_rcc_ex.c ****   PeriphClkInit->CecClockSelection = __HAL_RCC_GET_CEC_SOURCE();
 763:../../Drivers/STM32F3xx_HAL_Driver/Src/stm32f3xx_hal_rcc_ex.c **** 
 764:../../Drivers/STM32F3xx_HAL_Driver/Src/stm32f3xx_hal_rcc_ex.c **** #endif /* STM32F373xC || STM32F378xx */
 765:../../Drivers/STM32F3xx_HAL_Driver/Src/stm32f3xx_hal_rcc_ex.c **** 
 766:../../Drivers/STM32F3xx_HAL_Driver/Src/stm32f3xx_hal_rcc_ex.c **** #if defined(STM32F302xE) || defined(STM32F303xE) || defined(STM32F398xx)
 767:../../Drivers/STM32F3xx_HAL_Driver/Src/stm32f3xx_hal_rcc_ex.c **** 
 768:../../Drivers/STM32F3xx_HAL_Driver/Src/stm32f3xx_hal_rcc_ex.c ****   PeriphClkInit->PeriphClockSelection |= RCC_PERIPHCLK_TIM2;
 769:../../Drivers/STM32F3xx_HAL_Driver/Src/stm32f3xx_hal_rcc_ex.c ****   /* Get the TIM2 clock configuration -----------------------------------------*/
 770:../../Drivers/STM32F3xx_HAL_Driver/Src/stm32f3xx_hal_rcc_ex.c ****   PeriphClkInit->Tim2ClockSelection = __HAL_RCC_GET_TIM2_SOURCE();
 771:../../Drivers/STM32F3xx_HAL_Driver/Src/stm32f3xx_hal_rcc_ex.c **** 
 772:../../Drivers/STM32F3xx_HAL_Driver/Src/stm32f3xx_hal_rcc_ex.c ****   PeriphClkInit->PeriphClockSelection |= RCC_PERIPHCLK_TIM34;
 773:../../Drivers/STM32F3xx_HAL_Driver/Src/stm32f3xx_hal_rcc_ex.c ****   /* Get the TIM3 clock configuration -----------------------------------------*/
 774:../../Drivers/STM32F3xx_HAL_Driver/Src/stm32f3xx_hal_rcc_ex.c ****   PeriphClkInit->Tim34ClockSelection = __HAL_RCC_GET_TIM34_SOURCE();
 775:../../Drivers/STM32F3xx_HAL_Driver/Src/stm32f3xx_hal_rcc_ex.c **** 
 776:../../Drivers/STM32F3xx_HAL_Driver/Src/stm32f3xx_hal_rcc_ex.c ****   PeriphClkInit->PeriphClockSelection |= RCC_PERIPHCLK_TIM15;
 777:../../Drivers/STM32F3xx_HAL_Driver/Src/stm32f3xx_hal_rcc_ex.c ****   /* Get the TIM15 clock configuration -----------------------------------------*/
 778:../../Drivers/STM32F3xx_HAL_Driver/Src/stm32f3xx_hal_rcc_ex.c ****   PeriphClkInit->Tim15ClockSelection = __HAL_RCC_GET_TIM15_SOURCE();
 779:../../Drivers/STM32F3xx_HAL_Driver/Src/stm32f3xx_hal_rcc_ex.c **** 
 780:../../Drivers/STM32F3xx_HAL_Driver/Src/stm32f3xx_hal_rcc_ex.c ****   PeriphClkInit->PeriphClockSelection |= RCC_PERIPHCLK_TIM16;
 781:../../Drivers/STM32F3xx_HAL_Driver/Src/stm32f3xx_hal_rcc_ex.c ****   /* Get the TIM16 clock configuration -----------------------------------------*/
 782:../../Drivers/STM32F3xx_HAL_Driver/Src/stm32f3xx_hal_rcc_ex.c ****   PeriphClkInit->Tim16ClockSelection = __HAL_RCC_GET_TIM16_SOURCE();
 783:../../Drivers/STM32F3xx_HAL_Driver/Src/stm32f3xx_hal_rcc_ex.c **** 
 784:../../Drivers/STM32F3xx_HAL_Driver/Src/stm32f3xx_hal_rcc_ex.c ****   PeriphClkInit->PeriphClockSelection |= RCC_PERIPHCLK_TIM17;
 785:../../Drivers/STM32F3xx_HAL_Driver/Src/stm32f3xx_hal_rcc_ex.c ****   /* Get the TIM17 clock configuration -----------------------------------------*/
 786:../../Drivers/STM32F3xx_HAL_Driver/Src/stm32f3xx_hal_rcc_ex.c ****   PeriphClkInit->Tim17ClockSelection = __HAL_RCC_GET_TIM17_SOURCE();
 787:../../Drivers/STM32F3xx_HAL_Driver/Src/stm32f3xx_hal_rcc_ex.c **** 
 788:../../Drivers/STM32F3xx_HAL_Driver/Src/stm32f3xx_hal_rcc_ex.c **** #endif /* STM32F302xE || STM32F303xE || STM32F398xx */
 789:../../Drivers/STM32F3xx_HAL_Driver/Src/stm32f3xx_hal_rcc_ex.c ****   
 790:../../Drivers/STM32F3xx_HAL_Driver/Src/stm32f3xx_hal_rcc_ex.c **** #if defined (STM32F303xE) || defined(STM32F398xx)
 791:../../Drivers/STM32F3xx_HAL_Driver/Src/stm32f3xx_hal_rcc_ex.c ****   PeriphClkInit->PeriphClockSelection |= RCC_PERIPHCLK_TIM20;
 792:../../Drivers/STM32F3xx_HAL_Driver/Src/stm32f3xx_hal_rcc_ex.c ****   /* Get the TIM20 clock configuration -----------------------------------------*/
 793:../../Drivers/STM32F3xx_HAL_Driver/Src/stm32f3xx_hal_rcc_ex.c ****   PeriphClkInit->Tim20ClockSelection = __HAL_RCC_GET_TIM20_SOURCE();
 794:../../Drivers/STM32F3xx_HAL_Driver/Src/stm32f3xx_hal_rcc_ex.c **** #endif /* STM32F303xE || STM32F398xx */
ARM GAS  /tmp/ccIre3F4.s 			page 37


 795:../../Drivers/STM32F3xx_HAL_Driver/Src/stm32f3xx_hal_rcc_ex.c **** }
 704              		.loc 1 795 0
 705 00f2 0C37     		adds	r7, r7, #12
 706              	.LCFI8:
 707              		.cfi_def_cfa_offset 4
 708 00f4 BD46     		mov	sp, r7
 709              	.LCFI9:
 710              		.cfi_def_cfa_register 13
 711              		@ sp needed
 712 00f6 5DF8047B 		ldr	r7, [sp], #4
 713              	.LCFI10:
 714              		.cfi_restore 7
 715              		.cfi_def_cfa_offset 0
 716 00fa 7047     		bx	lr
 717              	.L40:
 718              		.align	2
 719              	.L39:
 720 00fc 21000100 		.word	65569
 721 0100 00100240 		.word	1073876992
 722              		.cfi_endproc
 723              	.LFE124:
 725              		.section	.rodata
 726              		.align	2
 727              	.LC0:
 728 0000 0100     		.short	1
 729 0002 0200     		.short	2
 730 0004 0400     		.short	4
 731 0006 0600     		.short	6
 732 0008 0800     		.short	8
 733 000a 0A00     		.short	10
 734 000c 0C00     		.short	12
 735 000e 1000     		.short	16
 736 0010 2000     		.short	32
 737 0012 4000     		.short	64
 738 0014 8000     		.short	128
 739 0016 0001     		.short	256
 740              		.section	.text.HAL_RCCEx_GetPeriphCLKFreq,"ax",%progbits
 741              		.align	2
 742              		.global	HAL_RCCEx_GetPeriphCLKFreq
 743              		.thumb
 744              		.thumb_func
 746              	HAL_RCCEx_GetPeriphCLKFreq:
 747              	.LFB125:
 796:../../Drivers/STM32F3xx_HAL_Driver/Src/stm32f3xx_hal_rcc_ex.c **** 
 797:../../Drivers/STM32F3xx_HAL_Driver/Src/stm32f3xx_hal_rcc_ex.c **** /**
 798:../../Drivers/STM32F3xx_HAL_Driver/Src/stm32f3xx_hal_rcc_ex.c ****   * @brief  Returns the peripheral clock frequency
 799:../../Drivers/STM32F3xx_HAL_Driver/Src/stm32f3xx_hal_rcc_ex.c ****   * @note   Returns 0 if peripheral clock is unknown or 0xDEADDEAD if not applicable.
 800:../../Drivers/STM32F3xx_HAL_Driver/Src/stm32f3xx_hal_rcc_ex.c ****   * @param  PeriphClk Peripheral clock identifier
 801:../../Drivers/STM32F3xx_HAL_Driver/Src/stm32f3xx_hal_rcc_ex.c ****   *         This parameter can be one of the following values:
 802:../../Drivers/STM32F3xx_HAL_Driver/Src/stm32f3xx_hal_rcc_ex.c ****   *            @arg @ref RCC_PERIPHCLK_RTC     RTC peripheral clock
 803:../../Drivers/STM32F3xx_HAL_Driver/Src/stm32f3xx_hal_rcc_ex.c ****   *            @arg @ref RCC_PERIPHCLK_USART1  USART1 peripheral clock
 804:../../Drivers/STM32F3xx_HAL_Driver/Src/stm32f3xx_hal_rcc_ex.c ****   *            @arg @ref RCC_PERIPHCLK_I2C1    I2C1 peripheral clock
 805:../../Drivers/STM32F3xx_HAL_Driver/Src/stm32f3xx_hal_rcc_ex.c ****   @if STM32F301x8
 806:../../Drivers/STM32F3xx_HAL_Driver/Src/stm32f3xx_hal_rcc_ex.c ****   *            @arg @ref RCC_PERIPHCLK_I2C2    I2C2 peripheral clock
 807:../../Drivers/STM32F3xx_HAL_Driver/Src/stm32f3xx_hal_rcc_ex.c ****   *            @arg @ref RCC_PERIPHCLK_I2C3    I2C3 peripheral clock
 808:../../Drivers/STM32F3xx_HAL_Driver/Src/stm32f3xx_hal_rcc_ex.c ****   *            @arg @ref RCC_PERIPHCLK_I2S     I2S peripheral clock
 809:../../Drivers/STM32F3xx_HAL_Driver/Src/stm32f3xx_hal_rcc_ex.c ****   *            @arg @ref RCC_PERIPHCLK_ADC1    ADC1 peripheral clock
ARM GAS  /tmp/ccIre3F4.s 			page 38


 810:../../Drivers/STM32F3xx_HAL_Driver/Src/stm32f3xx_hal_rcc_ex.c ****   *            @arg @ref RCC_PERIPHCLK_TIM1    TIM1 peripheral clock
 811:../../Drivers/STM32F3xx_HAL_Driver/Src/stm32f3xx_hal_rcc_ex.c ****   *            @arg @ref RCC_PERIPHCLK_TIM15   TIM15 peripheral clock
 812:../../Drivers/STM32F3xx_HAL_Driver/Src/stm32f3xx_hal_rcc_ex.c ****   *            @arg @ref RCC_PERIPHCLK_TIM16   TIM16 peripheral clock
 813:../../Drivers/STM32F3xx_HAL_Driver/Src/stm32f3xx_hal_rcc_ex.c ****   *            @arg @ref RCC_PERIPHCLK_TIM17   TIM17 peripheral clock
 814:../../Drivers/STM32F3xx_HAL_Driver/Src/stm32f3xx_hal_rcc_ex.c ****   @endif
 815:../../Drivers/STM32F3xx_HAL_Driver/Src/stm32f3xx_hal_rcc_ex.c ****   @if STM32F302x8
 816:../../Drivers/STM32F3xx_HAL_Driver/Src/stm32f3xx_hal_rcc_ex.c ****   *            @arg @ref RCC_PERIPHCLK_I2C2    I2C2 peripheral clock
 817:../../Drivers/STM32F3xx_HAL_Driver/Src/stm32f3xx_hal_rcc_ex.c ****   *            @arg @ref RCC_PERIPHCLK_I2C3    I2C3 peripheral clock
 818:../../Drivers/STM32F3xx_HAL_Driver/Src/stm32f3xx_hal_rcc_ex.c ****   *            @arg @ref RCC_PERIPHCLK_I2S     I2S peripheral clock
 819:../../Drivers/STM32F3xx_HAL_Driver/Src/stm32f3xx_hal_rcc_ex.c ****   *            @arg @ref RCC_PERIPHCLK_USB     USB peripheral clock
 820:../../Drivers/STM32F3xx_HAL_Driver/Src/stm32f3xx_hal_rcc_ex.c ****   *            @arg @ref RCC_PERIPHCLK_ADC1    ADC1 peripheral clock
 821:../../Drivers/STM32F3xx_HAL_Driver/Src/stm32f3xx_hal_rcc_ex.c ****   *            @arg @ref RCC_PERIPHCLK_TIM1    TIM1 peripheral clock
 822:../../Drivers/STM32F3xx_HAL_Driver/Src/stm32f3xx_hal_rcc_ex.c ****   *            @arg @ref RCC_PERIPHCLK_TIM15   TIM15 peripheral clock
 823:../../Drivers/STM32F3xx_HAL_Driver/Src/stm32f3xx_hal_rcc_ex.c ****   *            @arg @ref RCC_PERIPHCLK_TIM16   TIM16 peripheral clock
 824:../../Drivers/STM32F3xx_HAL_Driver/Src/stm32f3xx_hal_rcc_ex.c ****   *            @arg @ref RCC_PERIPHCLK_TIM17   TIM17 peripheral clock
 825:../../Drivers/STM32F3xx_HAL_Driver/Src/stm32f3xx_hal_rcc_ex.c ****   @endif
 826:../../Drivers/STM32F3xx_HAL_Driver/Src/stm32f3xx_hal_rcc_ex.c ****   @if STM32F302xC
 827:../../Drivers/STM32F3xx_HAL_Driver/Src/stm32f3xx_hal_rcc_ex.c ****   *            @arg @ref RCC_PERIPHCLK_USART2  USART2 peripheral clock
 828:../../Drivers/STM32F3xx_HAL_Driver/Src/stm32f3xx_hal_rcc_ex.c ****   *            @arg @ref RCC_PERIPHCLK_USART3  USART3 peripheral clock
 829:../../Drivers/STM32F3xx_HAL_Driver/Src/stm32f3xx_hal_rcc_ex.c ****   *            @arg @ref RCC_PERIPHCLK_UART4   UART4 peripheral clock
 830:../../Drivers/STM32F3xx_HAL_Driver/Src/stm32f3xx_hal_rcc_ex.c ****   *            @arg @ref RCC_PERIPHCLK_UART5   UART5 peripheral clock
 831:../../Drivers/STM32F3xx_HAL_Driver/Src/stm32f3xx_hal_rcc_ex.c ****   *            @arg @ref RCC_PERIPHCLK_I2C2    I2C2 peripheral clock
 832:../../Drivers/STM32F3xx_HAL_Driver/Src/stm32f3xx_hal_rcc_ex.c ****   *            @arg @ref RCC_PERIPHCLK_I2S     I2S peripheral clock
 833:../../Drivers/STM32F3xx_HAL_Driver/Src/stm32f3xx_hal_rcc_ex.c ****   *            @arg @ref RCC_PERIPHCLK_USB     USB peripheral clock
 834:../../Drivers/STM32F3xx_HAL_Driver/Src/stm32f3xx_hal_rcc_ex.c ****   *            @arg @ref RCC_PERIPHCLK_ADC12   ADC12 peripheral clock
 835:../../Drivers/STM32F3xx_HAL_Driver/Src/stm32f3xx_hal_rcc_ex.c ****   *            @arg @ref RCC_PERIPHCLK_TIM1    TIM1 peripheral clock
 836:../../Drivers/STM32F3xx_HAL_Driver/Src/stm32f3xx_hal_rcc_ex.c ****   @endif
 837:../../Drivers/STM32F3xx_HAL_Driver/Src/stm32f3xx_hal_rcc_ex.c ****   @if STM32F302xE
 838:../../Drivers/STM32F3xx_HAL_Driver/Src/stm32f3xx_hal_rcc_ex.c ****   *            @arg @ref RCC_PERIPHCLK_USART2  USART2 peripheral clock
 839:../../Drivers/STM32F3xx_HAL_Driver/Src/stm32f3xx_hal_rcc_ex.c ****   *            @arg @ref RCC_PERIPHCLK_USART3  USART3 peripheral clock
 840:../../Drivers/STM32F3xx_HAL_Driver/Src/stm32f3xx_hal_rcc_ex.c ****   *            @arg @ref RCC_PERIPHCLK_UART4   UART4 peripheral clock
 841:../../Drivers/STM32F3xx_HAL_Driver/Src/stm32f3xx_hal_rcc_ex.c ****   *            @arg @ref RCC_PERIPHCLK_UART5   UART5 peripheral clock
 842:../../Drivers/STM32F3xx_HAL_Driver/Src/stm32f3xx_hal_rcc_ex.c ****   *            @arg @ref RCC_PERIPHCLK_I2C2    I2C2 peripheral clock
 843:../../Drivers/STM32F3xx_HAL_Driver/Src/stm32f3xx_hal_rcc_ex.c ****   *            @arg @ref RCC_PERIPHCLK_I2C3    I2C3 peripheral clock
 844:../../Drivers/STM32F3xx_HAL_Driver/Src/stm32f3xx_hal_rcc_ex.c ****   *            @arg @ref RCC_PERIPHCLK_I2S     I2S peripheral clock
 845:../../Drivers/STM32F3xx_HAL_Driver/Src/stm32f3xx_hal_rcc_ex.c ****   *            @arg @ref RCC_PERIPHCLK_USB     USB peripheral clock
 846:../../Drivers/STM32F3xx_HAL_Driver/Src/stm32f3xx_hal_rcc_ex.c ****   *            @arg @ref RCC_PERIPHCLK_ADC12   ADC12 peripheral clock
 847:../../Drivers/STM32F3xx_HAL_Driver/Src/stm32f3xx_hal_rcc_ex.c ****   *            @arg @ref RCC_PERIPHCLK_TIM1    TIM1 peripheral clock
 848:../../Drivers/STM32F3xx_HAL_Driver/Src/stm32f3xx_hal_rcc_ex.c ****   *            @arg @ref RCC_PERIPHCLK_TIM2    TIM2 peripheral clock
 849:../../Drivers/STM32F3xx_HAL_Driver/Src/stm32f3xx_hal_rcc_ex.c ****   *            @arg @ref RCC_PERIPHCLK_TIM15   TIM15 peripheral clock
 850:../../Drivers/STM32F3xx_HAL_Driver/Src/stm32f3xx_hal_rcc_ex.c ****   *            @arg @ref RCC_PERIPHCLK_TIM16   TIM16 peripheral clock
 851:../../Drivers/STM32F3xx_HAL_Driver/Src/stm32f3xx_hal_rcc_ex.c ****   *            @arg @ref RCC_PERIPHCLK_TIM17   TIM17 peripheral clock
 852:../../Drivers/STM32F3xx_HAL_Driver/Src/stm32f3xx_hal_rcc_ex.c ****   *            @arg @ref RCC_PERIPHCLK_TIM34   TIM34 peripheral clock
 853:../../Drivers/STM32F3xx_HAL_Driver/Src/stm32f3xx_hal_rcc_ex.c ****   @endif
 854:../../Drivers/STM32F3xx_HAL_Driver/Src/stm32f3xx_hal_rcc_ex.c ****   @if STM32F303x8
 855:../../Drivers/STM32F3xx_HAL_Driver/Src/stm32f3xx_hal_rcc_ex.c ****   *            @arg @ref RCC_PERIPHCLK_ADC12   ADC12 peripheral clock
 856:../../Drivers/STM32F3xx_HAL_Driver/Src/stm32f3xx_hal_rcc_ex.c ****   *            @arg @ref RCC_PERIPHCLK_TIM1    TIM1 peripheral clock
 857:../../Drivers/STM32F3xx_HAL_Driver/Src/stm32f3xx_hal_rcc_ex.c ****   @endif
 858:../../Drivers/STM32F3xx_HAL_Driver/Src/stm32f3xx_hal_rcc_ex.c ****   @if STM32F303xC
 859:../../Drivers/STM32F3xx_HAL_Driver/Src/stm32f3xx_hal_rcc_ex.c ****   *            @arg @ref RCC_PERIPHCLK_USART2  USART2 peripheral clock
 860:../../Drivers/STM32F3xx_HAL_Driver/Src/stm32f3xx_hal_rcc_ex.c ****   *            @arg @ref RCC_PERIPHCLK_USART3  USART3 peripheral clock
 861:../../Drivers/STM32F3xx_HAL_Driver/Src/stm32f3xx_hal_rcc_ex.c ****   *            @arg @ref RCC_PERIPHCLK_UART4   UART4 peripheral clock
 862:../../Drivers/STM32F3xx_HAL_Driver/Src/stm32f3xx_hal_rcc_ex.c ****   *            @arg @ref RCC_PERIPHCLK_UART5   UART5 peripheral clock
 863:../../Drivers/STM32F3xx_HAL_Driver/Src/stm32f3xx_hal_rcc_ex.c ****   *            @arg @ref RCC_PERIPHCLK_I2C2    I2C2 peripheral clock
 864:../../Drivers/STM32F3xx_HAL_Driver/Src/stm32f3xx_hal_rcc_ex.c ****   *            @arg @ref RCC_PERIPHCLK_I2S     I2S peripheral clock
 865:../../Drivers/STM32F3xx_HAL_Driver/Src/stm32f3xx_hal_rcc_ex.c ****   *            @arg @ref RCC_PERIPHCLK_USB     USB peripheral clock
 866:../../Drivers/STM32F3xx_HAL_Driver/Src/stm32f3xx_hal_rcc_ex.c ****   *            @arg @ref RCC_PERIPHCLK_ADC12   ADC12 peripheral clock
ARM GAS  /tmp/ccIre3F4.s 			page 39


 867:../../Drivers/STM32F3xx_HAL_Driver/Src/stm32f3xx_hal_rcc_ex.c ****   *            @arg @ref RCC_PERIPHCLK_ADC34   ADC34 peripheral clock
 868:../../Drivers/STM32F3xx_HAL_Driver/Src/stm32f3xx_hal_rcc_ex.c ****   *            @arg @ref RCC_PERIPHCLK_TIM1    TIM1 peripheral clock
 869:../../Drivers/STM32F3xx_HAL_Driver/Src/stm32f3xx_hal_rcc_ex.c ****   *            @arg @ref RCC_PERIPHCLK_TIM8    TIM8 peripheral clock
 870:../../Drivers/STM32F3xx_HAL_Driver/Src/stm32f3xx_hal_rcc_ex.c ****   @endif
 871:../../Drivers/STM32F3xx_HAL_Driver/Src/stm32f3xx_hal_rcc_ex.c ****   @if STM32F303xE
 872:../../Drivers/STM32F3xx_HAL_Driver/Src/stm32f3xx_hal_rcc_ex.c ****   *            @arg @ref RCC_PERIPHCLK_USART2  USART2 peripheral clock
 873:../../Drivers/STM32F3xx_HAL_Driver/Src/stm32f3xx_hal_rcc_ex.c ****   *            @arg @ref RCC_PERIPHCLK_USART3  USART3 peripheral clock
 874:../../Drivers/STM32F3xx_HAL_Driver/Src/stm32f3xx_hal_rcc_ex.c ****   *            @arg @ref RCC_PERIPHCLK_UART4   UART4 peripheral clock
 875:../../Drivers/STM32F3xx_HAL_Driver/Src/stm32f3xx_hal_rcc_ex.c ****   *            @arg @ref RCC_PERIPHCLK_UART5   UART5 peripheral clock
 876:../../Drivers/STM32F3xx_HAL_Driver/Src/stm32f3xx_hal_rcc_ex.c ****   *            @arg @ref RCC_PERIPHCLK_I2C2    I2C2 peripheral clock
 877:../../Drivers/STM32F3xx_HAL_Driver/Src/stm32f3xx_hal_rcc_ex.c ****   *            @arg @ref RCC_PERIPHCLK_I2C3    I2C3 peripheral clock
 878:../../Drivers/STM32F3xx_HAL_Driver/Src/stm32f3xx_hal_rcc_ex.c ****   *            @arg @ref RCC_PERIPHCLK_I2S     I2S peripheral clock
 879:../../Drivers/STM32F3xx_HAL_Driver/Src/stm32f3xx_hal_rcc_ex.c ****   *            @arg @ref RCC_PERIPHCLK_USB     USB peripheral clock
 880:../../Drivers/STM32F3xx_HAL_Driver/Src/stm32f3xx_hal_rcc_ex.c ****   *            @arg @ref RCC_PERIPHCLK_ADC12   ADC12 peripheral clock
 881:../../Drivers/STM32F3xx_HAL_Driver/Src/stm32f3xx_hal_rcc_ex.c ****   *            @arg @ref RCC_PERIPHCLK_ADC34   ADC34 peripheral clock
 882:../../Drivers/STM32F3xx_HAL_Driver/Src/stm32f3xx_hal_rcc_ex.c ****   *            @arg @ref RCC_PERIPHCLK_TIM1    TIM1 peripheral clock
 883:../../Drivers/STM32F3xx_HAL_Driver/Src/stm32f3xx_hal_rcc_ex.c ****   *            @arg @ref RCC_PERIPHCLK_TIM2    TIM2 peripheral clock
 884:../../Drivers/STM32F3xx_HAL_Driver/Src/stm32f3xx_hal_rcc_ex.c ****   *            @arg @ref RCC_PERIPHCLK_TIM8    TIM8 peripheral clock
 885:../../Drivers/STM32F3xx_HAL_Driver/Src/stm32f3xx_hal_rcc_ex.c ****   *            @arg @ref RCC_PERIPHCLK_TIM15   TIM15 peripheral clock
 886:../../Drivers/STM32F3xx_HAL_Driver/Src/stm32f3xx_hal_rcc_ex.c ****   *            @arg @ref RCC_PERIPHCLK_TIM16   TIM16 peripheral clock
 887:../../Drivers/STM32F3xx_HAL_Driver/Src/stm32f3xx_hal_rcc_ex.c ****   *            @arg @ref RCC_PERIPHCLK_TIM17   TIM17 peripheral clock
 888:../../Drivers/STM32F3xx_HAL_Driver/Src/stm32f3xx_hal_rcc_ex.c ****   *            @arg @ref RCC_PERIPHCLK_TIM20   TIM20 peripheral clock
 889:../../Drivers/STM32F3xx_HAL_Driver/Src/stm32f3xx_hal_rcc_ex.c ****   *            @arg @ref RCC_PERIPHCLK_TIM34   TIM34 peripheral clock
 890:../../Drivers/STM32F3xx_HAL_Driver/Src/stm32f3xx_hal_rcc_ex.c ****   @endif
 891:../../Drivers/STM32F3xx_HAL_Driver/Src/stm32f3xx_hal_rcc_ex.c ****   @if STM32F318xx
 892:../../Drivers/STM32F3xx_HAL_Driver/Src/stm32f3xx_hal_rcc_ex.c ****   *            @arg @ref RCC_PERIPHCLK_I2C2    I2C2 peripheral clock
 893:../../Drivers/STM32F3xx_HAL_Driver/Src/stm32f3xx_hal_rcc_ex.c ****   *            @arg @ref RCC_PERIPHCLK_I2C3    I2C3 peripheral clock
 894:../../Drivers/STM32F3xx_HAL_Driver/Src/stm32f3xx_hal_rcc_ex.c ****   *            @arg @ref RCC_PERIPHCLK_I2S     I2S peripheral clock
 895:../../Drivers/STM32F3xx_HAL_Driver/Src/stm32f3xx_hal_rcc_ex.c ****   *            @arg @ref RCC_PERIPHCLK_ADC1    ADC1 peripheral clock
 896:../../Drivers/STM32F3xx_HAL_Driver/Src/stm32f3xx_hal_rcc_ex.c ****   *            @arg @ref RCC_PERIPHCLK_TIM1    TIM1 peripheral clock
 897:../../Drivers/STM32F3xx_HAL_Driver/Src/stm32f3xx_hal_rcc_ex.c ****   *            @arg @ref RCC_PERIPHCLK_TIM15   TIM15 peripheral clock
 898:../../Drivers/STM32F3xx_HAL_Driver/Src/stm32f3xx_hal_rcc_ex.c ****   *            @arg @ref RCC_PERIPHCLK_TIM16   TIM16 peripheral clock
 899:../../Drivers/STM32F3xx_HAL_Driver/Src/stm32f3xx_hal_rcc_ex.c ****   *            @arg @ref RCC_PERIPHCLK_TIM17   TIM17 peripheral clock
 900:../../Drivers/STM32F3xx_HAL_Driver/Src/stm32f3xx_hal_rcc_ex.c ****   @endif
 901:../../Drivers/STM32F3xx_HAL_Driver/Src/stm32f3xx_hal_rcc_ex.c ****   @if STM32F328xx
 902:../../Drivers/STM32F3xx_HAL_Driver/Src/stm32f3xx_hal_rcc_ex.c ****   *            @arg @ref RCC_PERIPHCLK_I2C2    I2C2 peripheral clock
 903:../../Drivers/STM32F3xx_HAL_Driver/Src/stm32f3xx_hal_rcc_ex.c ****   *            @arg @ref RCC_PERIPHCLK_ADC12   ADC12 peripheral clock
 904:../../Drivers/STM32F3xx_HAL_Driver/Src/stm32f3xx_hal_rcc_ex.c ****   *            @arg @ref RCC_PERIPHCLK_TIM1    TIM1 peripheral clock
 905:../../Drivers/STM32F3xx_HAL_Driver/Src/stm32f3xx_hal_rcc_ex.c ****   @endif
 906:../../Drivers/STM32F3xx_HAL_Driver/Src/stm32f3xx_hal_rcc_ex.c ****   @if STM32F334x8
 907:../../Drivers/STM32F3xx_HAL_Driver/Src/stm32f3xx_hal_rcc_ex.c ****   *            @arg @ref RCC_PERIPHCLK_ADC12   ADC12 peripheral clock
 908:../../Drivers/STM32F3xx_HAL_Driver/Src/stm32f3xx_hal_rcc_ex.c ****   *            @arg @ref RCC_PERIPHCLK_TIM1    TIM1 peripheral clock
 909:../../Drivers/STM32F3xx_HAL_Driver/Src/stm32f3xx_hal_rcc_ex.c ****   *            @arg @ref RCC_PERIPHCLK_HRTIM1  HRTIM1 peripheral clock
 910:../../Drivers/STM32F3xx_HAL_Driver/Src/stm32f3xx_hal_rcc_ex.c ****   @endif
 911:../../Drivers/STM32F3xx_HAL_Driver/Src/stm32f3xx_hal_rcc_ex.c ****   @if STM32F358xx
 912:../../Drivers/STM32F3xx_HAL_Driver/Src/stm32f3xx_hal_rcc_ex.c ****   *            @arg @ref RCC_PERIPHCLK_USART2  USART2 peripheral clock
 913:../../Drivers/STM32F3xx_HAL_Driver/Src/stm32f3xx_hal_rcc_ex.c ****   *            @arg @ref RCC_PERIPHCLK_USART3  USART3 peripheral clock
 914:../../Drivers/STM32F3xx_HAL_Driver/Src/stm32f3xx_hal_rcc_ex.c ****   *            @arg @ref RCC_PERIPHCLK_UART4   UART4 peripheral clock
 915:../../Drivers/STM32F3xx_HAL_Driver/Src/stm32f3xx_hal_rcc_ex.c ****   *            @arg @ref RCC_PERIPHCLK_UART5   UART5 peripheral clock
 916:../../Drivers/STM32F3xx_HAL_Driver/Src/stm32f3xx_hal_rcc_ex.c ****   *            @arg @ref RCC_PERIPHCLK_I2S     I2S peripheral clock
 917:../../Drivers/STM32F3xx_HAL_Driver/Src/stm32f3xx_hal_rcc_ex.c ****   *            @arg @ref RCC_PERIPHCLK_ADC12   ADC12 peripheral clock
 918:../../Drivers/STM32F3xx_HAL_Driver/Src/stm32f3xx_hal_rcc_ex.c ****   *            @arg @ref RCC_PERIPHCLK_ADC34   ADC34 peripheral clock
 919:../../Drivers/STM32F3xx_HAL_Driver/Src/stm32f3xx_hal_rcc_ex.c ****   *            @arg @ref RCC_PERIPHCLK_TIM1    TIM1 peripheral clock
 920:../../Drivers/STM32F3xx_HAL_Driver/Src/stm32f3xx_hal_rcc_ex.c ****   *            @arg @ref RCC_PERIPHCLK_TIM8    TIM8 peripheral clock
 921:../../Drivers/STM32F3xx_HAL_Driver/Src/stm32f3xx_hal_rcc_ex.c ****   @endif
 922:../../Drivers/STM32F3xx_HAL_Driver/Src/stm32f3xx_hal_rcc_ex.c ****   @if STM32F373xC
 923:../../Drivers/STM32F3xx_HAL_Driver/Src/stm32f3xx_hal_rcc_ex.c ****   *            @arg @ref RCC_PERIPHCLK_USART2  USART2 peripheral clock
ARM GAS  /tmp/ccIre3F4.s 			page 40


 924:../../Drivers/STM32F3xx_HAL_Driver/Src/stm32f3xx_hal_rcc_ex.c ****   *            @arg @ref RCC_PERIPHCLK_USART3  USART3 peripheral clock
 925:../../Drivers/STM32F3xx_HAL_Driver/Src/stm32f3xx_hal_rcc_ex.c ****   *            @arg @ref RCC_PERIPHCLK_I2C2    I2C2 peripheral clock
 926:../../Drivers/STM32F3xx_HAL_Driver/Src/stm32f3xx_hal_rcc_ex.c ****   *            @arg @ref RCC_PERIPHCLK_USB     USB peripheral clock
 927:../../Drivers/STM32F3xx_HAL_Driver/Src/stm32f3xx_hal_rcc_ex.c ****   *            @arg @ref RCC_PERIPHCLK_ADC1    ADC1 peripheral clock
 928:../../Drivers/STM32F3xx_HAL_Driver/Src/stm32f3xx_hal_rcc_ex.c ****   *            @arg @ref RCC_PERIPHCLK_SDADC   SDADC peripheral clock
 929:../../Drivers/STM32F3xx_HAL_Driver/Src/stm32f3xx_hal_rcc_ex.c ****   *            @arg @ref RCC_PERIPHCLK_CEC     CEC peripheral clock
 930:../../Drivers/STM32F3xx_HAL_Driver/Src/stm32f3xx_hal_rcc_ex.c ****   @endif
 931:../../Drivers/STM32F3xx_HAL_Driver/Src/stm32f3xx_hal_rcc_ex.c ****   @if STM32F378xx
 932:../../Drivers/STM32F3xx_HAL_Driver/Src/stm32f3xx_hal_rcc_ex.c ****   *            @arg @ref RCC_PERIPHCLK_USART2  USART2 peripheral clock
 933:../../Drivers/STM32F3xx_HAL_Driver/Src/stm32f3xx_hal_rcc_ex.c ****   *            @arg @ref RCC_PERIPHCLK_USART3  USART3 peripheral clock
 934:../../Drivers/STM32F3xx_HAL_Driver/Src/stm32f3xx_hal_rcc_ex.c ****   *            @arg @ref RCC_PERIPHCLK_I2C2    I2C2 peripheral clock
 935:../../Drivers/STM32F3xx_HAL_Driver/Src/stm32f3xx_hal_rcc_ex.c ****   *            @arg @ref RCC_PERIPHCLK_ADC1    ADC1 peripheral clock
 936:../../Drivers/STM32F3xx_HAL_Driver/Src/stm32f3xx_hal_rcc_ex.c ****   *            @arg @ref RCC_PERIPHCLK_SDADC   SDADC peripheral clock
 937:../../Drivers/STM32F3xx_HAL_Driver/Src/stm32f3xx_hal_rcc_ex.c ****   *            @arg @ref RCC_PERIPHCLK_CEC     CEC peripheral clock
 938:../../Drivers/STM32F3xx_HAL_Driver/Src/stm32f3xx_hal_rcc_ex.c ****   @endif
 939:../../Drivers/STM32F3xx_HAL_Driver/Src/stm32f3xx_hal_rcc_ex.c ****   @if STM32F398xx
 940:../../Drivers/STM32F3xx_HAL_Driver/Src/stm32f3xx_hal_rcc_ex.c ****   *            @arg @ref RCC_PERIPHCLK_USART2  USART2 peripheral clock
 941:../../Drivers/STM32F3xx_HAL_Driver/Src/stm32f3xx_hal_rcc_ex.c ****   *            @arg @ref RCC_PERIPHCLK_USART3  USART3 peripheral clock
 942:../../Drivers/STM32F3xx_HAL_Driver/Src/stm32f3xx_hal_rcc_ex.c ****   *            @arg @ref RCC_PERIPHCLK_UART4   UART4 peripheral clock
 943:../../Drivers/STM32F3xx_HAL_Driver/Src/stm32f3xx_hal_rcc_ex.c ****   *            @arg @ref RCC_PERIPHCLK_UART5   UART5 peripheral clock
 944:../../Drivers/STM32F3xx_HAL_Driver/Src/stm32f3xx_hal_rcc_ex.c ****   *            @arg @ref RCC_PERIPHCLK_I2C2    I2C2 peripheral clock
 945:../../Drivers/STM32F3xx_HAL_Driver/Src/stm32f3xx_hal_rcc_ex.c ****   *            @arg @ref RCC_PERIPHCLK_I2C3    I2C3 peripheral clock
 946:../../Drivers/STM32F3xx_HAL_Driver/Src/stm32f3xx_hal_rcc_ex.c ****   *            @arg @ref RCC_PERIPHCLK_I2S     I2S peripheral clock
 947:../../Drivers/STM32F3xx_HAL_Driver/Src/stm32f3xx_hal_rcc_ex.c ****   *            @arg @ref RCC_PERIPHCLK_ADC12   ADC12 peripheral clock
 948:../../Drivers/STM32F3xx_HAL_Driver/Src/stm32f3xx_hal_rcc_ex.c ****   *            @arg @ref RCC_PERIPHCLK_ADC34   ADC34 peripheral clock
 949:../../Drivers/STM32F3xx_HAL_Driver/Src/stm32f3xx_hal_rcc_ex.c ****   *            @arg @ref RCC_PERIPHCLK_TIM1    TIM1 peripheral clock
 950:../../Drivers/STM32F3xx_HAL_Driver/Src/stm32f3xx_hal_rcc_ex.c ****   *            @arg @ref RCC_PERIPHCLK_TIM2    TIM2 peripheral clock
 951:../../Drivers/STM32F3xx_HAL_Driver/Src/stm32f3xx_hal_rcc_ex.c ****   *            @arg @ref RCC_PERIPHCLK_TIM8    TIM8 peripheral clock
 952:../../Drivers/STM32F3xx_HAL_Driver/Src/stm32f3xx_hal_rcc_ex.c ****   *            @arg @ref RCC_PERIPHCLK_TIM15   TIM15 peripheral clock
 953:../../Drivers/STM32F3xx_HAL_Driver/Src/stm32f3xx_hal_rcc_ex.c ****   *            @arg @ref RCC_PERIPHCLK_TIM16   TIM16 peripheral clock
 954:../../Drivers/STM32F3xx_HAL_Driver/Src/stm32f3xx_hal_rcc_ex.c ****   *            @arg @ref RCC_PERIPHCLK_TIM17   TIM17 peripheral clock
 955:../../Drivers/STM32F3xx_HAL_Driver/Src/stm32f3xx_hal_rcc_ex.c ****   *            @arg @ref RCC_PERIPHCLK_TIM20   TIM20 peripheral clock
 956:../../Drivers/STM32F3xx_HAL_Driver/Src/stm32f3xx_hal_rcc_ex.c ****   *            @arg @ref RCC_PERIPHCLK_TIM34   TIM34 peripheral clock
 957:../../Drivers/STM32F3xx_HAL_Driver/Src/stm32f3xx_hal_rcc_ex.c ****   @endif
 958:../../Drivers/STM32F3xx_HAL_Driver/Src/stm32f3xx_hal_rcc_ex.c ****   * @retval Frequency in Hz (0: means that no available frequency for the peripheral)
 959:../../Drivers/STM32F3xx_HAL_Driver/Src/stm32f3xx_hal_rcc_ex.c ****   */
 960:../../Drivers/STM32F3xx_HAL_Driver/Src/stm32f3xx_hal_rcc_ex.c **** uint32_t HAL_RCCEx_GetPeriphCLKFreq(uint32_t PeriphClk)
 961:../../Drivers/STM32F3xx_HAL_Driver/Src/stm32f3xx_hal_rcc_ex.c **** {
 748              		.loc 1 961 0
 749              		.cfi_startproc
 750              		@ args = 0, pretend = 0, frame = 48
 751              		@ frame_needed = 1, uses_anonymous_args = 0
 752 0000 B0B5     		push	{r4, r5, r7, lr}
 753              	.LCFI11:
 754              		.cfi_def_cfa_offset 16
 755              		.cfi_offset 4, -16
 756              		.cfi_offset 5, -12
 757              		.cfi_offset 7, -8
 758              		.cfi_offset 14, -4
 759 0002 8CB0     		sub	sp, sp, #48
 760              	.LCFI12:
 761              		.cfi_def_cfa_offset 64
 762 0004 00AF     		add	r7, sp, #0
 763              	.LCFI13:
 764              		.cfi_def_cfa_register 7
 765 0006 7860     		str	r0, [r7, #4]
 962:../../Drivers/STM32F3xx_HAL_Driver/Src/stm32f3xx_hal_rcc_ex.c ****   uint32_t frequency = 0U;
ARM GAS  /tmp/ccIre3F4.s 			page 41


 766              		.loc 1 962 0
 767 0008 0023     		movs	r3, #0
 768 000a FB62     		str	r3, [r7, #44]
 963:../../Drivers/STM32F3xx_HAL_Driver/Src/stm32f3xx_hal_rcc_ex.c ****   uint32_t srcclk = 0U;
 769              		.loc 1 963 0
 770 000c 0023     		movs	r3, #0
 771 000e BB62     		str	r3, [r7, #40]
 964:../../Drivers/STM32F3xx_HAL_Driver/Src/stm32f3xx_hal_rcc_ex.c **** #if defined(RCC_CFGR2_ADC1PRES) || defined(RCC_CFGR2_ADCPRE12) || defined(RCC_CFGR2_ADCPRE34)
 965:../../Drivers/STM32F3xx_HAL_Driver/Src/stm32f3xx_hal_rcc_ex.c ****   uint16_t adc_pll_prediv_table[12] = { 1U,  2U,  4U,  6U, 8U, 10U, 12U, 16U, 32U, 64U, 128U, 256U}
 772              		.loc 1 965 0
 773 0010 9D4B     		ldr	r3, .L102
 774 0012 07F10804 		add	r4, r7, #8
 775 0016 1D46     		mov	r5, r3
 776 0018 2868     		ldr	r0, [r5]	@ unaligned
 777 001a 6968     		ldr	r1, [r5, #4]	@ unaligned
 778 001c AA68     		ldr	r2, [r5, #8]	@ unaligned
 779 001e EB68     		ldr	r3, [r5, #12]	@ unaligned
 780 0020 0FC4     		stmia	r4!, {r0, r1, r2, r3}
 781 0022 2869     		ldr	r0, [r5, #16]	@ unaligned
 782 0024 6969     		ldr	r1, [r5, #20]	@ unaligned
 783 0026 03C4     		stmia	r4!, {r0, r1}
 966:../../Drivers/STM32F3xx_HAL_Driver/Src/stm32f3xx_hal_rcc_ex.c **** #endif /* RCC_CFGR2_ADC1PRES || RCC_CFGR2_ADCPRE12 || RCC_CFGR2_ADCPRE34 */
 967:../../Drivers/STM32F3xx_HAL_Driver/Src/stm32f3xx_hal_rcc_ex.c **** #if defined(RCC_CFGR_SDPRE)
 968:../../Drivers/STM32F3xx_HAL_Driver/Src/stm32f3xx_hal_rcc_ex.c ****   uint8_t sdadc_prescaler_table[16] = { 2U,  4U,  6U, 8U, 10U, 12U, 14U, 16U, 20U, 24U, 28U, 32U, 3
 969:../../Drivers/STM32F3xx_HAL_Driver/Src/stm32f3xx_hal_rcc_ex.c **** #endif /* RCC_CFGR_SDPRE */
 970:../../Drivers/STM32F3xx_HAL_Driver/Src/stm32f3xx_hal_rcc_ex.c **** 
 971:../../Drivers/STM32F3xx_HAL_Driver/Src/stm32f3xx_hal_rcc_ex.c ****   /* Check the parameters */
 972:../../Drivers/STM32F3xx_HAL_Driver/Src/stm32f3xx_hal_rcc_ex.c ****   assert_param(IS_RCC_PERIPHCLOCK(PeriphClk));
 973:../../Drivers/STM32F3xx_HAL_Driver/Src/stm32f3xx_hal_rcc_ex.c ****   
 974:../../Drivers/STM32F3xx_HAL_Driver/Src/stm32f3xx_hal_rcc_ex.c ****   switch (PeriphClk)
 784              		.loc 1 974 0
 785 0028 7B68     		ldr	r3, [r7, #4]
 786 002a B3F5805F 		cmp	r3, #4096
 787 002e 00F05D81 		beq	.L43
 788 0032 B3F5805F 		cmp	r3, #4096
 789 0036 12D8     		bhi	.L44
 790 0038 402B     		cmp	r3, #64
 791 003a 00F0AA80 		beq	.L45
 792 003e 402B     		cmp	r3, #64
 793 0040 05D8     		bhi	.L46
 794 0042 012B     		cmp	r3, #1
 795 0044 59D0     		beq	.L47
 796 0046 202B     		cmp	r3, #32
 797 0048 00F08780 		beq	.L48
 975:../../Drivers/STM32F3xx_HAL_Driver/Src/stm32f3xx_hal_rcc_ex.c ****   {
 976:../../Drivers/STM32F3xx_HAL_Driver/Src/stm32f3xx_hal_rcc_ex.c ****   case RCC_PERIPHCLK_RTC:
 977:../../Drivers/STM32F3xx_HAL_Driver/Src/stm32f3xx_hal_rcc_ex.c ****     {
 978:../../Drivers/STM32F3xx_HAL_Driver/Src/stm32f3xx_hal_rcc_ex.c ****       /* Get the current RTC source */
 979:../../Drivers/STM32F3xx_HAL_Driver/Src/stm32f3xx_hal_rcc_ex.c ****       srcclk = __HAL_RCC_GET_RTC_SOURCE();
 980:../../Drivers/STM32F3xx_HAL_Driver/Src/stm32f3xx_hal_rcc_ex.c **** 
 981:../../Drivers/STM32F3xx_HAL_Driver/Src/stm32f3xx_hal_rcc_ex.c ****       /* Check if LSE is ready and if RTC clock selection is LSE */
 982:../../Drivers/STM32F3xx_HAL_Driver/Src/stm32f3xx_hal_rcc_ex.c ****       if ((srcclk == RCC_RTCCLKSOURCE_LSE) && (HAL_IS_BIT_SET(RCC->BDCR, RCC_BDCR_LSERDY)))
 983:../../Drivers/STM32F3xx_HAL_Driver/Src/stm32f3xx_hal_rcc_ex.c ****       {
 984:../../Drivers/STM32F3xx_HAL_Driver/Src/stm32f3xx_hal_rcc_ex.c ****         frequency = LSE_VALUE;
 985:../../Drivers/STM32F3xx_HAL_Driver/Src/stm32f3xx_hal_rcc_ex.c ****       }
 986:../../Drivers/STM32F3xx_HAL_Driver/Src/stm32f3xx_hal_rcc_ex.c ****       /* Check if LSI is ready and if RTC clock selection is LSI */
 987:../../Drivers/STM32F3xx_HAL_Driver/Src/stm32f3xx_hal_rcc_ex.c ****       else if ((srcclk == RCC_RTCCLKSOURCE_LSI) && (HAL_IS_BIT_SET(RCC->CSR, RCC_CSR_LSIRDY)))
ARM GAS  /tmp/ccIre3F4.s 			page 42


 988:../../Drivers/STM32F3xx_HAL_Driver/Src/stm32f3xx_hal_rcc_ex.c ****       {
 989:../../Drivers/STM32F3xx_HAL_Driver/Src/stm32f3xx_hal_rcc_ex.c ****         frequency = LSI_VALUE;
 990:../../Drivers/STM32F3xx_HAL_Driver/Src/stm32f3xx_hal_rcc_ex.c ****       }
 991:../../Drivers/STM32F3xx_HAL_Driver/Src/stm32f3xx_hal_rcc_ex.c ****       /* Check if HSE is ready  and if RTC clock selection is HSI_DIV32*/
 992:../../Drivers/STM32F3xx_HAL_Driver/Src/stm32f3xx_hal_rcc_ex.c ****       else if ((srcclk == RCC_RTCCLKSOURCE_HSE_DIV32) && (HAL_IS_BIT_SET(RCC->CR, RCC_CR_HSERDY)))
 993:../../Drivers/STM32F3xx_HAL_Driver/Src/stm32f3xx_hal_rcc_ex.c ****       {
 994:../../Drivers/STM32F3xx_HAL_Driver/Src/stm32f3xx_hal_rcc_ex.c ****         frequency = HSE_VALUE / 32U;
 995:../../Drivers/STM32F3xx_HAL_Driver/Src/stm32f3xx_hal_rcc_ex.c ****       }
 996:../../Drivers/STM32F3xx_HAL_Driver/Src/stm32f3xx_hal_rcc_ex.c ****       /* Clock not enabled for RTC*/
 997:../../Drivers/STM32F3xx_HAL_Driver/Src/stm32f3xx_hal_rcc_ex.c ****       else
 998:../../Drivers/STM32F3xx_HAL_Driver/Src/stm32f3xx_hal_rcc_ex.c ****       {
 999:../../Drivers/STM32F3xx_HAL_Driver/Src/stm32f3xx_hal_rcc_ex.c ****         frequency = 0U;
1000:../../Drivers/STM32F3xx_HAL_Driver/Src/stm32f3xx_hal_rcc_ex.c ****       }
1001:../../Drivers/STM32F3xx_HAL_Driver/Src/stm32f3xx_hal_rcc_ex.c ****       break;
1002:../../Drivers/STM32F3xx_HAL_Driver/Src/stm32f3xx_hal_rcc_ex.c ****     }
1003:../../Drivers/STM32F3xx_HAL_Driver/Src/stm32f3xx_hal_rcc_ex.c ****   case RCC_PERIPHCLK_USART1:
1004:../../Drivers/STM32F3xx_HAL_Driver/Src/stm32f3xx_hal_rcc_ex.c ****     {
1005:../../Drivers/STM32F3xx_HAL_Driver/Src/stm32f3xx_hal_rcc_ex.c ****       /* Get the current USART1 source */
1006:../../Drivers/STM32F3xx_HAL_Driver/Src/stm32f3xx_hal_rcc_ex.c ****       srcclk = __HAL_RCC_GET_USART1_SOURCE();
1007:../../Drivers/STM32F3xx_HAL_Driver/Src/stm32f3xx_hal_rcc_ex.c **** 
1008:../../Drivers/STM32F3xx_HAL_Driver/Src/stm32f3xx_hal_rcc_ex.c ****       /* Check if USART1 clock selection is PCLK1 */
1009:../../Drivers/STM32F3xx_HAL_Driver/Src/stm32f3xx_hal_rcc_ex.c **** #if defined(RCC_USART1CLKSOURCE_PCLK2)
1010:../../Drivers/STM32F3xx_HAL_Driver/Src/stm32f3xx_hal_rcc_ex.c ****       if (srcclk == RCC_USART1CLKSOURCE_PCLK2)
1011:../../Drivers/STM32F3xx_HAL_Driver/Src/stm32f3xx_hal_rcc_ex.c ****       {
1012:../../Drivers/STM32F3xx_HAL_Driver/Src/stm32f3xx_hal_rcc_ex.c ****         frequency = HAL_RCC_GetPCLK2Freq();
1013:../../Drivers/STM32F3xx_HAL_Driver/Src/stm32f3xx_hal_rcc_ex.c ****       }
1014:../../Drivers/STM32F3xx_HAL_Driver/Src/stm32f3xx_hal_rcc_ex.c **** #else
1015:../../Drivers/STM32F3xx_HAL_Driver/Src/stm32f3xx_hal_rcc_ex.c ****       if (srcclk == RCC_USART1CLKSOURCE_PCLK1)
1016:../../Drivers/STM32F3xx_HAL_Driver/Src/stm32f3xx_hal_rcc_ex.c ****       {
1017:../../Drivers/STM32F3xx_HAL_Driver/Src/stm32f3xx_hal_rcc_ex.c ****         frequency = HAL_RCC_GetPCLK1Freq();
1018:../../Drivers/STM32F3xx_HAL_Driver/Src/stm32f3xx_hal_rcc_ex.c ****       }
1019:../../Drivers/STM32F3xx_HAL_Driver/Src/stm32f3xx_hal_rcc_ex.c **** #endif /* RCC_USART1CLKSOURCE_PCLK2 */
1020:../../Drivers/STM32F3xx_HAL_Driver/Src/stm32f3xx_hal_rcc_ex.c ****       /* Check if HSI is ready and if USART1 clock selection is HSI */
1021:../../Drivers/STM32F3xx_HAL_Driver/Src/stm32f3xx_hal_rcc_ex.c ****       else if ((srcclk == RCC_USART1CLKSOURCE_HSI) && (HAL_IS_BIT_SET(RCC->CR, RCC_CR_HSIRDY)))
1022:../../Drivers/STM32F3xx_HAL_Driver/Src/stm32f3xx_hal_rcc_ex.c ****       {
1023:../../Drivers/STM32F3xx_HAL_Driver/Src/stm32f3xx_hal_rcc_ex.c ****         frequency = HSI_VALUE;
1024:../../Drivers/STM32F3xx_HAL_Driver/Src/stm32f3xx_hal_rcc_ex.c ****       }
1025:../../Drivers/STM32F3xx_HAL_Driver/Src/stm32f3xx_hal_rcc_ex.c ****       /* Check if USART1 clock selection is SYSCLK */
1026:../../Drivers/STM32F3xx_HAL_Driver/Src/stm32f3xx_hal_rcc_ex.c ****       else if (srcclk == RCC_USART1CLKSOURCE_SYSCLK)
1027:../../Drivers/STM32F3xx_HAL_Driver/Src/stm32f3xx_hal_rcc_ex.c ****       {
1028:../../Drivers/STM32F3xx_HAL_Driver/Src/stm32f3xx_hal_rcc_ex.c ****         frequency = HAL_RCC_GetSysClockFreq();
1029:../../Drivers/STM32F3xx_HAL_Driver/Src/stm32f3xx_hal_rcc_ex.c ****       }
1030:../../Drivers/STM32F3xx_HAL_Driver/Src/stm32f3xx_hal_rcc_ex.c ****       /* Check if LSE is ready  and if USART1 clock selection is LSE */
1031:../../Drivers/STM32F3xx_HAL_Driver/Src/stm32f3xx_hal_rcc_ex.c ****       else if ((srcclk == RCC_USART1CLKSOURCE_LSE) && (HAL_IS_BIT_SET(RCC->BDCR, RCC_BDCR_LSERDY)))
1032:../../Drivers/STM32F3xx_HAL_Driver/Src/stm32f3xx_hal_rcc_ex.c ****       {
1033:../../Drivers/STM32F3xx_HAL_Driver/Src/stm32f3xx_hal_rcc_ex.c ****         frequency = LSE_VALUE;
1034:../../Drivers/STM32F3xx_HAL_Driver/Src/stm32f3xx_hal_rcc_ex.c ****       }
1035:../../Drivers/STM32F3xx_HAL_Driver/Src/stm32f3xx_hal_rcc_ex.c ****       /* Clock not enabled for USART1*/
1036:../../Drivers/STM32F3xx_HAL_Driver/Src/stm32f3xx_hal_rcc_ex.c ****       else
1037:../../Drivers/STM32F3xx_HAL_Driver/Src/stm32f3xx_hal_rcc_ex.c ****       {
1038:../../Drivers/STM32F3xx_HAL_Driver/Src/stm32f3xx_hal_rcc_ex.c ****         frequency = 0U;
1039:../../Drivers/STM32F3xx_HAL_Driver/Src/stm32f3xx_hal_rcc_ex.c ****       }
1040:../../Drivers/STM32F3xx_HAL_Driver/Src/stm32f3xx_hal_rcc_ex.c ****       break;
1041:../../Drivers/STM32F3xx_HAL_Driver/Src/stm32f3xx_hal_rcc_ex.c ****     }
1042:../../Drivers/STM32F3xx_HAL_Driver/Src/stm32f3xx_hal_rcc_ex.c **** #if defined(RCC_CFGR3_USART2SW)
1043:../../Drivers/STM32F3xx_HAL_Driver/Src/stm32f3xx_hal_rcc_ex.c ****   case RCC_PERIPHCLK_USART2:
1044:../../Drivers/STM32F3xx_HAL_Driver/Src/stm32f3xx_hal_rcc_ex.c ****     {
ARM GAS  /tmp/ccIre3F4.s 			page 43


1045:../../Drivers/STM32F3xx_HAL_Driver/Src/stm32f3xx_hal_rcc_ex.c ****       /* Get the current USART2 source */
1046:../../Drivers/STM32F3xx_HAL_Driver/Src/stm32f3xx_hal_rcc_ex.c ****       srcclk = __HAL_RCC_GET_USART2_SOURCE();
1047:../../Drivers/STM32F3xx_HAL_Driver/Src/stm32f3xx_hal_rcc_ex.c **** 
1048:../../Drivers/STM32F3xx_HAL_Driver/Src/stm32f3xx_hal_rcc_ex.c ****       /* Check if USART2 clock selection is PCLK1 */
1049:../../Drivers/STM32F3xx_HAL_Driver/Src/stm32f3xx_hal_rcc_ex.c ****       if (srcclk == RCC_USART2CLKSOURCE_PCLK1)
1050:../../Drivers/STM32F3xx_HAL_Driver/Src/stm32f3xx_hal_rcc_ex.c ****       {
1051:../../Drivers/STM32F3xx_HAL_Driver/Src/stm32f3xx_hal_rcc_ex.c ****         frequency = HAL_RCC_GetPCLK1Freq();
1052:../../Drivers/STM32F3xx_HAL_Driver/Src/stm32f3xx_hal_rcc_ex.c ****       }
1053:../../Drivers/STM32F3xx_HAL_Driver/Src/stm32f3xx_hal_rcc_ex.c ****       /* Check if HSI is ready and if USART2 clock selection is HSI */
1054:../../Drivers/STM32F3xx_HAL_Driver/Src/stm32f3xx_hal_rcc_ex.c ****       else if ((srcclk == RCC_USART2CLKSOURCE_HSI) && (HAL_IS_BIT_SET(RCC->CR, RCC_CR_HSIRDY)))
1055:../../Drivers/STM32F3xx_HAL_Driver/Src/stm32f3xx_hal_rcc_ex.c ****       {
1056:../../Drivers/STM32F3xx_HAL_Driver/Src/stm32f3xx_hal_rcc_ex.c ****         frequency = HSI_VALUE;
1057:../../Drivers/STM32F3xx_HAL_Driver/Src/stm32f3xx_hal_rcc_ex.c ****       }
1058:../../Drivers/STM32F3xx_HAL_Driver/Src/stm32f3xx_hal_rcc_ex.c ****       /* Check if USART2 clock selection is SYSCLK */
1059:../../Drivers/STM32F3xx_HAL_Driver/Src/stm32f3xx_hal_rcc_ex.c ****       else if (srcclk == RCC_USART2CLKSOURCE_SYSCLK)
1060:../../Drivers/STM32F3xx_HAL_Driver/Src/stm32f3xx_hal_rcc_ex.c ****       {
1061:../../Drivers/STM32F3xx_HAL_Driver/Src/stm32f3xx_hal_rcc_ex.c ****         frequency = HAL_RCC_GetSysClockFreq();
1062:../../Drivers/STM32F3xx_HAL_Driver/Src/stm32f3xx_hal_rcc_ex.c ****       }
1063:../../Drivers/STM32F3xx_HAL_Driver/Src/stm32f3xx_hal_rcc_ex.c ****       /* Check if LSE is ready  and if USART2 clock selection is LSE */
1064:../../Drivers/STM32F3xx_HAL_Driver/Src/stm32f3xx_hal_rcc_ex.c ****       else if ((srcclk == RCC_USART2CLKSOURCE_LSE) && (HAL_IS_BIT_SET(RCC->BDCR, RCC_BDCR_LSERDY)))
1065:../../Drivers/STM32F3xx_HAL_Driver/Src/stm32f3xx_hal_rcc_ex.c ****       {
1066:../../Drivers/STM32F3xx_HAL_Driver/Src/stm32f3xx_hal_rcc_ex.c ****         frequency = LSE_VALUE;
1067:../../Drivers/STM32F3xx_HAL_Driver/Src/stm32f3xx_hal_rcc_ex.c ****       }
1068:../../Drivers/STM32F3xx_HAL_Driver/Src/stm32f3xx_hal_rcc_ex.c ****       /* Clock not enabled for USART2*/
1069:../../Drivers/STM32F3xx_HAL_Driver/Src/stm32f3xx_hal_rcc_ex.c ****       else
1070:../../Drivers/STM32F3xx_HAL_Driver/Src/stm32f3xx_hal_rcc_ex.c ****       {
1071:../../Drivers/STM32F3xx_HAL_Driver/Src/stm32f3xx_hal_rcc_ex.c ****         frequency = 0U;
1072:../../Drivers/STM32F3xx_HAL_Driver/Src/stm32f3xx_hal_rcc_ex.c ****       }
1073:../../Drivers/STM32F3xx_HAL_Driver/Src/stm32f3xx_hal_rcc_ex.c ****       break;
1074:../../Drivers/STM32F3xx_HAL_Driver/Src/stm32f3xx_hal_rcc_ex.c ****     }
1075:../../Drivers/STM32F3xx_HAL_Driver/Src/stm32f3xx_hal_rcc_ex.c **** #endif /* RCC_CFGR3_USART2SW */
1076:../../Drivers/STM32F3xx_HAL_Driver/Src/stm32f3xx_hal_rcc_ex.c **** #if defined(RCC_CFGR3_USART3SW)
1077:../../Drivers/STM32F3xx_HAL_Driver/Src/stm32f3xx_hal_rcc_ex.c ****   case RCC_PERIPHCLK_USART3:
1078:../../Drivers/STM32F3xx_HAL_Driver/Src/stm32f3xx_hal_rcc_ex.c ****     {
1079:../../Drivers/STM32F3xx_HAL_Driver/Src/stm32f3xx_hal_rcc_ex.c ****       /* Get the current USART3 source */
1080:../../Drivers/STM32F3xx_HAL_Driver/Src/stm32f3xx_hal_rcc_ex.c ****       srcclk = __HAL_RCC_GET_USART3_SOURCE();
1081:../../Drivers/STM32F3xx_HAL_Driver/Src/stm32f3xx_hal_rcc_ex.c **** 
1082:../../Drivers/STM32F3xx_HAL_Driver/Src/stm32f3xx_hal_rcc_ex.c ****       /* Check if USART3 clock selection is PCLK1 */
1083:../../Drivers/STM32F3xx_HAL_Driver/Src/stm32f3xx_hal_rcc_ex.c ****       if (srcclk == RCC_USART3CLKSOURCE_PCLK1)
1084:../../Drivers/STM32F3xx_HAL_Driver/Src/stm32f3xx_hal_rcc_ex.c ****       {
1085:../../Drivers/STM32F3xx_HAL_Driver/Src/stm32f3xx_hal_rcc_ex.c ****         frequency = HAL_RCC_GetPCLK1Freq();
1086:../../Drivers/STM32F3xx_HAL_Driver/Src/stm32f3xx_hal_rcc_ex.c ****       }
1087:../../Drivers/STM32F3xx_HAL_Driver/Src/stm32f3xx_hal_rcc_ex.c ****       /* Check if HSI is ready and if USART3 clock selection is HSI */
1088:../../Drivers/STM32F3xx_HAL_Driver/Src/stm32f3xx_hal_rcc_ex.c ****       else if ((srcclk == RCC_USART3CLKSOURCE_HSI) && (HAL_IS_BIT_SET(RCC->CR, RCC_CR_HSIRDY)))
1089:../../Drivers/STM32F3xx_HAL_Driver/Src/stm32f3xx_hal_rcc_ex.c ****       {
1090:../../Drivers/STM32F3xx_HAL_Driver/Src/stm32f3xx_hal_rcc_ex.c ****         frequency = HSI_VALUE;
1091:../../Drivers/STM32F3xx_HAL_Driver/Src/stm32f3xx_hal_rcc_ex.c ****       }
1092:../../Drivers/STM32F3xx_HAL_Driver/Src/stm32f3xx_hal_rcc_ex.c ****       /* Check if USART3 clock selection is SYSCLK */
1093:../../Drivers/STM32F3xx_HAL_Driver/Src/stm32f3xx_hal_rcc_ex.c ****       else if (srcclk == RCC_USART3CLKSOURCE_SYSCLK)
1094:../../Drivers/STM32F3xx_HAL_Driver/Src/stm32f3xx_hal_rcc_ex.c ****       {
1095:../../Drivers/STM32F3xx_HAL_Driver/Src/stm32f3xx_hal_rcc_ex.c ****         frequency = HAL_RCC_GetSysClockFreq();
1096:../../Drivers/STM32F3xx_HAL_Driver/Src/stm32f3xx_hal_rcc_ex.c ****       }
1097:../../Drivers/STM32F3xx_HAL_Driver/Src/stm32f3xx_hal_rcc_ex.c ****       /* Check if LSE is ready  and if USART3 clock selection is LSE */
1098:../../Drivers/STM32F3xx_HAL_Driver/Src/stm32f3xx_hal_rcc_ex.c ****       else if ((srcclk == RCC_USART3CLKSOURCE_LSE) && (HAL_IS_BIT_SET(RCC->BDCR, RCC_BDCR_LSERDY)))
1099:../../Drivers/STM32F3xx_HAL_Driver/Src/stm32f3xx_hal_rcc_ex.c ****       {
1100:../../Drivers/STM32F3xx_HAL_Driver/Src/stm32f3xx_hal_rcc_ex.c ****         frequency = LSE_VALUE;
1101:../../Drivers/STM32F3xx_HAL_Driver/Src/stm32f3xx_hal_rcc_ex.c ****       }
ARM GAS  /tmp/ccIre3F4.s 			page 44


1102:../../Drivers/STM32F3xx_HAL_Driver/Src/stm32f3xx_hal_rcc_ex.c ****       /* Clock not enabled for USART3*/
1103:../../Drivers/STM32F3xx_HAL_Driver/Src/stm32f3xx_hal_rcc_ex.c ****       else
1104:../../Drivers/STM32F3xx_HAL_Driver/Src/stm32f3xx_hal_rcc_ex.c ****       {
1105:../../Drivers/STM32F3xx_HAL_Driver/Src/stm32f3xx_hal_rcc_ex.c ****         frequency = 0U;
1106:../../Drivers/STM32F3xx_HAL_Driver/Src/stm32f3xx_hal_rcc_ex.c ****       }
1107:../../Drivers/STM32F3xx_HAL_Driver/Src/stm32f3xx_hal_rcc_ex.c ****       break;
1108:../../Drivers/STM32F3xx_HAL_Driver/Src/stm32f3xx_hal_rcc_ex.c ****     }
1109:../../Drivers/STM32F3xx_HAL_Driver/Src/stm32f3xx_hal_rcc_ex.c **** #endif /* RCC_CFGR3_USART3SW */
1110:../../Drivers/STM32F3xx_HAL_Driver/Src/stm32f3xx_hal_rcc_ex.c **** #if defined(RCC_CFGR3_UART4SW)
1111:../../Drivers/STM32F3xx_HAL_Driver/Src/stm32f3xx_hal_rcc_ex.c ****   case RCC_PERIPHCLK_UART4:
1112:../../Drivers/STM32F3xx_HAL_Driver/Src/stm32f3xx_hal_rcc_ex.c ****     {
1113:../../Drivers/STM32F3xx_HAL_Driver/Src/stm32f3xx_hal_rcc_ex.c ****       /* Get the current UART4 source */
1114:../../Drivers/STM32F3xx_HAL_Driver/Src/stm32f3xx_hal_rcc_ex.c ****       srcclk = __HAL_RCC_GET_UART4_SOURCE();
1115:../../Drivers/STM32F3xx_HAL_Driver/Src/stm32f3xx_hal_rcc_ex.c **** 
1116:../../Drivers/STM32F3xx_HAL_Driver/Src/stm32f3xx_hal_rcc_ex.c ****       /* Check if UART4 clock selection is PCLK1 */
1117:../../Drivers/STM32F3xx_HAL_Driver/Src/stm32f3xx_hal_rcc_ex.c ****       if (srcclk == RCC_UART4CLKSOURCE_PCLK1)
1118:../../Drivers/STM32F3xx_HAL_Driver/Src/stm32f3xx_hal_rcc_ex.c ****       {
1119:../../Drivers/STM32F3xx_HAL_Driver/Src/stm32f3xx_hal_rcc_ex.c ****         frequency = HAL_RCC_GetPCLK1Freq();
1120:../../Drivers/STM32F3xx_HAL_Driver/Src/stm32f3xx_hal_rcc_ex.c ****       }
1121:../../Drivers/STM32F3xx_HAL_Driver/Src/stm32f3xx_hal_rcc_ex.c ****       /* Check if HSI is ready and if UART4 clock selection is HSI */
1122:../../Drivers/STM32F3xx_HAL_Driver/Src/stm32f3xx_hal_rcc_ex.c ****       else if ((srcclk == RCC_UART4CLKSOURCE_HSI) && (HAL_IS_BIT_SET(RCC->CR, RCC_CR_HSIRDY)))
1123:../../Drivers/STM32F3xx_HAL_Driver/Src/stm32f3xx_hal_rcc_ex.c ****       {
1124:../../Drivers/STM32F3xx_HAL_Driver/Src/stm32f3xx_hal_rcc_ex.c ****         frequency = HSI_VALUE;
1125:../../Drivers/STM32F3xx_HAL_Driver/Src/stm32f3xx_hal_rcc_ex.c ****       }
1126:../../Drivers/STM32F3xx_HAL_Driver/Src/stm32f3xx_hal_rcc_ex.c ****       /* Check if UART4 clock selection is SYSCLK */
1127:../../Drivers/STM32F3xx_HAL_Driver/Src/stm32f3xx_hal_rcc_ex.c ****       else if (srcclk == RCC_UART4CLKSOURCE_SYSCLK)
1128:../../Drivers/STM32F3xx_HAL_Driver/Src/stm32f3xx_hal_rcc_ex.c ****       {
1129:../../Drivers/STM32F3xx_HAL_Driver/Src/stm32f3xx_hal_rcc_ex.c ****         frequency = HAL_RCC_GetSysClockFreq();
1130:../../Drivers/STM32F3xx_HAL_Driver/Src/stm32f3xx_hal_rcc_ex.c ****       }
1131:../../Drivers/STM32F3xx_HAL_Driver/Src/stm32f3xx_hal_rcc_ex.c ****       /* Check if LSE is ready  and if UART4 clock selection is LSE */
1132:../../Drivers/STM32F3xx_HAL_Driver/Src/stm32f3xx_hal_rcc_ex.c ****       else if ((srcclk == RCC_UART4CLKSOURCE_LSE) && (HAL_IS_BIT_SET(RCC->BDCR, RCC_BDCR_LSERDY)))
1133:../../Drivers/STM32F3xx_HAL_Driver/Src/stm32f3xx_hal_rcc_ex.c ****       {
1134:../../Drivers/STM32F3xx_HAL_Driver/Src/stm32f3xx_hal_rcc_ex.c ****         frequency = LSE_VALUE;
1135:../../Drivers/STM32F3xx_HAL_Driver/Src/stm32f3xx_hal_rcc_ex.c ****       }
1136:../../Drivers/STM32F3xx_HAL_Driver/Src/stm32f3xx_hal_rcc_ex.c ****       /* Clock not enabled for UART4*/
1137:../../Drivers/STM32F3xx_HAL_Driver/Src/stm32f3xx_hal_rcc_ex.c ****       else
1138:../../Drivers/STM32F3xx_HAL_Driver/Src/stm32f3xx_hal_rcc_ex.c ****       {
1139:../../Drivers/STM32F3xx_HAL_Driver/Src/stm32f3xx_hal_rcc_ex.c ****         frequency = 0U;
1140:../../Drivers/STM32F3xx_HAL_Driver/Src/stm32f3xx_hal_rcc_ex.c ****       }
1141:../../Drivers/STM32F3xx_HAL_Driver/Src/stm32f3xx_hal_rcc_ex.c ****       break;
1142:../../Drivers/STM32F3xx_HAL_Driver/Src/stm32f3xx_hal_rcc_ex.c ****     }
1143:../../Drivers/STM32F3xx_HAL_Driver/Src/stm32f3xx_hal_rcc_ex.c **** #endif /* RCC_CFGR3_UART4SW */
1144:../../Drivers/STM32F3xx_HAL_Driver/Src/stm32f3xx_hal_rcc_ex.c **** #if defined(RCC_CFGR3_UART5SW)
1145:../../Drivers/STM32F3xx_HAL_Driver/Src/stm32f3xx_hal_rcc_ex.c ****   case RCC_PERIPHCLK_UART5:
1146:../../Drivers/STM32F3xx_HAL_Driver/Src/stm32f3xx_hal_rcc_ex.c ****     {
1147:../../Drivers/STM32F3xx_HAL_Driver/Src/stm32f3xx_hal_rcc_ex.c ****       /* Get the current UART5 source */
1148:../../Drivers/STM32F3xx_HAL_Driver/Src/stm32f3xx_hal_rcc_ex.c ****       srcclk = __HAL_RCC_GET_UART5_SOURCE();
1149:../../Drivers/STM32F3xx_HAL_Driver/Src/stm32f3xx_hal_rcc_ex.c **** 
1150:../../Drivers/STM32F3xx_HAL_Driver/Src/stm32f3xx_hal_rcc_ex.c ****       /* Check if UART5 clock selection is PCLK1 */
1151:../../Drivers/STM32F3xx_HAL_Driver/Src/stm32f3xx_hal_rcc_ex.c ****       if (srcclk == RCC_UART5CLKSOURCE_PCLK1)
1152:../../Drivers/STM32F3xx_HAL_Driver/Src/stm32f3xx_hal_rcc_ex.c ****       {
1153:../../Drivers/STM32F3xx_HAL_Driver/Src/stm32f3xx_hal_rcc_ex.c ****         frequency = HAL_RCC_GetPCLK1Freq();
1154:../../Drivers/STM32F3xx_HAL_Driver/Src/stm32f3xx_hal_rcc_ex.c ****       }
1155:../../Drivers/STM32F3xx_HAL_Driver/Src/stm32f3xx_hal_rcc_ex.c ****       /* Check if HSI is ready and if UART5 clock selection is HSI */
1156:../../Drivers/STM32F3xx_HAL_Driver/Src/stm32f3xx_hal_rcc_ex.c ****       else if ((srcclk == RCC_UART5CLKSOURCE_HSI) && (HAL_IS_BIT_SET(RCC->CR, RCC_CR_HSIRDY)))
1157:../../Drivers/STM32F3xx_HAL_Driver/Src/stm32f3xx_hal_rcc_ex.c ****       {
1158:../../Drivers/STM32F3xx_HAL_Driver/Src/stm32f3xx_hal_rcc_ex.c ****         frequency = HSI_VALUE;
ARM GAS  /tmp/ccIre3F4.s 			page 45


1159:../../Drivers/STM32F3xx_HAL_Driver/Src/stm32f3xx_hal_rcc_ex.c ****       }
1160:../../Drivers/STM32F3xx_HAL_Driver/Src/stm32f3xx_hal_rcc_ex.c ****       /* Check if UART5 clock selection is SYSCLK */
1161:../../Drivers/STM32F3xx_HAL_Driver/Src/stm32f3xx_hal_rcc_ex.c ****       else if (srcclk == RCC_UART5CLKSOURCE_SYSCLK)
1162:../../Drivers/STM32F3xx_HAL_Driver/Src/stm32f3xx_hal_rcc_ex.c ****       {
1163:../../Drivers/STM32F3xx_HAL_Driver/Src/stm32f3xx_hal_rcc_ex.c ****         frequency = HAL_RCC_GetSysClockFreq();
1164:../../Drivers/STM32F3xx_HAL_Driver/Src/stm32f3xx_hal_rcc_ex.c ****       }
1165:../../Drivers/STM32F3xx_HAL_Driver/Src/stm32f3xx_hal_rcc_ex.c ****       /* Check if LSE is ready  and if UART5 clock selection is LSE */
1166:../../Drivers/STM32F3xx_HAL_Driver/Src/stm32f3xx_hal_rcc_ex.c ****       else if ((srcclk == RCC_UART5CLKSOURCE_LSE) && (HAL_IS_BIT_SET(RCC->BDCR, RCC_BDCR_LSERDY)))
1167:../../Drivers/STM32F3xx_HAL_Driver/Src/stm32f3xx_hal_rcc_ex.c ****       {
1168:../../Drivers/STM32F3xx_HAL_Driver/Src/stm32f3xx_hal_rcc_ex.c ****         frequency = LSE_VALUE;
1169:../../Drivers/STM32F3xx_HAL_Driver/Src/stm32f3xx_hal_rcc_ex.c ****       }
1170:../../Drivers/STM32F3xx_HAL_Driver/Src/stm32f3xx_hal_rcc_ex.c ****       /* Clock not enabled for UART5*/
1171:../../Drivers/STM32F3xx_HAL_Driver/Src/stm32f3xx_hal_rcc_ex.c ****       else
1172:../../Drivers/STM32F3xx_HAL_Driver/Src/stm32f3xx_hal_rcc_ex.c ****       {
1173:../../Drivers/STM32F3xx_HAL_Driver/Src/stm32f3xx_hal_rcc_ex.c ****         frequency = 0U;
1174:../../Drivers/STM32F3xx_HAL_Driver/Src/stm32f3xx_hal_rcc_ex.c ****       }
1175:../../Drivers/STM32F3xx_HAL_Driver/Src/stm32f3xx_hal_rcc_ex.c ****       break;
1176:../../Drivers/STM32F3xx_HAL_Driver/Src/stm32f3xx_hal_rcc_ex.c ****     }
1177:../../Drivers/STM32F3xx_HAL_Driver/Src/stm32f3xx_hal_rcc_ex.c **** #endif /* RCC_CFGR3_UART5SW */
1178:../../Drivers/STM32F3xx_HAL_Driver/Src/stm32f3xx_hal_rcc_ex.c ****   case RCC_PERIPHCLK_I2C1:
1179:../../Drivers/STM32F3xx_HAL_Driver/Src/stm32f3xx_hal_rcc_ex.c ****     {
1180:../../Drivers/STM32F3xx_HAL_Driver/Src/stm32f3xx_hal_rcc_ex.c ****       /* Get the current I2C1 source */
1181:../../Drivers/STM32F3xx_HAL_Driver/Src/stm32f3xx_hal_rcc_ex.c ****       srcclk = __HAL_RCC_GET_I2C1_SOURCE();
1182:../../Drivers/STM32F3xx_HAL_Driver/Src/stm32f3xx_hal_rcc_ex.c **** 
1183:../../Drivers/STM32F3xx_HAL_Driver/Src/stm32f3xx_hal_rcc_ex.c ****       /* Check if HSI is ready and if I2C1 clock selection is HSI */
1184:../../Drivers/STM32F3xx_HAL_Driver/Src/stm32f3xx_hal_rcc_ex.c ****       if ((srcclk == RCC_I2C1CLKSOURCE_HSI) && (HAL_IS_BIT_SET(RCC->CR, RCC_CR_HSIRDY)))
1185:../../Drivers/STM32F3xx_HAL_Driver/Src/stm32f3xx_hal_rcc_ex.c ****       {
1186:../../Drivers/STM32F3xx_HAL_Driver/Src/stm32f3xx_hal_rcc_ex.c ****         frequency = HSI_VALUE;
1187:../../Drivers/STM32F3xx_HAL_Driver/Src/stm32f3xx_hal_rcc_ex.c ****       }
1188:../../Drivers/STM32F3xx_HAL_Driver/Src/stm32f3xx_hal_rcc_ex.c ****       /* Check if I2C1 clock selection is SYSCLK */
1189:../../Drivers/STM32F3xx_HAL_Driver/Src/stm32f3xx_hal_rcc_ex.c ****       else if (srcclk == RCC_I2C1CLKSOURCE_SYSCLK)
1190:../../Drivers/STM32F3xx_HAL_Driver/Src/stm32f3xx_hal_rcc_ex.c ****       {
1191:../../Drivers/STM32F3xx_HAL_Driver/Src/stm32f3xx_hal_rcc_ex.c ****         frequency = HAL_RCC_GetSysClockFreq();
1192:../../Drivers/STM32F3xx_HAL_Driver/Src/stm32f3xx_hal_rcc_ex.c ****       }
1193:../../Drivers/STM32F3xx_HAL_Driver/Src/stm32f3xx_hal_rcc_ex.c ****       /* Clock not enabled for I2C1*/
1194:../../Drivers/STM32F3xx_HAL_Driver/Src/stm32f3xx_hal_rcc_ex.c ****       else
1195:../../Drivers/STM32F3xx_HAL_Driver/Src/stm32f3xx_hal_rcc_ex.c ****       {
1196:../../Drivers/STM32F3xx_HAL_Driver/Src/stm32f3xx_hal_rcc_ex.c ****         frequency = 0U;
1197:../../Drivers/STM32F3xx_HAL_Driver/Src/stm32f3xx_hal_rcc_ex.c ****       }
1198:../../Drivers/STM32F3xx_HAL_Driver/Src/stm32f3xx_hal_rcc_ex.c ****       break;
1199:../../Drivers/STM32F3xx_HAL_Driver/Src/stm32f3xx_hal_rcc_ex.c ****     }
1200:../../Drivers/STM32F3xx_HAL_Driver/Src/stm32f3xx_hal_rcc_ex.c **** #if defined(RCC_CFGR3_I2C2SW)
1201:../../Drivers/STM32F3xx_HAL_Driver/Src/stm32f3xx_hal_rcc_ex.c ****   case RCC_PERIPHCLK_I2C2:
1202:../../Drivers/STM32F3xx_HAL_Driver/Src/stm32f3xx_hal_rcc_ex.c ****     {
1203:../../Drivers/STM32F3xx_HAL_Driver/Src/stm32f3xx_hal_rcc_ex.c ****       /* Get the current I2C2 source */
1204:../../Drivers/STM32F3xx_HAL_Driver/Src/stm32f3xx_hal_rcc_ex.c ****       srcclk = __HAL_RCC_GET_I2C2_SOURCE();
1205:../../Drivers/STM32F3xx_HAL_Driver/Src/stm32f3xx_hal_rcc_ex.c **** 
1206:../../Drivers/STM32F3xx_HAL_Driver/Src/stm32f3xx_hal_rcc_ex.c ****       /* Check if HSI is ready and if I2C2 clock selection is HSI */
1207:../../Drivers/STM32F3xx_HAL_Driver/Src/stm32f3xx_hal_rcc_ex.c ****       if ((srcclk == RCC_I2C2CLKSOURCE_HSI) && (HAL_IS_BIT_SET(RCC->CR, RCC_CR_HSIRDY)))
1208:../../Drivers/STM32F3xx_HAL_Driver/Src/stm32f3xx_hal_rcc_ex.c ****       {
1209:../../Drivers/STM32F3xx_HAL_Driver/Src/stm32f3xx_hal_rcc_ex.c ****         frequency = HSI_VALUE;
1210:../../Drivers/STM32F3xx_HAL_Driver/Src/stm32f3xx_hal_rcc_ex.c ****       }
1211:../../Drivers/STM32F3xx_HAL_Driver/Src/stm32f3xx_hal_rcc_ex.c ****       /* Check if I2C2 clock selection is SYSCLK */
1212:../../Drivers/STM32F3xx_HAL_Driver/Src/stm32f3xx_hal_rcc_ex.c ****       else if (srcclk == RCC_I2C2CLKSOURCE_SYSCLK)
1213:../../Drivers/STM32F3xx_HAL_Driver/Src/stm32f3xx_hal_rcc_ex.c ****       {
1214:../../Drivers/STM32F3xx_HAL_Driver/Src/stm32f3xx_hal_rcc_ex.c ****         frequency = HAL_RCC_GetSysClockFreq();
1215:../../Drivers/STM32F3xx_HAL_Driver/Src/stm32f3xx_hal_rcc_ex.c ****       }
ARM GAS  /tmp/ccIre3F4.s 			page 46


1216:../../Drivers/STM32F3xx_HAL_Driver/Src/stm32f3xx_hal_rcc_ex.c ****       /* Clock not enabled for I2C2*/
1217:../../Drivers/STM32F3xx_HAL_Driver/Src/stm32f3xx_hal_rcc_ex.c ****       else
1218:../../Drivers/STM32F3xx_HAL_Driver/Src/stm32f3xx_hal_rcc_ex.c ****       {
1219:../../Drivers/STM32F3xx_HAL_Driver/Src/stm32f3xx_hal_rcc_ex.c ****         frequency = 0U;
1220:../../Drivers/STM32F3xx_HAL_Driver/Src/stm32f3xx_hal_rcc_ex.c ****       }
1221:../../Drivers/STM32F3xx_HAL_Driver/Src/stm32f3xx_hal_rcc_ex.c ****       break;
1222:../../Drivers/STM32F3xx_HAL_Driver/Src/stm32f3xx_hal_rcc_ex.c ****     }
1223:../../Drivers/STM32F3xx_HAL_Driver/Src/stm32f3xx_hal_rcc_ex.c **** #endif /* RCC_CFGR3_I2C2SW */
1224:../../Drivers/STM32F3xx_HAL_Driver/Src/stm32f3xx_hal_rcc_ex.c **** #if defined(RCC_CFGR3_I2C3SW)
1225:../../Drivers/STM32F3xx_HAL_Driver/Src/stm32f3xx_hal_rcc_ex.c ****   case RCC_PERIPHCLK_I2C3:
1226:../../Drivers/STM32F3xx_HAL_Driver/Src/stm32f3xx_hal_rcc_ex.c ****     {
1227:../../Drivers/STM32F3xx_HAL_Driver/Src/stm32f3xx_hal_rcc_ex.c ****       /* Get the current I2C3 source */
1228:../../Drivers/STM32F3xx_HAL_Driver/Src/stm32f3xx_hal_rcc_ex.c ****       srcclk = __HAL_RCC_GET_I2C3_SOURCE();
1229:../../Drivers/STM32F3xx_HAL_Driver/Src/stm32f3xx_hal_rcc_ex.c **** 
1230:../../Drivers/STM32F3xx_HAL_Driver/Src/stm32f3xx_hal_rcc_ex.c ****       /* Check if HSI is ready and if I2C3 clock selection is HSI */
1231:../../Drivers/STM32F3xx_HAL_Driver/Src/stm32f3xx_hal_rcc_ex.c ****       if ((srcclk == RCC_I2C3CLKSOURCE_HSI) && (HAL_IS_BIT_SET(RCC->CR, RCC_CR_HSIRDY)))
1232:../../Drivers/STM32F3xx_HAL_Driver/Src/stm32f3xx_hal_rcc_ex.c ****       {
1233:../../Drivers/STM32F3xx_HAL_Driver/Src/stm32f3xx_hal_rcc_ex.c ****         frequency = HSI_VALUE;
1234:../../Drivers/STM32F3xx_HAL_Driver/Src/stm32f3xx_hal_rcc_ex.c ****       }
1235:../../Drivers/STM32F3xx_HAL_Driver/Src/stm32f3xx_hal_rcc_ex.c ****       /* Check if I2C3 clock selection is SYSCLK */
1236:../../Drivers/STM32F3xx_HAL_Driver/Src/stm32f3xx_hal_rcc_ex.c ****       else if (srcclk == RCC_I2C3CLKSOURCE_SYSCLK)
1237:../../Drivers/STM32F3xx_HAL_Driver/Src/stm32f3xx_hal_rcc_ex.c ****       {
1238:../../Drivers/STM32F3xx_HAL_Driver/Src/stm32f3xx_hal_rcc_ex.c ****         frequency = HAL_RCC_GetSysClockFreq();
1239:../../Drivers/STM32F3xx_HAL_Driver/Src/stm32f3xx_hal_rcc_ex.c ****       }
1240:../../Drivers/STM32F3xx_HAL_Driver/Src/stm32f3xx_hal_rcc_ex.c ****       /* Clock not enabled for I2C3*/
1241:../../Drivers/STM32F3xx_HAL_Driver/Src/stm32f3xx_hal_rcc_ex.c ****       else
1242:../../Drivers/STM32F3xx_HAL_Driver/Src/stm32f3xx_hal_rcc_ex.c ****       {
1243:../../Drivers/STM32F3xx_HAL_Driver/Src/stm32f3xx_hal_rcc_ex.c ****         frequency = 0U;
1244:../../Drivers/STM32F3xx_HAL_Driver/Src/stm32f3xx_hal_rcc_ex.c ****       }
1245:../../Drivers/STM32F3xx_HAL_Driver/Src/stm32f3xx_hal_rcc_ex.c ****       break;
1246:../../Drivers/STM32F3xx_HAL_Driver/Src/stm32f3xx_hal_rcc_ex.c ****     }
1247:../../Drivers/STM32F3xx_HAL_Driver/Src/stm32f3xx_hal_rcc_ex.c **** #endif /* RCC_CFGR3_I2C3SW */
1248:../../Drivers/STM32F3xx_HAL_Driver/Src/stm32f3xx_hal_rcc_ex.c **** #if defined(RCC_CFGR_I2SSRC)
1249:../../Drivers/STM32F3xx_HAL_Driver/Src/stm32f3xx_hal_rcc_ex.c ****   case RCC_PERIPHCLK_I2S:
1250:../../Drivers/STM32F3xx_HAL_Driver/Src/stm32f3xx_hal_rcc_ex.c ****     {
1251:../../Drivers/STM32F3xx_HAL_Driver/Src/stm32f3xx_hal_rcc_ex.c ****       /* Get the current I2S source */
1252:../../Drivers/STM32F3xx_HAL_Driver/Src/stm32f3xx_hal_rcc_ex.c ****       srcclk = __HAL_RCC_GET_I2S_SOURCE();
1253:../../Drivers/STM32F3xx_HAL_Driver/Src/stm32f3xx_hal_rcc_ex.c **** 
1254:../../Drivers/STM32F3xx_HAL_Driver/Src/stm32f3xx_hal_rcc_ex.c ****       /* Check if I2S clock selection is External clock mapped on the I2S_CKIN pin */
1255:../../Drivers/STM32F3xx_HAL_Driver/Src/stm32f3xx_hal_rcc_ex.c ****       if (srcclk == RCC_I2SCLKSOURCE_EXT)
1256:../../Drivers/STM32F3xx_HAL_Driver/Src/stm32f3xx_hal_rcc_ex.c ****       {
1257:../../Drivers/STM32F3xx_HAL_Driver/Src/stm32f3xx_hal_rcc_ex.c ****         /* External clock used. Frequency cannot be returned.*/
1258:../../Drivers/STM32F3xx_HAL_Driver/Src/stm32f3xx_hal_rcc_ex.c ****         frequency = 0xDEADDEADU;
1259:../../Drivers/STM32F3xx_HAL_Driver/Src/stm32f3xx_hal_rcc_ex.c ****       }
1260:../../Drivers/STM32F3xx_HAL_Driver/Src/stm32f3xx_hal_rcc_ex.c ****       /* Check if I2S clock selection is SYSCLK */
1261:../../Drivers/STM32F3xx_HAL_Driver/Src/stm32f3xx_hal_rcc_ex.c ****       else if (srcclk == RCC_I2SCLKSOURCE_SYSCLK)
1262:../../Drivers/STM32F3xx_HAL_Driver/Src/stm32f3xx_hal_rcc_ex.c ****       {
1263:../../Drivers/STM32F3xx_HAL_Driver/Src/stm32f3xx_hal_rcc_ex.c ****         frequency = HAL_RCC_GetSysClockFreq();
1264:../../Drivers/STM32F3xx_HAL_Driver/Src/stm32f3xx_hal_rcc_ex.c ****       }
1265:../../Drivers/STM32F3xx_HAL_Driver/Src/stm32f3xx_hal_rcc_ex.c ****       /* Clock not enabled for I2S*/
1266:../../Drivers/STM32F3xx_HAL_Driver/Src/stm32f3xx_hal_rcc_ex.c ****       else
1267:../../Drivers/STM32F3xx_HAL_Driver/Src/stm32f3xx_hal_rcc_ex.c ****       {
1268:../../Drivers/STM32F3xx_HAL_Driver/Src/stm32f3xx_hal_rcc_ex.c ****         frequency = 0U;
1269:../../Drivers/STM32F3xx_HAL_Driver/Src/stm32f3xx_hal_rcc_ex.c ****       }
1270:../../Drivers/STM32F3xx_HAL_Driver/Src/stm32f3xx_hal_rcc_ex.c ****       break;
1271:../../Drivers/STM32F3xx_HAL_Driver/Src/stm32f3xx_hal_rcc_ex.c ****     }
1272:../../Drivers/STM32F3xx_HAL_Driver/Src/stm32f3xx_hal_rcc_ex.c **** #endif /* RCC_CFGR_I2SSRC */
ARM GAS  /tmp/ccIre3F4.s 			page 47


1273:../../Drivers/STM32F3xx_HAL_Driver/Src/stm32f3xx_hal_rcc_ex.c **** #if defined(RCC_CFGR_USBPRE)
1274:../../Drivers/STM32F3xx_HAL_Driver/Src/stm32f3xx_hal_rcc_ex.c ****   case RCC_PERIPHCLK_USB:
1275:../../Drivers/STM32F3xx_HAL_Driver/Src/stm32f3xx_hal_rcc_ex.c ****     {
1276:../../Drivers/STM32F3xx_HAL_Driver/Src/stm32f3xx_hal_rcc_ex.c ****       /* Check if PLL is ready */
1277:../../Drivers/STM32F3xx_HAL_Driver/Src/stm32f3xx_hal_rcc_ex.c ****       if (HAL_IS_BIT_SET(RCC->CR, RCC_CR_PLLRDY))
1278:../../Drivers/STM32F3xx_HAL_Driver/Src/stm32f3xx_hal_rcc_ex.c ****       {
1279:../../Drivers/STM32F3xx_HAL_Driver/Src/stm32f3xx_hal_rcc_ex.c ****         /* Get the current USB source */
1280:../../Drivers/STM32F3xx_HAL_Driver/Src/stm32f3xx_hal_rcc_ex.c ****         srcclk = __HAL_RCC_GET_USB_SOURCE();
1281:../../Drivers/STM32F3xx_HAL_Driver/Src/stm32f3xx_hal_rcc_ex.c **** 
1282:../../Drivers/STM32F3xx_HAL_Driver/Src/stm32f3xx_hal_rcc_ex.c ****         /* Check if USB clock selection is not divided */
1283:../../Drivers/STM32F3xx_HAL_Driver/Src/stm32f3xx_hal_rcc_ex.c ****         if (srcclk == RCC_USBCLKSOURCE_PLL)
1284:../../Drivers/STM32F3xx_HAL_Driver/Src/stm32f3xx_hal_rcc_ex.c ****         {
1285:../../Drivers/STM32F3xx_HAL_Driver/Src/stm32f3xx_hal_rcc_ex.c ****           frequency = RCC_GetPLLCLKFreq();
1286:../../Drivers/STM32F3xx_HAL_Driver/Src/stm32f3xx_hal_rcc_ex.c ****         }
1287:../../Drivers/STM32F3xx_HAL_Driver/Src/stm32f3xx_hal_rcc_ex.c ****         /* Check if USB clock selection is divided by 1.5 */
1288:../../Drivers/STM32F3xx_HAL_Driver/Src/stm32f3xx_hal_rcc_ex.c ****         else /* RCC_USBCLKSOURCE_PLL_DIV1_5 */
1289:../../Drivers/STM32F3xx_HAL_Driver/Src/stm32f3xx_hal_rcc_ex.c ****         {
1290:../../Drivers/STM32F3xx_HAL_Driver/Src/stm32f3xx_hal_rcc_ex.c ****           frequency = (RCC_GetPLLCLKFreq() * 3U) / 2U;
1291:../../Drivers/STM32F3xx_HAL_Driver/Src/stm32f3xx_hal_rcc_ex.c ****         }
1292:../../Drivers/STM32F3xx_HAL_Driver/Src/stm32f3xx_hal_rcc_ex.c ****       }
1293:../../Drivers/STM32F3xx_HAL_Driver/Src/stm32f3xx_hal_rcc_ex.c ****       /* Clock not enabled for USB*/
1294:../../Drivers/STM32F3xx_HAL_Driver/Src/stm32f3xx_hal_rcc_ex.c ****       else
1295:../../Drivers/STM32F3xx_HAL_Driver/Src/stm32f3xx_hal_rcc_ex.c ****       {
1296:../../Drivers/STM32F3xx_HAL_Driver/Src/stm32f3xx_hal_rcc_ex.c ****         frequency = 0U;
1297:../../Drivers/STM32F3xx_HAL_Driver/Src/stm32f3xx_hal_rcc_ex.c ****       }
1298:../../Drivers/STM32F3xx_HAL_Driver/Src/stm32f3xx_hal_rcc_ex.c ****       break;
1299:../../Drivers/STM32F3xx_HAL_Driver/Src/stm32f3xx_hal_rcc_ex.c ****     }
1300:../../Drivers/STM32F3xx_HAL_Driver/Src/stm32f3xx_hal_rcc_ex.c **** #endif /* RCC_CFGR_USBPRE */
1301:../../Drivers/STM32F3xx_HAL_Driver/Src/stm32f3xx_hal_rcc_ex.c **** #if defined(RCC_CFGR2_ADC1PRES) || defined(RCC_CFGR_ADCPRE)
1302:../../Drivers/STM32F3xx_HAL_Driver/Src/stm32f3xx_hal_rcc_ex.c ****   case RCC_PERIPHCLK_ADC1:
1303:../../Drivers/STM32F3xx_HAL_Driver/Src/stm32f3xx_hal_rcc_ex.c ****     {
1304:../../Drivers/STM32F3xx_HAL_Driver/Src/stm32f3xx_hal_rcc_ex.c ****       /* Get the current ADC1 source */
1305:../../Drivers/STM32F3xx_HAL_Driver/Src/stm32f3xx_hal_rcc_ex.c ****       srcclk = __HAL_RCC_GET_ADC1_SOURCE();
1306:../../Drivers/STM32F3xx_HAL_Driver/Src/stm32f3xx_hal_rcc_ex.c **** #if defined(RCC_CFGR2_ADC1PRES)
1307:../../Drivers/STM32F3xx_HAL_Driver/Src/stm32f3xx_hal_rcc_ex.c ****       /* Check if ADC1 clock selection is AHB */
1308:../../Drivers/STM32F3xx_HAL_Driver/Src/stm32f3xx_hal_rcc_ex.c ****       if (srcclk == RCC_ADC1PLLCLK_OFF)
1309:../../Drivers/STM32F3xx_HAL_Driver/Src/stm32f3xx_hal_rcc_ex.c ****       {
1310:../../Drivers/STM32F3xx_HAL_Driver/Src/stm32f3xx_hal_rcc_ex.c ****           frequency = SystemCoreClock;
1311:../../Drivers/STM32F3xx_HAL_Driver/Src/stm32f3xx_hal_rcc_ex.c ****       }
1312:../../Drivers/STM32F3xx_HAL_Driver/Src/stm32f3xx_hal_rcc_ex.c ****       /* PLL clock has been selected */
1313:../../Drivers/STM32F3xx_HAL_Driver/Src/stm32f3xx_hal_rcc_ex.c ****       else
1314:../../Drivers/STM32F3xx_HAL_Driver/Src/stm32f3xx_hal_rcc_ex.c ****       {
1315:../../Drivers/STM32F3xx_HAL_Driver/Src/stm32f3xx_hal_rcc_ex.c ****         /* Check if PLL is ready */
1316:../../Drivers/STM32F3xx_HAL_Driver/Src/stm32f3xx_hal_rcc_ex.c ****         if (HAL_IS_BIT_SET(RCC->CR, RCC_CR_PLLRDY))
1317:../../Drivers/STM32F3xx_HAL_Driver/Src/stm32f3xx_hal_rcc_ex.c ****         {
1318:../../Drivers/STM32F3xx_HAL_Driver/Src/stm32f3xx_hal_rcc_ex.c ****           /* Frequency is the PLL frequency divided by ADC prescaler (1U/2U/4U/6U/8U/10U/12U/16U/32
1319:../../Drivers/STM32F3xx_HAL_Driver/Src/stm32f3xx_hal_rcc_ex.c ****           frequency = RCC_GetPLLCLKFreq() / adc_pll_prediv_table[(srcclk >> POSITION_VAL(RCC_CFGR2_
1320:../../Drivers/STM32F3xx_HAL_Driver/Src/stm32f3xx_hal_rcc_ex.c ****         }
1321:../../Drivers/STM32F3xx_HAL_Driver/Src/stm32f3xx_hal_rcc_ex.c ****         /* Clock not enabled for ADC1*/
1322:../../Drivers/STM32F3xx_HAL_Driver/Src/stm32f3xx_hal_rcc_ex.c ****         else
1323:../../Drivers/STM32F3xx_HAL_Driver/Src/stm32f3xx_hal_rcc_ex.c ****         {
1324:../../Drivers/STM32F3xx_HAL_Driver/Src/stm32f3xx_hal_rcc_ex.c ****           frequency = 0U;
1325:../../Drivers/STM32F3xx_HAL_Driver/Src/stm32f3xx_hal_rcc_ex.c ****         }
1326:../../Drivers/STM32F3xx_HAL_Driver/Src/stm32f3xx_hal_rcc_ex.c ****       }
1327:../../Drivers/STM32F3xx_HAL_Driver/Src/stm32f3xx_hal_rcc_ex.c **** #else /* RCC_CFGR_ADCPRE */
1328:../../Drivers/STM32F3xx_HAL_Driver/Src/stm32f3xx_hal_rcc_ex.c ****       /* ADC1 is set to PLCK2 frequency divided by 2U/4U/6U/8U */
1329:../../Drivers/STM32F3xx_HAL_Driver/Src/stm32f3xx_hal_rcc_ex.c ****       frequency = HAL_RCC_GetPCLK2Freq() / (((srcclk  >> POSITION_VAL(RCC_CFGR_ADCPRE)) + 1U) * 2U)
ARM GAS  /tmp/ccIre3F4.s 			page 48


1330:../../Drivers/STM32F3xx_HAL_Driver/Src/stm32f3xx_hal_rcc_ex.c **** #endif /* RCC_CFGR2_ADC1PRES */
1331:../../Drivers/STM32F3xx_HAL_Driver/Src/stm32f3xx_hal_rcc_ex.c ****       break;
1332:../../Drivers/STM32F3xx_HAL_Driver/Src/stm32f3xx_hal_rcc_ex.c ****     }
1333:../../Drivers/STM32F3xx_HAL_Driver/Src/stm32f3xx_hal_rcc_ex.c **** #endif /* RCC_CFGR2_ADC1PRES || RCC_CFGR_ADCPRE */
1334:../../Drivers/STM32F3xx_HAL_Driver/Src/stm32f3xx_hal_rcc_ex.c **** #if defined(RCC_CFGR2_ADCPRE12)
1335:../../Drivers/STM32F3xx_HAL_Driver/Src/stm32f3xx_hal_rcc_ex.c ****   case RCC_PERIPHCLK_ADC12:
1336:../../Drivers/STM32F3xx_HAL_Driver/Src/stm32f3xx_hal_rcc_ex.c ****     {
1337:../../Drivers/STM32F3xx_HAL_Driver/Src/stm32f3xx_hal_rcc_ex.c ****       /* Get the current ADC12 source */
1338:../../Drivers/STM32F3xx_HAL_Driver/Src/stm32f3xx_hal_rcc_ex.c ****       srcclk = __HAL_RCC_GET_ADC12_SOURCE();
1339:../../Drivers/STM32F3xx_HAL_Driver/Src/stm32f3xx_hal_rcc_ex.c ****       /* Check if ADC12 clock selection is AHB */
1340:../../Drivers/STM32F3xx_HAL_Driver/Src/stm32f3xx_hal_rcc_ex.c ****       if (srcclk == RCC_ADC12PLLCLK_OFF)
1341:../../Drivers/STM32F3xx_HAL_Driver/Src/stm32f3xx_hal_rcc_ex.c ****       {
1342:../../Drivers/STM32F3xx_HAL_Driver/Src/stm32f3xx_hal_rcc_ex.c ****           frequency = SystemCoreClock;
1343:../../Drivers/STM32F3xx_HAL_Driver/Src/stm32f3xx_hal_rcc_ex.c ****       }
1344:../../Drivers/STM32F3xx_HAL_Driver/Src/stm32f3xx_hal_rcc_ex.c ****       /* PLL clock has been selected */
1345:../../Drivers/STM32F3xx_HAL_Driver/Src/stm32f3xx_hal_rcc_ex.c ****       else
1346:../../Drivers/STM32F3xx_HAL_Driver/Src/stm32f3xx_hal_rcc_ex.c ****       {
1347:../../Drivers/STM32F3xx_HAL_Driver/Src/stm32f3xx_hal_rcc_ex.c ****         /* Check if PLL is ready */
1348:../../Drivers/STM32F3xx_HAL_Driver/Src/stm32f3xx_hal_rcc_ex.c ****         if (HAL_IS_BIT_SET(RCC->CR, RCC_CR_PLLRDY))
1349:../../Drivers/STM32F3xx_HAL_Driver/Src/stm32f3xx_hal_rcc_ex.c ****         {
1350:../../Drivers/STM32F3xx_HAL_Driver/Src/stm32f3xx_hal_rcc_ex.c ****           /* Frequency is the PLL frequency divided by ADC prescaler (1U/2U/4U/6/8U/10U/12U/16U/32U
1351:../../Drivers/STM32F3xx_HAL_Driver/Src/stm32f3xx_hal_rcc_ex.c ****           frequency = RCC_GetPLLCLKFreq() / adc_pll_prediv_table[(srcclk >> POSITION_VAL(RCC_CFGR2_
1352:../../Drivers/STM32F3xx_HAL_Driver/Src/stm32f3xx_hal_rcc_ex.c ****         }
1353:../../Drivers/STM32F3xx_HAL_Driver/Src/stm32f3xx_hal_rcc_ex.c ****         /* Clock not enabled for ADC12*/
1354:../../Drivers/STM32F3xx_HAL_Driver/Src/stm32f3xx_hal_rcc_ex.c ****         else
1355:../../Drivers/STM32F3xx_HAL_Driver/Src/stm32f3xx_hal_rcc_ex.c ****         {
1356:../../Drivers/STM32F3xx_HAL_Driver/Src/stm32f3xx_hal_rcc_ex.c ****           frequency = 0U;
1357:../../Drivers/STM32F3xx_HAL_Driver/Src/stm32f3xx_hal_rcc_ex.c ****         }
1358:../../Drivers/STM32F3xx_HAL_Driver/Src/stm32f3xx_hal_rcc_ex.c ****       }
1359:../../Drivers/STM32F3xx_HAL_Driver/Src/stm32f3xx_hal_rcc_ex.c ****       break;
1360:../../Drivers/STM32F3xx_HAL_Driver/Src/stm32f3xx_hal_rcc_ex.c ****     }
1361:../../Drivers/STM32F3xx_HAL_Driver/Src/stm32f3xx_hal_rcc_ex.c **** #endif /* RCC_CFGR2_ADCPRE12 */
1362:../../Drivers/STM32F3xx_HAL_Driver/Src/stm32f3xx_hal_rcc_ex.c **** #if defined(RCC_CFGR2_ADCPRE34)
1363:../../Drivers/STM32F3xx_HAL_Driver/Src/stm32f3xx_hal_rcc_ex.c ****   case RCC_PERIPHCLK_ADC34:
1364:../../Drivers/STM32F3xx_HAL_Driver/Src/stm32f3xx_hal_rcc_ex.c ****     {
1365:../../Drivers/STM32F3xx_HAL_Driver/Src/stm32f3xx_hal_rcc_ex.c ****       /* Get the current ADC34 source */
1366:../../Drivers/STM32F3xx_HAL_Driver/Src/stm32f3xx_hal_rcc_ex.c ****       srcclk = __HAL_RCC_GET_ADC34_SOURCE();
1367:../../Drivers/STM32F3xx_HAL_Driver/Src/stm32f3xx_hal_rcc_ex.c ****       /* Check if ADC34 clock selection is AHB */
1368:../../Drivers/STM32F3xx_HAL_Driver/Src/stm32f3xx_hal_rcc_ex.c ****       if (srcclk == RCC_ADC34PLLCLK_OFF)
1369:../../Drivers/STM32F3xx_HAL_Driver/Src/stm32f3xx_hal_rcc_ex.c ****       {
1370:../../Drivers/STM32F3xx_HAL_Driver/Src/stm32f3xx_hal_rcc_ex.c ****           frequency = SystemCoreClock;
1371:../../Drivers/STM32F3xx_HAL_Driver/Src/stm32f3xx_hal_rcc_ex.c ****       }
1372:../../Drivers/STM32F3xx_HAL_Driver/Src/stm32f3xx_hal_rcc_ex.c ****       /* PLL clock has been selected */
1373:../../Drivers/STM32F3xx_HAL_Driver/Src/stm32f3xx_hal_rcc_ex.c ****       else
1374:../../Drivers/STM32F3xx_HAL_Driver/Src/stm32f3xx_hal_rcc_ex.c ****       {
1375:../../Drivers/STM32F3xx_HAL_Driver/Src/stm32f3xx_hal_rcc_ex.c ****         /* Check if PLL is ready */
1376:../../Drivers/STM32F3xx_HAL_Driver/Src/stm32f3xx_hal_rcc_ex.c ****         if (HAL_IS_BIT_SET(RCC->CR, RCC_CR_PLLRDY))
1377:../../Drivers/STM32F3xx_HAL_Driver/Src/stm32f3xx_hal_rcc_ex.c ****         {
1378:../../Drivers/STM32F3xx_HAL_Driver/Src/stm32f3xx_hal_rcc_ex.c ****           /* Frequency is the PLL frequency divided by ADC prescaler (1U/2U/4U/6U/8U/10U/12U/16U/32
1379:../../Drivers/STM32F3xx_HAL_Driver/Src/stm32f3xx_hal_rcc_ex.c ****           frequency = RCC_GetPLLCLKFreq() / adc_pll_prediv_table[(srcclk >> POSITION_VAL(RCC_CFGR2_
1380:../../Drivers/STM32F3xx_HAL_Driver/Src/stm32f3xx_hal_rcc_ex.c ****         }
1381:../../Drivers/STM32F3xx_HAL_Driver/Src/stm32f3xx_hal_rcc_ex.c ****         /* Clock not enabled for ADC34*/
1382:../../Drivers/STM32F3xx_HAL_Driver/Src/stm32f3xx_hal_rcc_ex.c ****         else
1383:../../Drivers/STM32F3xx_HAL_Driver/Src/stm32f3xx_hal_rcc_ex.c ****         {
1384:../../Drivers/STM32F3xx_HAL_Driver/Src/stm32f3xx_hal_rcc_ex.c ****           frequency = 0U;
1385:../../Drivers/STM32F3xx_HAL_Driver/Src/stm32f3xx_hal_rcc_ex.c ****         }
1386:../../Drivers/STM32F3xx_HAL_Driver/Src/stm32f3xx_hal_rcc_ex.c ****       }
ARM GAS  /tmp/ccIre3F4.s 			page 49


1387:../../Drivers/STM32F3xx_HAL_Driver/Src/stm32f3xx_hal_rcc_ex.c ****       break;
1388:../../Drivers/STM32F3xx_HAL_Driver/Src/stm32f3xx_hal_rcc_ex.c ****     }
1389:../../Drivers/STM32F3xx_HAL_Driver/Src/stm32f3xx_hal_rcc_ex.c **** #endif /* RCC_CFGR2_ADCPRE34 */
1390:../../Drivers/STM32F3xx_HAL_Driver/Src/stm32f3xx_hal_rcc_ex.c **** #if defined(RCC_CFGR3_TIM1SW)
1391:../../Drivers/STM32F3xx_HAL_Driver/Src/stm32f3xx_hal_rcc_ex.c ****   case RCC_PERIPHCLK_TIM1:
1392:../../Drivers/STM32F3xx_HAL_Driver/Src/stm32f3xx_hal_rcc_ex.c ****     {
1393:../../Drivers/STM32F3xx_HAL_Driver/Src/stm32f3xx_hal_rcc_ex.c ****       /* Get the current TIM1 source */
1394:../../Drivers/STM32F3xx_HAL_Driver/Src/stm32f3xx_hal_rcc_ex.c ****       srcclk = __HAL_RCC_GET_TIM1_SOURCE();
1395:../../Drivers/STM32F3xx_HAL_Driver/Src/stm32f3xx_hal_rcc_ex.c **** 
1396:../../Drivers/STM32F3xx_HAL_Driver/Src/stm32f3xx_hal_rcc_ex.c ****       /* Check if PLL is ready and if TIM1 clock selection is PLL */
1397:../../Drivers/STM32F3xx_HAL_Driver/Src/stm32f3xx_hal_rcc_ex.c ****       if ((srcclk == RCC_TIM1CLK_PLLCLK) && (HAL_IS_BIT_SET(RCC->CR, RCC_CR_PLLRDY)))
1398:../../Drivers/STM32F3xx_HAL_Driver/Src/stm32f3xx_hal_rcc_ex.c ****       {
1399:../../Drivers/STM32F3xx_HAL_Driver/Src/stm32f3xx_hal_rcc_ex.c ****         frequency = RCC_GetPLLCLKFreq();
1400:../../Drivers/STM32F3xx_HAL_Driver/Src/stm32f3xx_hal_rcc_ex.c ****       }
1401:../../Drivers/STM32F3xx_HAL_Driver/Src/stm32f3xx_hal_rcc_ex.c ****       /* Check if TIM1 clock selection is SYSCLK */
1402:../../Drivers/STM32F3xx_HAL_Driver/Src/stm32f3xx_hal_rcc_ex.c ****       else if (srcclk == RCC_TIM1CLK_HCLK)
1403:../../Drivers/STM32F3xx_HAL_Driver/Src/stm32f3xx_hal_rcc_ex.c ****       {
1404:../../Drivers/STM32F3xx_HAL_Driver/Src/stm32f3xx_hal_rcc_ex.c ****         frequency = SystemCoreClock;
1405:../../Drivers/STM32F3xx_HAL_Driver/Src/stm32f3xx_hal_rcc_ex.c ****       }
1406:../../Drivers/STM32F3xx_HAL_Driver/Src/stm32f3xx_hal_rcc_ex.c ****       /* Clock not enabled for TIM1*/
1407:../../Drivers/STM32F3xx_HAL_Driver/Src/stm32f3xx_hal_rcc_ex.c ****       else
1408:../../Drivers/STM32F3xx_HAL_Driver/Src/stm32f3xx_hal_rcc_ex.c ****       {
1409:../../Drivers/STM32F3xx_HAL_Driver/Src/stm32f3xx_hal_rcc_ex.c ****         frequency = 0U;
1410:../../Drivers/STM32F3xx_HAL_Driver/Src/stm32f3xx_hal_rcc_ex.c ****       }
1411:../../Drivers/STM32F3xx_HAL_Driver/Src/stm32f3xx_hal_rcc_ex.c ****       break;
1412:../../Drivers/STM32F3xx_HAL_Driver/Src/stm32f3xx_hal_rcc_ex.c ****     }
1413:../../Drivers/STM32F3xx_HAL_Driver/Src/stm32f3xx_hal_rcc_ex.c **** #endif /* RCC_CFGR3_TIM1SW */
1414:../../Drivers/STM32F3xx_HAL_Driver/Src/stm32f3xx_hal_rcc_ex.c **** #if defined(RCC_CFGR3_TIM2SW)
1415:../../Drivers/STM32F3xx_HAL_Driver/Src/stm32f3xx_hal_rcc_ex.c ****   case RCC_PERIPHCLK_TIM2:
1416:../../Drivers/STM32F3xx_HAL_Driver/Src/stm32f3xx_hal_rcc_ex.c ****     {
1417:../../Drivers/STM32F3xx_HAL_Driver/Src/stm32f3xx_hal_rcc_ex.c ****       /* Get the current TIM2 source */
1418:../../Drivers/STM32F3xx_HAL_Driver/Src/stm32f3xx_hal_rcc_ex.c ****       srcclk = __HAL_RCC_GET_TIM2_SOURCE();
1419:../../Drivers/STM32F3xx_HAL_Driver/Src/stm32f3xx_hal_rcc_ex.c **** 
1420:../../Drivers/STM32F3xx_HAL_Driver/Src/stm32f3xx_hal_rcc_ex.c ****       /* Check if PLL is ready and if TIM2 clock selection is PLL */
1421:../../Drivers/STM32F3xx_HAL_Driver/Src/stm32f3xx_hal_rcc_ex.c ****       if ((srcclk == RCC_TIM2CLK_PLLCLK) && (HAL_IS_BIT_SET(RCC->CR, RCC_CR_PLLRDY)))
1422:../../Drivers/STM32F3xx_HAL_Driver/Src/stm32f3xx_hal_rcc_ex.c ****       {
1423:../../Drivers/STM32F3xx_HAL_Driver/Src/stm32f3xx_hal_rcc_ex.c ****         frequency = RCC_GetPLLCLKFreq();
1424:../../Drivers/STM32F3xx_HAL_Driver/Src/stm32f3xx_hal_rcc_ex.c ****       }
1425:../../Drivers/STM32F3xx_HAL_Driver/Src/stm32f3xx_hal_rcc_ex.c ****       /* Check if TIM2 clock selection is SYSCLK */
1426:../../Drivers/STM32F3xx_HAL_Driver/Src/stm32f3xx_hal_rcc_ex.c ****       else if (srcclk == RCC_TIM2CLK_HCLK)
1427:../../Drivers/STM32F3xx_HAL_Driver/Src/stm32f3xx_hal_rcc_ex.c ****       {
1428:../../Drivers/STM32F3xx_HAL_Driver/Src/stm32f3xx_hal_rcc_ex.c ****         frequency = SystemCoreClock;
1429:../../Drivers/STM32F3xx_HAL_Driver/Src/stm32f3xx_hal_rcc_ex.c ****       }
1430:../../Drivers/STM32F3xx_HAL_Driver/Src/stm32f3xx_hal_rcc_ex.c ****       /* Clock not enabled for TIM2*/
1431:../../Drivers/STM32F3xx_HAL_Driver/Src/stm32f3xx_hal_rcc_ex.c ****       else
1432:../../Drivers/STM32F3xx_HAL_Driver/Src/stm32f3xx_hal_rcc_ex.c ****       {
1433:../../Drivers/STM32F3xx_HAL_Driver/Src/stm32f3xx_hal_rcc_ex.c ****         frequency = 0U;
1434:../../Drivers/STM32F3xx_HAL_Driver/Src/stm32f3xx_hal_rcc_ex.c ****       }
1435:../../Drivers/STM32F3xx_HAL_Driver/Src/stm32f3xx_hal_rcc_ex.c ****       break;
1436:../../Drivers/STM32F3xx_HAL_Driver/Src/stm32f3xx_hal_rcc_ex.c ****     }
1437:../../Drivers/STM32F3xx_HAL_Driver/Src/stm32f3xx_hal_rcc_ex.c **** #endif /* RCC_CFGR3_TIM2SW */
1438:../../Drivers/STM32F3xx_HAL_Driver/Src/stm32f3xx_hal_rcc_ex.c **** #if defined(RCC_CFGR3_TIM8SW)
1439:../../Drivers/STM32F3xx_HAL_Driver/Src/stm32f3xx_hal_rcc_ex.c ****   case RCC_PERIPHCLK_TIM8:
1440:../../Drivers/STM32F3xx_HAL_Driver/Src/stm32f3xx_hal_rcc_ex.c ****     {
1441:../../Drivers/STM32F3xx_HAL_Driver/Src/stm32f3xx_hal_rcc_ex.c ****       /* Get the current TIM8 source */
1442:../../Drivers/STM32F3xx_HAL_Driver/Src/stm32f3xx_hal_rcc_ex.c ****       srcclk = __HAL_RCC_GET_TIM8_SOURCE();
1443:../../Drivers/STM32F3xx_HAL_Driver/Src/stm32f3xx_hal_rcc_ex.c **** 
ARM GAS  /tmp/ccIre3F4.s 			page 50


1444:../../Drivers/STM32F3xx_HAL_Driver/Src/stm32f3xx_hal_rcc_ex.c ****       /* Check if PLL is ready and if TIM8 clock selection is PLL */
1445:../../Drivers/STM32F3xx_HAL_Driver/Src/stm32f3xx_hal_rcc_ex.c ****       if ((srcclk == RCC_TIM8CLK_PLLCLK) && (HAL_IS_BIT_SET(RCC->CR, RCC_CR_PLLRDY)))
1446:../../Drivers/STM32F3xx_HAL_Driver/Src/stm32f3xx_hal_rcc_ex.c ****       {
1447:../../Drivers/STM32F3xx_HAL_Driver/Src/stm32f3xx_hal_rcc_ex.c ****         frequency = RCC_GetPLLCLKFreq();
1448:../../Drivers/STM32F3xx_HAL_Driver/Src/stm32f3xx_hal_rcc_ex.c ****       }
1449:../../Drivers/STM32F3xx_HAL_Driver/Src/stm32f3xx_hal_rcc_ex.c ****       /* Check if TIM8 clock selection is SYSCLK */
1450:../../Drivers/STM32F3xx_HAL_Driver/Src/stm32f3xx_hal_rcc_ex.c ****       else if (srcclk == RCC_TIM8CLK_HCLK)
1451:../../Drivers/STM32F3xx_HAL_Driver/Src/stm32f3xx_hal_rcc_ex.c ****       {
1452:../../Drivers/STM32F3xx_HAL_Driver/Src/stm32f3xx_hal_rcc_ex.c ****         frequency = SystemCoreClock;
1453:../../Drivers/STM32F3xx_HAL_Driver/Src/stm32f3xx_hal_rcc_ex.c ****       }
1454:../../Drivers/STM32F3xx_HAL_Driver/Src/stm32f3xx_hal_rcc_ex.c ****       /* Clock not enabled for TIM8*/
1455:../../Drivers/STM32F3xx_HAL_Driver/Src/stm32f3xx_hal_rcc_ex.c ****       else
1456:../../Drivers/STM32F3xx_HAL_Driver/Src/stm32f3xx_hal_rcc_ex.c ****       {
1457:../../Drivers/STM32F3xx_HAL_Driver/Src/stm32f3xx_hal_rcc_ex.c ****         frequency = 0U;
1458:../../Drivers/STM32F3xx_HAL_Driver/Src/stm32f3xx_hal_rcc_ex.c ****       }
1459:../../Drivers/STM32F3xx_HAL_Driver/Src/stm32f3xx_hal_rcc_ex.c ****       break;
1460:../../Drivers/STM32F3xx_HAL_Driver/Src/stm32f3xx_hal_rcc_ex.c ****     }
1461:../../Drivers/STM32F3xx_HAL_Driver/Src/stm32f3xx_hal_rcc_ex.c **** #endif /* RCC_CFGR3_TIM8SW */
1462:../../Drivers/STM32F3xx_HAL_Driver/Src/stm32f3xx_hal_rcc_ex.c **** #if defined(RCC_CFGR3_TIM15SW)
1463:../../Drivers/STM32F3xx_HAL_Driver/Src/stm32f3xx_hal_rcc_ex.c ****   case RCC_PERIPHCLK_TIM15:
1464:../../Drivers/STM32F3xx_HAL_Driver/Src/stm32f3xx_hal_rcc_ex.c ****     {
1465:../../Drivers/STM32F3xx_HAL_Driver/Src/stm32f3xx_hal_rcc_ex.c ****       /* Get the current TIM15 source */
1466:../../Drivers/STM32F3xx_HAL_Driver/Src/stm32f3xx_hal_rcc_ex.c ****       srcclk = __HAL_RCC_GET_TIM15_SOURCE();
1467:../../Drivers/STM32F3xx_HAL_Driver/Src/stm32f3xx_hal_rcc_ex.c **** 
1468:../../Drivers/STM32F3xx_HAL_Driver/Src/stm32f3xx_hal_rcc_ex.c ****       /* Check if PLL is ready and if TIM15 clock selection is PLL */
1469:../../Drivers/STM32F3xx_HAL_Driver/Src/stm32f3xx_hal_rcc_ex.c ****       if ((srcclk == RCC_TIM15CLK_PLLCLK) && (HAL_IS_BIT_SET(RCC->CR, RCC_CR_PLLRDY)))
1470:../../Drivers/STM32F3xx_HAL_Driver/Src/stm32f3xx_hal_rcc_ex.c ****       {
1471:../../Drivers/STM32F3xx_HAL_Driver/Src/stm32f3xx_hal_rcc_ex.c ****         frequency = RCC_GetPLLCLKFreq();
1472:../../Drivers/STM32F3xx_HAL_Driver/Src/stm32f3xx_hal_rcc_ex.c ****       }
1473:../../Drivers/STM32F3xx_HAL_Driver/Src/stm32f3xx_hal_rcc_ex.c ****       /* Check if TIM15 clock selection is SYSCLK */
1474:../../Drivers/STM32F3xx_HAL_Driver/Src/stm32f3xx_hal_rcc_ex.c ****       else if (srcclk == RCC_TIM15CLK_HCLK)
1475:../../Drivers/STM32F3xx_HAL_Driver/Src/stm32f3xx_hal_rcc_ex.c ****       {
1476:../../Drivers/STM32F3xx_HAL_Driver/Src/stm32f3xx_hal_rcc_ex.c ****         frequency = SystemCoreClock;
1477:../../Drivers/STM32F3xx_HAL_Driver/Src/stm32f3xx_hal_rcc_ex.c ****       }
1478:../../Drivers/STM32F3xx_HAL_Driver/Src/stm32f3xx_hal_rcc_ex.c ****       /* Clock not enabled for TIM15*/
1479:../../Drivers/STM32F3xx_HAL_Driver/Src/stm32f3xx_hal_rcc_ex.c ****       else
1480:../../Drivers/STM32F3xx_HAL_Driver/Src/stm32f3xx_hal_rcc_ex.c ****       {
1481:../../Drivers/STM32F3xx_HAL_Driver/Src/stm32f3xx_hal_rcc_ex.c ****         frequency = 0U;
1482:../../Drivers/STM32F3xx_HAL_Driver/Src/stm32f3xx_hal_rcc_ex.c ****       }
1483:../../Drivers/STM32F3xx_HAL_Driver/Src/stm32f3xx_hal_rcc_ex.c ****       break;
1484:../../Drivers/STM32F3xx_HAL_Driver/Src/stm32f3xx_hal_rcc_ex.c ****     }
1485:../../Drivers/STM32F3xx_HAL_Driver/Src/stm32f3xx_hal_rcc_ex.c **** #endif /* RCC_CFGR3_TIM15SW */
1486:../../Drivers/STM32F3xx_HAL_Driver/Src/stm32f3xx_hal_rcc_ex.c **** #if defined(RCC_CFGR3_TIM16SW)
1487:../../Drivers/STM32F3xx_HAL_Driver/Src/stm32f3xx_hal_rcc_ex.c ****   case RCC_PERIPHCLK_TIM16:
1488:../../Drivers/STM32F3xx_HAL_Driver/Src/stm32f3xx_hal_rcc_ex.c ****     {
1489:../../Drivers/STM32F3xx_HAL_Driver/Src/stm32f3xx_hal_rcc_ex.c ****       /* Get the current TIM16 source */
1490:../../Drivers/STM32F3xx_HAL_Driver/Src/stm32f3xx_hal_rcc_ex.c ****       srcclk = __HAL_RCC_GET_TIM16_SOURCE();
1491:../../Drivers/STM32F3xx_HAL_Driver/Src/stm32f3xx_hal_rcc_ex.c **** 
1492:../../Drivers/STM32F3xx_HAL_Driver/Src/stm32f3xx_hal_rcc_ex.c ****       /* Check if PLL is ready and if TIM16 clock selection is PLL */
1493:../../Drivers/STM32F3xx_HAL_Driver/Src/stm32f3xx_hal_rcc_ex.c ****       if ((srcclk == RCC_TIM16CLK_PLLCLK) && (HAL_IS_BIT_SET(RCC->CR, RCC_CR_PLLRDY)))
1494:../../Drivers/STM32F3xx_HAL_Driver/Src/stm32f3xx_hal_rcc_ex.c ****       {
1495:../../Drivers/STM32F3xx_HAL_Driver/Src/stm32f3xx_hal_rcc_ex.c ****         frequency = RCC_GetPLLCLKFreq();
1496:../../Drivers/STM32F3xx_HAL_Driver/Src/stm32f3xx_hal_rcc_ex.c ****       }
1497:../../Drivers/STM32F3xx_HAL_Driver/Src/stm32f3xx_hal_rcc_ex.c ****       /* Check if TIM16 clock selection is SYSCLK */
1498:../../Drivers/STM32F3xx_HAL_Driver/Src/stm32f3xx_hal_rcc_ex.c ****       else if (srcclk == RCC_TIM16CLK_HCLK)
1499:../../Drivers/STM32F3xx_HAL_Driver/Src/stm32f3xx_hal_rcc_ex.c ****       {
1500:../../Drivers/STM32F3xx_HAL_Driver/Src/stm32f3xx_hal_rcc_ex.c ****         frequency = SystemCoreClock;
ARM GAS  /tmp/ccIre3F4.s 			page 51


1501:../../Drivers/STM32F3xx_HAL_Driver/Src/stm32f3xx_hal_rcc_ex.c ****       }
1502:../../Drivers/STM32F3xx_HAL_Driver/Src/stm32f3xx_hal_rcc_ex.c ****       /* Clock not enabled for TIM16*/
1503:../../Drivers/STM32F3xx_HAL_Driver/Src/stm32f3xx_hal_rcc_ex.c ****       else
1504:../../Drivers/STM32F3xx_HAL_Driver/Src/stm32f3xx_hal_rcc_ex.c ****       {
1505:../../Drivers/STM32F3xx_HAL_Driver/Src/stm32f3xx_hal_rcc_ex.c ****         frequency = 0U;
1506:../../Drivers/STM32F3xx_HAL_Driver/Src/stm32f3xx_hal_rcc_ex.c ****       }
1507:../../Drivers/STM32F3xx_HAL_Driver/Src/stm32f3xx_hal_rcc_ex.c ****       break;
1508:../../Drivers/STM32F3xx_HAL_Driver/Src/stm32f3xx_hal_rcc_ex.c ****     }
1509:../../Drivers/STM32F3xx_HAL_Driver/Src/stm32f3xx_hal_rcc_ex.c **** #endif /* RCC_CFGR3_TIM16SW */
1510:../../Drivers/STM32F3xx_HAL_Driver/Src/stm32f3xx_hal_rcc_ex.c **** #if defined(RCC_CFGR3_TIM17SW)
1511:../../Drivers/STM32F3xx_HAL_Driver/Src/stm32f3xx_hal_rcc_ex.c ****   case RCC_PERIPHCLK_TIM17:
1512:../../Drivers/STM32F3xx_HAL_Driver/Src/stm32f3xx_hal_rcc_ex.c ****     {
1513:../../Drivers/STM32F3xx_HAL_Driver/Src/stm32f3xx_hal_rcc_ex.c ****       /* Get the current TIM17 source */
1514:../../Drivers/STM32F3xx_HAL_Driver/Src/stm32f3xx_hal_rcc_ex.c ****       srcclk = __HAL_RCC_GET_TIM17_SOURCE();
1515:../../Drivers/STM32F3xx_HAL_Driver/Src/stm32f3xx_hal_rcc_ex.c **** 
1516:../../Drivers/STM32F3xx_HAL_Driver/Src/stm32f3xx_hal_rcc_ex.c ****       /* Check if PLL is ready and if TIM17 clock selection is PLL */
1517:../../Drivers/STM32F3xx_HAL_Driver/Src/stm32f3xx_hal_rcc_ex.c ****       if ((srcclk == RCC_TIM17CLK_PLLCLK) && (HAL_IS_BIT_SET(RCC->CR, RCC_CR_PLLRDY)))
1518:../../Drivers/STM32F3xx_HAL_Driver/Src/stm32f3xx_hal_rcc_ex.c ****       {
1519:../../Drivers/STM32F3xx_HAL_Driver/Src/stm32f3xx_hal_rcc_ex.c ****         frequency = RCC_GetPLLCLKFreq();
1520:../../Drivers/STM32F3xx_HAL_Driver/Src/stm32f3xx_hal_rcc_ex.c ****       }
1521:../../Drivers/STM32F3xx_HAL_Driver/Src/stm32f3xx_hal_rcc_ex.c ****       /* Check if TIM17 clock selection is SYSCLK */
1522:../../Drivers/STM32F3xx_HAL_Driver/Src/stm32f3xx_hal_rcc_ex.c ****       else if (srcclk == RCC_TIM17CLK_HCLK)
1523:../../Drivers/STM32F3xx_HAL_Driver/Src/stm32f3xx_hal_rcc_ex.c ****       {
1524:../../Drivers/STM32F3xx_HAL_Driver/Src/stm32f3xx_hal_rcc_ex.c ****         frequency = SystemCoreClock;
1525:../../Drivers/STM32F3xx_HAL_Driver/Src/stm32f3xx_hal_rcc_ex.c ****       }
1526:../../Drivers/STM32F3xx_HAL_Driver/Src/stm32f3xx_hal_rcc_ex.c ****       /* Clock not enabled for TIM17*/
1527:../../Drivers/STM32F3xx_HAL_Driver/Src/stm32f3xx_hal_rcc_ex.c ****       else
1528:../../Drivers/STM32F3xx_HAL_Driver/Src/stm32f3xx_hal_rcc_ex.c ****       {
1529:../../Drivers/STM32F3xx_HAL_Driver/Src/stm32f3xx_hal_rcc_ex.c ****         frequency = 0U;
1530:../../Drivers/STM32F3xx_HAL_Driver/Src/stm32f3xx_hal_rcc_ex.c ****       }
1531:../../Drivers/STM32F3xx_HAL_Driver/Src/stm32f3xx_hal_rcc_ex.c ****       break;
1532:../../Drivers/STM32F3xx_HAL_Driver/Src/stm32f3xx_hal_rcc_ex.c ****     }
1533:../../Drivers/STM32F3xx_HAL_Driver/Src/stm32f3xx_hal_rcc_ex.c **** #endif /* RCC_CFGR3_TIM17SW */
1534:../../Drivers/STM32F3xx_HAL_Driver/Src/stm32f3xx_hal_rcc_ex.c **** #if defined(RCC_CFGR3_TIM20SW)
1535:../../Drivers/STM32F3xx_HAL_Driver/Src/stm32f3xx_hal_rcc_ex.c ****   case RCC_PERIPHCLK_TIM20:
1536:../../Drivers/STM32F3xx_HAL_Driver/Src/stm32f3xx_hal_rcc_ex.c ****     {
1537:../../Drivers/STM32F3xx_HAL_Driver/Src/stm32f3xx_hal_rcc_ex.c ****       /* Get the current TIM20 source */
1538:../../Drivers/STM32F3xx_HAL_Driver/Src/stm32f3xx_hal_rcc_ex.c ****       srcclk = __HAL_RCC_GET_TIM20_SOURCE();
1539:../../Drivers/STM32F3xx_HAL_Driver/Src/stm32f3xx_hal_rcc_ex.c **** 
1540:../../Drivers/STM32F3xx_HAL_Driver/Src/stm32f3xx_hal_rcc_ex.c ****       /* Check if PLL is ready and if TIM20 clock selection is PLL */
1541:../../Drivers/STM32F3xx_HAL_Driver/Src/stm32f3xx_hal_rcc_ex.c ****       if ((srcclk == RCC_TIM20CLK_PLLCLK) && (HAL_IS_BIT_SET(RCC->CR, RCC_CR_PLLRDY)))
1542:../../Drivers/STM32F3xx_HAL_Driver/Src/stm32f3xx_hal_rcc_ex.c ****       {
1543:../../Drivers/STM32F3xx_HAL_Driver/Src/stm32f3xx_hal_rcc_ex.c ****         frequency = RCC_GetPLLCLKFreq();
1544:../../Drivers/STM32F3xx_HAL_Driver/Src/stm32f3xx_hal_rcc_ex.c ****       }
1545:../../Drivers/STM32F3xx_HAL_Driver/Src/stm32f3xx_hal_rcc_ex.c ****       /* Check if TIM20 clock selection is SYSCLK */
1546:../../Drivers/STM32F3xx_HAL_Driver/Src/stm32f3xx_hal_rcc_ex.c ****       else if (srcclk == RCC_TIM20CLK_HCLK)
1547:../../Drivers/STM32F3xx_HAL_Driver/Src/stm32f3xx_hal_rcc_ex.c ****       {
1548:../../Drivers/STM32F3xx_HAL_Driver/Src/stm32f3xx_hal_rcc_ex.c ****         frequency = SystemCoreClock;
1549:../../Drivers/STM32F3xx_HAL_Driver/Src/stm32f3xx_hal_rcc_ex.c ****       }
1550:../../Drivers/STM32F3xx_HAL_Driver/Src/stm32f3xx_hal_rcc_ex.c ****       /* Clock not enabled for TIM20*/
1551:../../Drivers/STM32F3xx_HAL_Driver/Src/stm32f3xx_hal_rcc_ex.c ****       else
1552:../../Drivers/STM32F3xx_HAL_Driver/Src/stm32f3xx_hal_rcc_ex.c ****       {
1553:../../Drivers/STM32F3xx_HAL_Driver/Src/stm32f3xx_hal_rcc_ex.c ****         frequency = 0U;
1554:../../Drivers/STM32F3xx_HAL_Driver/Src/stm32f3xx_hal_rcc_ex.c ****       }
1555:../../Drivers/STM32F3xx_HAL_Driver/Src/stm32f3xx_hal_rcc_ex.c ****       break;
1556:../../Drivers/STM32F3xx_HAL_Driver/Src/stm32f3xx_hal_rcc_ex.c ****     }
1557:../../Drivers/STM32F3xx_HAL_Driver/Src/stm32f3xx_hal_rcc_ex.c **** #endif /* RCC_CFGR3_TIM20SW */
ARM GAS  /tmp/ccIre3F4.s 			page 52


1558:../../Drivers/STM32F3xx_HAL_Driver/Src/stm32f3xx_hal_rcc_ex.c **** #if defined(RCC_CFGR3_TIM34SW)
1559:../../Drivers/STM32F3xx_HAL_Driver/Src/stm32f3xx_hal_rcc_ex.c ****   case RCC_PERIPHCLK_TIM34:
1560:../../Drivers/STM32F3xx_HAL_Driver/Src/stm32f3xx_hal_rcc_ex.c ****     {
1561:../../Drivers/STM32F3xx_HAL_Driver/Src/stm32f3xx_hal_rcc_ex.c ****       /* Get the current TIM34 source */
1562:../../Drivers/STM32F3xx_HAL_Driver/Src/stm32f3xx_hal_rcc_ex.c ****       srcclk = __HAL_RCC_GET_TIM34_SOURCE();
1563:../../Drivers/STM32F3xx_HAL_Driver/Src/stm32f3xx_hal_rcc_ex.c **** 
1564:../../Drivers/STM32F3xx_HAL_Driver/Src/stm32f3xx_hal_rcc_ex.c ****       /* Check if PLL is ready and if TIM34 clock selection is PLL */
1565:../../Drivers/STM32F3xx_HAL_Driver/Src/stm32f3xx_hal_rcc_ex.c ****       if ((srcclk == RCC_TIM34CLK_PLLCLK) && (HAL_IS_BIT_SET(RCC->CR, RCC_CR_PLLRDY)))
1566:../../Drivers/STM32F3xx_HAL_Driver/Src/stm32f3xx_hal_rcc_ex.c ****       {
1567:../../Drivers/STM32F3xx_HAL_Driver/Src/stm32f3xx_hal_rcc_ex.c ****         frequency = RCC_GetPLLCLKFreq();
1568:../../Drivers/STM32F3xx_HAL_Driver/Src/stm32f3xx_hal_rcc_ex.c ****       }
1569:../../Drivers/STM32F3xx_HAL_Driver/Src/stm32f3xx_hal_rcc_ex.c ****       /* Check if TIM34 clock selection is SYSCLK */
1570:../../Drivers/STM32F3xx_HAL_Driver/Src/stm32f3xx_hal_rcc_ex.c ****       else if (srcclk == RCC_TIM34CLK_HCLK)
1571:../../Drivers/STM32F3xx_HAL_Driver/Src/stm32f3xx_hal_rcc_ex.c ****       {
1572:../../Drivers/STM32F3xx_HAL_Driver/Src/stm32f3xx_hal_rcc_ex.c ****         frequency = SystemCoreClock;
1573:../../Drivers/STM32F3xx_HAL_Driver/Src/stm32f3xx_hal_rcc_ex.c ****       }
1574:../../Drivers/STM32F3xx_HAL_Driver/Src/stm32f3xx_hal_rcc_ex.c ****       /* Clock not enabled for TIM34*/
1575:../../Drivers/STM32F3xx_HAL_Driver/Src/stm32f3xx_hal_rcc_ex.c ****       else
1576:../../Drivers/STM32F3xx_HAL_Driver/Src/stm32f3xx_hal_rcc_ex.c ****       {
1577:../../Drivers/STM32F3xx_HAL_Driver/Src/stm32f3xx_hal_rcc_ex.c ****         frequency = 0U;
1578:../../Drivers/STM32F3xx_HAL_Driver/Src/stm32f3xx_hal_rcc_ex.c ****       }
1579:../../Drivers/STM32F3xx_HAL_Driver/Src/stm32f3xx_hal_rcc_ex.c ****       break;
1580:../../Drivers/STM32F3xx_HAL_Driver/Src/stm32f3xx_hal_rcc_ex.c ****     }
1581:../../Drivers/STM32F3xx_HAL_Driver/Src/stm32f3xx_hal_rcc_ex.c **** #endif /* RCC_CFGR3_TIM34SW */
