ARM GAS  /tmp/ccBBHnuc.s 			page 1


   1              		.syntax unified
   2              		.cpu cortex-m4
   3              		.eabi_attribute 27, 1
   4              		.eabi_attribute 28, 1
   5              		.fpu fpv4-sp-d16
   6              		.eabi_attribute 20, 1
   7              		.eabi_attribute 21, 1
   8              		.eabi_attribute 23, 3
   9              		.eabi_attribute 24, 1
  10              		.eabi_attribute 25, 1
  11              		.eabi_attribute 26, 1
  12              		.eabi_attribute 30, 6
  13              		.eabi_attribute 34, 1
  14              		.eabi_attribute 18, 4
  15              		.thumb
  16              		.file	"main.c"
  17              		.text
  18              	.Ltext0:
  19              		.cfi_sections	.debug_frame
  20              		.section	.text.LL_AHB1_GRP1_EnableClock,"ax",%progbits
  21              		.align	2
  22              		.thumb
  23              		.thumb_func
  25              	LL_AHB1_GRP1_EnableClock:
  26              	.LFB123:
  27              		.file 1 "../../Drivers/STM32F3xx_HAL_Driver/Inc/stm32f3xx_ll_bus.h"
   1:../../Drivers/STM32F3xx_HAL_Driver/Inc/stm32f3xx_ll_bus.h **** /**
   2:../../Drivers/STM32F3xx_HAL_Driver/Inc/stm32f3xx_ll_bus.h ****   ******************************************************************************
   3:../../Drivers/STM32F3xx_HAL_Driver/Inc/stm32f3xx_ll_bus.h ****   * @file    stm32f3xx_ll_bus.h
   4:../../Drivers/STM32F3xx_HAL_Driver/Inc/stm32f3xx_ll_bus.h ****   * @author  MCD Application Team
   5:../../Drivers/STM32F3xx_HAL_Driver/Inc/stm32f3xx_ll_bus.h ****   * @brief   Header file of BUS LL module.
   6:../../Drivers/STM32F3xx_HAL_Driver/Inc/stm32f3xx_ll_bus.h **** 
   7:../../Drivers/STM32F3xx_HAL_Driver/Inc/stm32f3xx_ll_bus.h ****   @verbatim                
   8:../../Drivers/STM32F3xx_HAL_Driver/Inc/stm32f3xx_ll_bus.h ****                       ##### RCC Limitations #####
   9:../../Drivers/STM32F3xx_HAL_Driver/Inc/stm32f3xx_ll_bus.h ****   ==============================================================================
  10:../../Drivers/STM32F3xx_HAL_Driver/Inc/stm32f3xx_ll_bus.h ****     [..]  
  11:../../Drivers/STM32F3xx_HAL_Driver/Inc/stm32f3xx_ll_bus.h ****       A delay between an RCC peripheral clock enable and the effective peripheral 
  12:../../Drivers/STM32F3xx_HAL_Driver/Inc/stm32f3xx_ll_bus.h ****       enabling should be taken into account in order to manage the peripheral read/write 
  13:../../Drivers/STM32F3xx_HAL_Driver/Inc/stm32f3xx_ll_bus.h ****       from/to registers.
  14:../../Drivers/STM32F3xx_HAL_Driver/Inc/stm32f3xx_ll_bus.h ****       (+) This delay depends on the peripheral mapping.
  15:../../Drivers/STM32F3xx_HAL_Driver/Inc/stm32f3xx_ll_bus.h ****         (++) AHB & APB peripherals, 1 dummy read is necessary
  16:../../Drivers/STM32F3xx_HAL_Driver/Inc/stm32f3xx_ll_bus.h **** 
  17:../../Drivers/STM32F3xx_HAL_Driver/Inc/stm32f3xx_ll_bus.h ****     [..]  
  18:../../Drivers/STM32F3xx_HAL_Driver/Inc/stm32f3xx_ll_bus.h ****       Workarounds:
  19:../../Drivers/STM32F3xx_HAL_Driver/Inc/stm32f3xx_ll_bus.h ****       (#) For AHB & APB peripherals, a dummy read to the peripheral register has been
  20:../../Drivers/STM32F3xx_HAL_Driver/Inc/stm32f3xx_ll_bus.h ****           inserted in each LL_{BUS}_GRP{x}_EnableClock() function.
  21:../../Drivers/STM32F3xx_HAL_Driver/Inc/stm32f3xx_ll_bus.h **** 
  22:../../Drivers/STM32F3xx_HAL_Driver/Inc/stm32f3xx_ll_bus.h ****   @endverbatim
  23:../../Drivers/STM32F3xx_HAL_Driver/Inc/stm32f3xx_ll_bus.h ****   ******************************************************************************
  24:../../Drivers/STM32F3xx_HAL_Driver/Inc/stm32f3xx_ll_bus.h ****   * @attention
  25:../../Drivers/STM32F3xx_HAL_Driver/Inc/stm32f3xx_ll_bus.h ****   *
  26:../../Drivers/STM32F3xx_HAL_Driver/Inc/stm32f3xx_ll_bus.h ****   * <h2><center>&copy; COPYRIGHT(c) 2016 STMicroelectronics</center></h2>
  27:../../Drivers/STM32F3xx_HAL_Driver/Inc/stm32f3xx_ll_bus.h ****   *
  28:../../Drivers/STM32F3xx_HAL_Driver/Inc/stm32f3xx_ll_bus.h ****   * Redistribution and use in source and binary forms, with or without modification,
  29:../../Drivers/STM32F3xx_HAL_Driver/Inc/stm32f3xx_ll_bus.h ****   * are permitted provided that the following conditions are met:
  30:../../Drivers/STM32F3xx_HAL_Driver/Inc/stm32f3xx_ll_bus.h ****   *   1. Redistributions of source code must retain the above copyright notice,
  31:../../Drivers/STM32F3xx_HAL_Driver/Inc/stm32f3xx_ll_bus.h ****   *      this list of conditions and the following disclaimer.
ARM GAS  /tmp/ccBBHnuc.s 			page 2


  32:../../Drivers/STM32F3xx_HAL_Driver/Inc/stm32f3xx_ll_bus.h ****   *   2. Redistributions in binary form must reproduce the above copyright notice,
  33:../../Drivers/STM32F3xx_HAL_Driver/Inc/stm32f3xx_ll_bus.h ****   *      this list of conditions and the following disclaimer in the documentation
  34:../../Drivers/STM32F3xx_HAL_Driver/Inc/stm32f3xx_ll_bus.h ****   *      and/or other materials provided with the distribution.
  35:../../Drivers/STM32F3xx_HAL_Driver/Inc/stm32f3xx_ll_bus.h ****   *   3. Neither the name of STMicroelectronics nor the names of its contributors
  36:../../Drivers/STM32F3xx_HAL_Driver/Inc/stm32f3xx_ll_bus.h ****   *      may be used to endorse or promote products derived from this software
  37:../../Drivers/STM32F3xx_HAL_Driver/Inc/stm32f3xx_ll_bus.h ****   *      without specific prior written permission.
  38:../../Drivers/STM32F3xx_HAL_Driver/Inc/stm32f3xx_ll_bus.h ****   *
  39:../../Drivers/STM32F3xx_HAL_Driver/Inc/stm32f3xx_ll_bus.h ****   * THIS SOFTWARE IS PROVIDED BY THE COPYRIGHT HOLDERS AND CONTRIBUTORS "AS IS"
  40:../../Drivers/STM32F3xx_HAL_Driver/Inc/stm32f3xx_ll_bus.h ****   * AND ANY EXPRESS OR IMPLIED WARRANTIES, INCLUDING, BUT NOT LIMITED TO, THE
  41:../../Drivers/STM32F3xx_HAL_Driver/Inc/stm32f3xx_ll_bus.h ****   * IMPLIED WARRANTIES OF MERCHANTABILITY AND FITNESS FOR A PARTICULAR PURPOSE ARE
  42:../../Drivers/STM32F3xx_HAL_Driver/Inc/stm32f3xx_ll_bus.h ****   * DISCLAIMED. IN NO EVENT SHALL THE COPYRIGHT HOLDER OR CONTRIBUTORS BE LIABLE
  43:../../Drivers/STM32F3xx_HAL_Driver/Inc/stm32f3xx_ll_bus.h ****   * FOR ANY DIRECT, INDIRECT, INCIDENTAL, SPECIAL, EXEMPLARY, OR CONSEQUENTIAL
  44:../../Drivers/STM32F3xx_HAL_Driver/Inc/stm32f3xx_ll_bus.h ****   * DAMAGES (INCLUDING, BUT NOT LIMITED TO, PROCUREMENT OF SUBSTITUTE GOODS OR
  45:../../Drivers/STM32F3xx_HAL_Driver/Inc/stm32f3xx_ll_bus.h ****   * SERVICES; LOSS OF USE, DATA, OR PROFITS; OR BUSINESS INTERRUPTION) HOWEVER
  46:../../Drivers/STM32F3xx_HAL_Driver/Inc/stm32f3xx_ll_bus.h ****   * CAUSED AND ON ANY THEORY OF LIABILITY, WHETHER IN CONTRACT, STRICT LIABILITY,
  47:../../Drivers/STM32F3xx_HAL_Driver/Inc/stm32f3xx_ll_bus.h ****   * OR TORT (INCLUDING NEGLIGENCE OR OTHERWISE) ARISING IN ANY WAY OUT OF THE USE
  48:../../Drivers/STM32F3xx_HAL_Driver/Inc/stm32f3xx_ll_bus.h ****   * OF THIS SOFTWARE, EVEN IF ADVISED OF THE POSSIBILITY OF SUCH DAMAGE.
  49:../../Drivers/STM32F3xx_HAL_Driver/Inc/stm32f3xx_ll_bus.h ****   *
  50:../../Drivers/STM32F3xx_HAL_Driver/Inc/stm32f3xx_ll_bus.h ****   ******************************************************************************
  51:../../Drivers/STM32F3xx_HAL_Driver/Inc/stm32f3xx_ll_bus.h ****   */
  52:../../Drivers/STM32F3xx_HAL_Driver/Inc/stm32f3xx_ll_bus.h **** 
  53:../../Drivers/STM32F3xx_HAL_Driver/Inc/stm32f3xx_ll_bus.h **** /* Define to prevent recursive inclusion -------------------------------------*/
  54:../../Drivers/STM32F3xx_HAL_Driver/Inc/stm32f3xx_ll_bus.h **** #ifndef __STM32F3xx_LL_BUS_H
  55:../../Drivers/STM32F3xx_HAL_Driver/Inc/stm32f3xx_ll_bus.h **** #define __STM32F3xx_LL_BUS_H
  56:../../Drivers/STM32F3xx_HAL_Driver/Inc/stm32f3xx_ll_bus.h **** 
  57:../../Drivers/STM32F3xx_HAL_Driver/Inc/stm32f3xx_ll_bus.h **** #ifdef __cplusplus
  58:../../Drivers/STM32F3xx_HAL_Driver/Inc/stm32f3xx_ll_bus.h **** extern "C" {
  59:../../Drivers/STM32F3xx_HAL_Driver/Inc/stm32f3xx_ll_bus.h **** #endif
  60:../../Drivers/STM32F3xx_HAL_Driver/Inc/stm32f3xx_ll_bus.h **** 
  61:../../Drivers/STM32F3xx_HAL_Driver/Inc/stm32f3xx_ll_bus.h **** /* Includes ------------------------------------------------------------------*/
  62:../../Drivers/STM32F3xx_HAL_Driver/Inc/stm32f3xx_ll_bus.h **** #include "stm32f3xx.h"
  63:../../Drivers/STM32F3xx_HAL_Driver/Inc/stm32f3xx_ll_bus.h **** 
  64:../../Drivers/STM32F3xx_HAL_Driver/Inc/stm32f3xx_ll_bus.h **** /** @addtogroup STM32F3xx_LL_Driver
  65:../../Drivers/STM32F3xx_HAL_Driver/Inc/stm32f3xx_ll_bus.h ****   * @{
  66:../../Drivers/STM32F3xx_HAL_Driver/Inc/stm32f3xx_ll_bus.h ****   */
  67:../../Drivers/STM32F3xx_HAL_Driver/Inc/stm32f3xx_ll_bus.h **** 
  68:../../Drivers/STM32F3xx_HAL_Driver/Inc/stm32f3xx_ll_bus.h **** #if defined(RCC)
  69:../../Drivers/STM32F3xx_HAL_Driver/Inc/stm32f3xx_ll_bus.h **** 
  70:../../Drivers/STM32F3xx_HAL_Driver/Inc/stm32f3xx_ll_bus.h **** /** @defgroup BUS_LL BUS
  71:../../Drivers/STM32F3xx_HAL_Driver/Inc/stm32f3xx_ll_bus.h ****   * @{
  72:../../Drivers/STM32F3xx_HAL_Driver/Inc/stm32f3xx_ll_bus.h ****   */
  73:../../Drivers/STM32F3xx_HAL_Driver/Inc/stm32f3xx_ll_bus.h **** 
  74:../../Drivers/STM32F3xx_HAL_Driver/Inc/stm32f3xx_ll_bus.h **** /* Private types -------------------------------------------------------------*/
  75:../../Drivers/STM32F3xx_HAL_Driver/Inc/stm32f3xx_ll_bus.h **** /* Private variables ---------------------------------------------------------*/
  76:../../Drivers/STM32F3xx_HAL_Driver/Inc/stm32f3xx_ll_bus.h **** 
  77:../../Drivers/STM32F3xx_HAL_Driver/Inc/stm32f3xx_ll_bus.h **** /* Private constants ---------------------------------------------------------*/
  78:../../Drivers/STM32F3xx_HAL_Driver/Inc/stm32f3xx_ll_bus.h **** 
  79:../../Drivers/STM32F3xx_HAL_Driver/Inc/stm32f3xx_ll_bus.h **** /* Private macros ------------------------------------------------------------*/
  80:../../Drivers/STM32F3xx_HAL_Driver/Inc/stm32f3xx_ll_bus.h **** 
  81:../../Drivers/STM32F3xx_HAL_Driver/Inc/stm32f3xx_ll_bus.h **** /* Exported types ------------------------------------------------------------*/
  82:../../Drivers/STM32F3xx_HAL_Driver/Inc/stm32f3xx_ll_bus.h **** /* Exported constants --------------------------------------------------------*/
  83:../../Drivers/STM32F3xx_HAL_Driver/Inc/stm32f3xx_ll_bus.h **** /** @defgroup BUS_LL_Exported_Constants BUS Exported Constants
  84:../../Drivers/STM32F3xx_HAL_Driver/Inc/stm32f3xx_ll_bus.h ****   * @{
  85:../../Drivers/STM32F3xx_HAL_Driver/Inc/stm32f3xx_ll_bus.h ****   */
  86:../../Drivers/STM32F3xx_HAL_Driver/Inc/stm32f3xx_ll_bus.h **** 
  87:../../Drivers/STM32F3xx_HAL_Driver/Inc/stm32f3xx_ll_bus.h **** /** @defgroup BUS_LL_EC_AHB1_GRP1_PERIPH  AHB1 GRP1 PERIPH
  88:../../Drivers/STM32F3xx_HAL_Driver/Inc/stm32f3xx_ll_bus.h ****   * @{
ARM GAS  /tmp/ccBBHnuc.s 			page 3


  89:../../Drivers/STM32F3xx_HAL_Driver/Inc/stm32f3xx_ll_bus.h ****   */
  90:../../Drivers/STM32F3xx_HAL_Driver/Inc/stm32f3xx_ll_bus.h **** #define LL_AHB1_GRP1_PERIPH_ALL            (uint32_t)0xFFFFFFFFU
  91:../../Drivers/STM32F3xx_HAL_Driver/Inc/stm32f3xx_ll_bus.h **** #define LL_AHB1_GRP1_PERIPH_DMA1           RCC_AHBENR_DMA1EN
  92:../../Drivers/STM32F3xx_HAL_Driver/Inc/stm32f3xx_ll_bus.h **** #if defined(DMA2)
  93:../../Drivers/STM32F3xx_HAL_Driver/Inc/stm32f3xx_ll_bus.h **** #define LL_AHB1_GRP1_PERIPH_DMA2           RCC_AHBENR_DMA2EN
  94:../../Drivers/STM32F3xx_HAL_Driver/Inc/stm32f3xx_ll_bus.h **** #endif /*DMA2*/
  95:../../Drivers/STM32F3xx_HAL_Driver/Inc/stm32f3xx_ll_bus.h **** #define LL_AHB1_GRP1_PERIPH_SRAM           RCC_AHBENR_SRAMEN
  96:../../Drivers/STM32F3xx_HAL_Driver/Inc/stm32f3xx_ll_bus.h **** #define LL_AHB1_GRP1_PERIPH_FLASH          RCC_AHBENR_FLITFEN
  97:../../Drivers/STM32F3xx_HAL_Driver/Inc/stm32f3xx_ll_bus.h **** #if defined(FMC_Bank1)
  98:../../Drivers/STM32F3xx_HAL_Driver/Inc/stm32f3xx_ll_bus.h **** #define LL_AHB1_GRP1_PERIPH_FMC            RCC_AHBENR_FMCEN
  99:../../Drivers/STM32F3xx_HAL_Driver/Inc/stm32f3xx_ll_bus.h **** #endif /*FMC_Bank1*/
 100:../../Drivers/STM32F3xx_HAL_Driver/Inc/stm32f3xx_ll_bus.h **** #define LL_AHB1_GRP1_PERIPH_CRC            RCC_AHBENR_CRCEN
 101:../../Drivers/STM32F3xx_HAL_Driver/Inc/stm32f3xx_ll_bus.h **** #if defined(GPIOH)
 102:../../Drivers/STM32F3xx_HAL_Driver/Inc/stm32f3xx_ll_bus.h **** #define LL_AHB1_GRP1_PERIPH_GPIOH          RCC_AHBENR_GPIOHEN
 103:../../Drivers/STM32F3xx_HAL_Driver/Inc/stm32f3xx_ll_bus.h **** #endif /*GPIOH*/
 104:../../Drivers/STM32F3xx_HAL_Driver/Inc/stm32f3xx_ll_bus.h **** #define LL_AHB1_GRP1_PERIPH_GPIOA          RCC_AHBENR_GPIOAEN
 105:../../Drivers/STM32F3xx_HAL_Driver/Inc/stm32f3xx_ll_bus.h **** #define LL_AHB1_GRP1_PERIPH_GPIOB          RCC_AHBENR_GPIOBEN
 106:../../Drivers/STM32F3xx_HAL_Driver/Inc/stm32f3xx_ll_bus.h **** #define LL_AHB1_GRP1_PERIPH_GPIOC          RCC_AHBENR_GPIOCEN
 107:../../Drivers/STM32F3xx_HAL_Driver/Inc/stm32f3xx_ll_bus.h **** #define LL_AHB1_GRP1_PERIPH_GPIOD          RCC_AHBENR_GPIODEN
 108:../../Drivers/STM32F3xx_HAL_Driver/Inc/stm32f3xx_ll_bus.h **** #if defined(GPIOE)
 109:../../Drivers/STM32F3xx_HAL_Driver/Inc/stm32f3xx_ll_bus.h **** #define LL_AHB1_GRP1_PERIPH_GPIOE          RCC_AHBENR_GPIOEEN
 110:../../Drivers/STM32F3xx_HAL_Driver/Inc/stm32f3xx_ll_bus.h **** #endif /*GPIOE*/
 111:../../Drivers/STM32F3xx_HAL_Driver/Inc/stm32f3xx_ll_bus.h **** #define LL_AHB1_GRP1_PERIPH_GPIOF          RCC_AHBENR_GPIOFEN
 112:../../Drivers/STM32F3xx_HAL_Driver/Inc/stm32f3xx_ll_bus.h **** #if defined(GPIOG)
 113:../../Drivers/STM32F3xx_HAL_Driver/Inc/stm32f3xx_ll_bus.h **** #define LL_AHB1_GRP1_PERIPH_GPIOG          RCC_AHBENR_GPIOGEN
 114:../../Drivers/STM32F3xx_HAL_Driver/Inc/stm32f3xx_ll_bus.h **** #endif /*GPIOH*/
 115:../../Drivers/STM32F3xx_HAL_Driver/Inc/stm32f3xx_ll_bus.h **** #define LL_AHB1_GRP1_PERIPH_TSC            RCC_AHBENR_TSCEN
 116:../../Drivers/STM32F3xx_HAL_Driver/Inc/stm32f3xx_ll_bus.h **** #if defined(RCC_AHBENR_ADC1EN)
 117:../../Drivers/STM32F3xx_HAL_Driver/Inc/stm32f3xx_ll_bus.h **** #define LL_AHB1_GRP1_PERIPH_ADC1           RCC_AHBENR_ADC1EN
 118:../../Drivers/STM32F3xx_HAL_Driver/Inc/stm32f3xx_ll_bus.h **** #endif /*RCC_AHBENR_ADC1EN*/
 119:../../Drivers/STM32F3xx_HAL_Driver/Inc/stm32f3xx_ll_bus.h **** #if defined(ADC1_2_COMMON)
 120:../../Drivers/STM32F3xx_HAL_Driver/Inc/stm32f3xx_ll_bus.h **** #define LL_AHB1_GRP1_PERIPH_ADC12          RCC_AHBENR_ADC12EN
 121:../../Drivers/STM32F3xx_HAL_Driver/Inc/stm32f3xx_ll_bus.h **** #endif /*ADC1_2_COMMON*/
 122:../../Drivers/STM32F3xx_HAL_Driver/Inc/stm32f3xx_ll_bus.h **** #if defined(ADC3_4_COMMON)
 123:../../Drivers/STM32F3xx_HAL_Driver/Inc/stm32f3xx_ll_bus.h **** #define LL_AHB1_GRP1_PERIPH_ADC34          RCC_AHBENR_ADC34EN
 124:../../Drivers/STM32F3xx_HAL_Driver/Inc/stm32f3xx_ll_bus.h **** #endif /*ADC3_4_COMMON*/
 125:../../Drivers/STM32F3xx_HAL_Driver/Inc/stm32f3xx_ll_bus.h **** /**
 126:../../Drivers/STM32F3xx_HAL_Driver/Inc/stm32f3xx_ll_bus.h ****   * @}
 127:../../Drivers/STM32F3xx_HAL_Driver/Inc/stm32f3xx_ll_bus.h ****   */
 128:../../Drivers/STM32F3xx_HAL_Driver/Inc/stm32f3xx_ll_bus.h **** 
 129:../../Drivers/STM32F3xx_HAL_Driver/Inc/stm32f3xx_ll_bus.h **** /** @defgroup BUS_LL_EC_APB1_GRP1_PERIPH  APB1 GRP1 PERIPH
 130:../../Drivers/STM32F3xx_HAL_Driver/Inc/stm32f3xx_ll_bus.h ****   * @{
 131:../../Drivers/STM32F3xx_HAL_Driver/Inc/stm32f3xx_ll_bus.h ****   */
 132:../../Drivers/STM32F3xx_HAL_Driver/Inc/stm32f3xx_ll_bus.h **** #define LL_APB1_GRP1_PERIPH_ALL            (uint32_t)0xFFFFFFFFU
 133:../../Drivers/STM32F3xx_HAL_Driver/Inc/stm32f3xx_ll_bus.h **** #define LL_APB1_GRP1_PERIPH_TIM2           RCC_APB1ENR_TIM2EN
 134:../../Drivers/STM32F3xx_HAL_Driver/Inc/stm32f3xx_ll_bus.h **** #if defined(TIM3)
 135:../../Drivers/STM32F3xx_HAL_Driver/Inc/stm32f3xx_ll_bus.h **** #define LL_APB1_GRP1_PERIPH_TIM3           RCC_APB1ENR_TIM3EN
 136:../../Drivers/STM32F3xx_HAL_Driver/Inc/stm32f3xx_ll_bus.h **** #endif /*TIM3*/
 137:../../Drivers/STM32F3xx_HAL_Driver/Inc/stm32f3xx_ll_bus.h **** #if defined(TIM4)
 138:../../Drivers/STM32F3xx_HAL_Driver/Inc/stm32f3xx_ll_bus.h **** #define LL_APB1_GRP1_PERIPH_TIM4           RCC_APB1ENR_TIM4EN
 139:../../Drivers/STM32F3xx_HAL_Driver/Inc/stm32f3xx_ll_bus.h **** #endif /*TIM4*/
 140:../../Drivers/STM32F3xx_HAL_Driver/Inc/stm32f3xx_ll_bus.h **** #if defined(TIM5)
 141:../../Drivers/STM32F3xx_HAL_Driver/Inc/stm32f3xx_ll_bus.h **** #define LL_APB1_GRP1_PERIPH_TIM5           RCC_APB1ENR_TIM5EN
 142:../../Drivers/STM32F3xx_HAL_Driver/Inc/stm32f3xx_ll_bus.h **** #endif /*TIM5*/
 143:../../Drivers/STM32F3xx_HAL_Driver/Inc/stm32f3xx_ll_bus.h **** #define LL_APB1_GRP1_PERIPH_TIM6           RCC_APB1ENR_TIM6EN
 144:../../Drivers/STM32F3xx_HAL_Driver/Inc/stm32f3xx_ll_bus.h **** #if defined(TIM7)
 145:../../Drivers/STM32F3xx_HAL_Driver/Inc/stm32f3xx_ll_bus.h **** #define LL_APB1_GRP1_PERIPH_TIM7           RCC_APB1ENR_TIM7EN
ARM GAS  /tmp/ccBBHnuc.s 			page 4


 146:../../Drivers/STM32F3xx_HAL_Driver/Inc/stm32f3xx_ll_bus.h **** #endif /*TIM7*/
 147:../../Drivers/STM32F3xx_HAL_Driver/Inc/stm32f3xx_ll_bus.h **** #if defined(TIM12)
 148:../../Drivers/STM32F3xx_HAL_Driver/Inc/stm32f3xx_ll_bus.h **** #define LL_APB1_GRP1_PERIPH_TIM12          RCC_APB1ENR_TIM12EN
 149:../../Drivers/STM32F3xx_HAL_Driver/Inc/stm32f3xx_ll_bus.h **** #endif /*TIM12*/
 150:../../Drivers/STM32F3xx_HAL_Driver/Inc/stm32f3xx_ll_bus.h **** #if defined(TIM13)
 151:../../Drivers/STM32F3xx_HAL_Driver/Inc/stm32f3xx_ll_bus.h **** #define LL_APB1_GRP1_PERIPH_TIM13          RCC_APB1ENR_TIM13EN
 152:../../Drivers/STM32F3xx_HAL_Driver/Inc/stm32f3xx_ll_bus.h **** #endif /*TIM13*/
 153:../../Drivers/STM32F3xx_HAL_Driver/Inc/stm32f3xx_ll_bus.h **** #if defined(TIM14)
 154:../../Drivers/STM32F3xx_HAL_Driver/Inc/stm32f3xx_ll_bus.h **** #define LL_APB1_GRP1_PERIPH_TIM14          RCC_APB1ENR_TIM14EN
 155:../../Drivers/STM32F3xx_HAL_Driver/Inc/stm32f3xx_ll_bus.h **** #endif /*TIM14*/
 156:../../Drivers/STM32F3xx_HAL_Driver/Inc/stm32f3xx_ll_bus.h **** #if defined(TIM18)
 157:../../Drivers/STM32F3xx_HAL_Driver/Inc/stm32f3xx_ll_bus.h **** #define LL_APB1_GRP1_PERIPH_TIM18          RCC_APB1ENR_TIM18EN
 158:../../Drivers/STM32F3xx_HAL_Driver/Inc/stm32f3xx_ll_bus.h **** #endif /*TIM18*/
 159:../../Drivers/STM32F3xx_HAL_Driver/Inc/stm32f3xx_ll_bus.h **** #define LL_APB1_GRP1_PERIPH_WWDG           RCC_APB1ENR_WWDGEN
 160:../../Drivers/STM32F3xx_HAL_Driver/Inc/stm32f3xx_ll_bus.h **** #if defined(SPI2)
 161:../../Drivers/STM32F3xx_HAL_Driver/Inc/stm32f3xx_ll_bus.h **** #define LL_APB1_GRP1_PERIPH_SPI2           RCC_APB1ENR_SPI2EN
 162:../../Drivers/STM32F3xx_HAL_Driver/Inc/stm32f3xx_ll_bus.h **** #endif /*SPI2*/
 163:../../Drivers/STM32F3xx_HAL_Driver/Inc/stm32f3xx_ll_bus.h **** #if defined(SPI3)
 164:../../Drivers/STM32F3xx_HAL_Driver/Inc/stm32f3xx_ll_bus.h **** #define LL_APB1_GRP1_PERIPH_SPI3           RCC_APB1ENR_SPI3EN
 165:../../Drivers/STM32F3xx_HAL_Driver/Inc/stm32f3xx_ll_bus.h **** #endif /*SPI3*/
 166:../../Drivers/STM32F3xx_HAL_Driver/Inc/stm32f3xx_ll_bus.h **** #define LL_APB1_GRP1_PERIPH_USART2         RCC_APB1ENR_USART2EN
 167:../../Drivers/STM32F3xx_HAL_Driver/Inc/stm32f3xx_ll_bus.h **** #define LL_APB1_GRP1_PERIPH_USART3         RCC_APB1ENR_USART3EN
 168:../../Drivers/STM32F3xx_HAL_Driver/Inc/stm32f3xx_ll_bus.h **** #if defined(UART4)
 169:../../Drivers/STM32F3xx_HAL_Driver/Inc/stm32f3xx_ll_bus.h **** #define LL_APB1_GRP1_PERIPH_UART4          RCC_APB1ENR_UART4EN
 170:../../Drivers/STM32F3xx_HAL_Driver/Inc/stm32f3xx_ll_bus.h **** #endif /*UART4*/
 171:../../Drivers/STM32F3xx_HAL_Driver/Inc/stm32f3xx_ll_bus.h **** #if defined(UART5)
 172:../../Drivers/STM32F3xx_HAL_Driver/Inc/stm32f3xx_ll_bus.h **** #define LL_APB1_GRP1_PERIPH_UART5          RCC_APB1ENR_UART5EN
 173:../../Drivers/STM32F3xx_HAL_Driver/Inc/stm32f3xx_ll_bus.h **** #endif /*UART5*/
 174:../../Drivers/STM32F3xx_HAL_Driver/Inc/stm32f3xx_ll_bus.h **** #define LL_APB1_GRP1_PERIPH_I2C1           RCC_APB1ENR_I2C1EN
 175:../../Drivers/STM32F3xx_HAL_Driver/Inc/stm32f3xx_ll_bus.h **** #if defined(I2C2)
 176:../../Drivers/STM32F3xx_HAL_Driver/Inc/stm32f3xx_ll_bus.h **** #define LL_APB1_GRP1_PERIPH_I2C2           RCC_APB1ENR_I2C2EN
 177:../../Drivers/STM32F3xx_HAL_Driver/Inc/stm32f3xx_ll_bus.h **** #endif /*I2C2*/
 178:../../Drivers/STM32F3xx_HAL_Driver/Inc/stm32f3xx_ll_bus.h **** #if defined(USB)
 179:../../Drivers/STM32F3xx_HAL_Driver/Inc/stm32f3xx_ll_bus.h **** #define LL_APB1_GRP1_PERIPH_USB            RCC_APB1ENR_USBEN
 180:../../Drivers/STM32F3xx_HAL_Driver/Inc/stm32f3xx_ll_bus.h **** #endif /*USB*/
 181:../../Drivers/STM32F3xx_HAL_Driver/Inc/stm32f3xx_ll_bus.h **** #if defined(CAN)
 182:../../Drivers/STM32F3xx_HAL_Driver/Inc/stm32f3xx_ll_bus.h **** #define LL_APB1_GRP1_PERIPH_CAN            RCC_APB1ENR_CANEN
 183:../../Drivers/STM32F3xx_HAL_Driver/Inc/stm32f3xx_ll_bus.h **** #endif /*CAN*/
 184:../../Drivers/STM32F3xx_HAL_Driver/Inc/stm32f3xx_ll_bus.h **** #if defined(DAC2)
 185:../../Drivers/STM32F3xx_HAL_Driver/Inc/stm32f3xx_ll_bus.h **** #define LL_APB1_GRP1_PERIPH_DAC2           RCC_APB1ENR_DAC2EN
 186:../../Drivers/STM32F3xx_HAL_Driver/Inc/stm32f3xx_ll_bus.h **** #endif /*DAC2*/
 187:../../Drivers/STM32F3xx_HAL_Driver/Inc/stm32f3xx_ll_bus.h **** #define LL_APB1_GRP1_PERIPH_PWR            RCC_APB1ENR_PWREN
 188:../../Drivers/STM32F3xx_HAL_Driver/Inc/stm32f3xx_ll_bus.h **** #define LL_APB1_GRP1_PERIPH_DAC1           RCC_APB1ENR_DAC1EN
 189:../../Drivers/STM32F3xx_HAL_Driver/Inc/stm32f3xx_ll_bus.h **** #if defined(CEC)
 190:../../Drivers/STM32F3xx_HAL_Driver/Inc/stm32f3xx_ll_bus.h **** #define LL_APB1_GRP1_PERIPH_CEC            RCC_APB1ENR_CECEN
 191:../../Drivers/STM32F3xx_HAL_Driver/Inc/stm32f3xx_ll_bus.h **** #endif /*CEC*/
 192:../../Drivers/STM32F3xx_HAL_Driver/Inc/stm32f3xx_ll_bus.h **** #if defined(I2C3)
 193:../../Drivers/STM32F3xx_HAL_Driver/Inc/stm32f3xx_ll_bus.h **** #define LL_APB1_GRP1_PERIPH_I2C3           RCC_APB1ENR_I2C3EN
 194:../../Drivers/STM32F3xx_HAL_Driver/Inc/stm32f3xx_ll_bus.h **** #endif /*I2C3*/
 195:../../Drivers/STM32F3xx_HAL_Driver/Inc/stm32f3xx_ll_bus.h **** /**
 196:../../Drivers/STM32F3xx_HAL_Driver/Inc/stm32f3xx_ll_bus.h ****   * @}
 197:../../Drivers/STM32F3xx_HAL_Driver/Inc/stm32f3xx_ll_bus.h ****   */
 198:../../Drivers/STM32F3xx_HAL_Driver/Inc/stm32f3xx_ll_bus.h **** 
 199:../../Drivers/STM32F3xx_HAL_Driver/Inc/stm32f3xx_ll_bus.h **** /** @defgroup BUS_LL_EC_APB2_GRP1_PERIPH  APB2 GRP1 PERIPH
 200:../../Drivers/STM32F3xx_HAL_Driver/Inc/stm32f3xx_ll_bus.h ****   * @{
 201:../../Drivers/STM32F3xx_HAL_Driver/Inc/stm32f3xx_ll_bus.h ****   */
 202:../../Drivers/STM32F3xx_HAL_Driver/Inc/stm32f3xx_ll_bus.h **** #define LL_APB2_GRP1_PERIPH_ALL            (uint32_t)0xFFFFFFFFU
ARM GAS  /tmp/ccBBHnuc.s 			page 5


 203:../../Drivers/STM32F3xx_HAL_Driver/Inc/stm32f3xx_ll_bus.h **** #define LL_APB2_GRP1_PERIPH_SYSCFG         RCC_APB2ENR_SYSCFGEN
 204:../../Drivers/STM32F3xx_HAL_Driver/Inc/stm32f3xx_ll_bus.h **** #if defined(RCC_APB2ENR_ADC1EN)
 205:../../Drivers/STM32F3xx_HAL_Driver/Inc/stm32f3xx_ll_bus.h **** #define LL_APB2_GRP1_PERIPH_ADC1           RCC_APB2ENR_ADC1EN
 206:../../Drivers/STM32F3xx_HAL_Driver/Inc/stm32f3xx_ll_bus.h **** #endif /*RCC_APB2ENR_ADC1EN*/
 207:../../Drivers/STM32F3xx_HAL_Driver/Inc/stm32f3xx_ll_bus.h **** #if defined(TIM1)
 208:../../Drivers/STM32F3xx_HAL_Driver/Inc/stm32f3xx_ll_bus.h **** #define LL_APB2_GRP1_PERIPH_TIM1           RCC_APB2ENR_TIM1EN
 209:../../Drivers/STM32F3xx_HAL_Driver/Inc/stm32f3xx_ll_bus.h **** #endif /*TIM1*/
 210:../../Drivers/STM32F3xx_HAL_Driver/Inc/stm32f3xx_ll_bus.h **** #if defined(SPI1)
 211:../../Drivers/STM32F3xx_HAL_Driver/Inc/stm32f3xx_ll_bus.h **** #define LL_APB2_GRP1_PERIPH_SPI1           RCC_APB2ENR_SPI1EN
 212:../../Drivers/STM32F3xx_HAL_Driver/Inc/stm32f3xx_ll_bus.h **** #endif /*SPI1*/
 213:../../Drivers/STM32F3xx_HAL_Driver/Inc/stm32f3xx_ll_bus.h **** #if defined(TIM8)
 214:../../Drivers/STM32F3xx_HAL_Driver/Inc/stm32f3xx_ll_bus.h **** #define LL_APB2_GRP1_PERIPH_TIM8           RCC_APB2ENR_TIM8EN
 215:../../Drivers/STM32F3xx_HAL_Driver/Inc/stm32f3xx_ll_bus.h **** #endif /*TIM8*/
 216:../../Drivers/STM32F3xx_HAL_Driver/Inc/stm32f3xx_ll_bus.h **** #define LL_APB2_GRP1_PERIPH_USART1         RCC_APB2ENR_USART1EN
 217:../../Drivers/STM32F3xx_HAL_Driver/Inc/stm32f3xx_ll_bus.h **** #if defined(SPI4)
 218:../../Drivers/STM32F3xx_HAL_Driver/Inc/stm32f3xx_ll_bus.h **** #define LL_APB2_GRP1_PERIPH_SPI4           RCC_APB2ENR_SPI4EN
 219:../../Drivers/STM32F3xx_HAL_Driver/Inc/stm32f3xx_ll_bus.h **** #endif /*SPI4*/
 220:../../Drivers/STM32F3xx_HAL_Driver/Inc/stm32f3xx_ll_bus.h **** #define LL_APB2_GRP1_PERIPH_TIM15          RCC_APB2ENR_TIM15EN
 221:../../Drivers/STM32F3xx_HAL_Driver/Inc/stm32f3xx_ll_bus.h **** #define LL_APB2_GRP1_PERIPH_TIM16          RCC_APB2ENR_TIM16EN
 222:../../Drivers/STM32F3xx_HAL_Driver/Inc/stm32f3xx_ll_bus.h **** #define LL_APB2_GRP1_PERIPH_TIM17          RCC_APB2ENR_TIM17EN
 223:../../Drivers/STM32F3xx_HAL_Driver/Inc/stm32f3xx_ll_bus.h **** #if defined(TIM19)
 224:../../Drivers/STM32F3xx_HAL_Driver/Inc/stm32f3xx_ll_bus.h **** #define LL_APB2_GRP1_PERIPH_TIM19          RCC_APB2ENR_TIM19EN
 225:../../Drivers/STM32F3xx_HAL_Driver/Inc/stm32f3xx_ll_bus.h **** #endif /*TIM19*/
 226:../../Drivers/STM32F3xx_HAL_Driver/Inc/stm32f3xx_ll_bus.h **** #if defined(TIM20)
 227:../../Drivers/STM32F3xx_HAL_Driver/Inc/stm32f3xx_ll_bus.h **** #define LL_APB2_GRP1_PERIPH_TIM20          RCC_APB2ENR_TIM20EN
 228:../../Drivers/STM32F3xx_HAL_Driver/Inc/stm32f3xx_ll_bus.h **** #endif /*TIM20*/
 229:../../Drivers/STM32F3xx_HAL_Driver/Inc/stm32f3xx_ll_bus.h **** #if defined(HRTIM1)
 230:../../Drivers/STM32F3xx_HAL_Driver/Inc/stm32f3xx_ll_bus.h **** #define LL_APB2_GRP1_PERIPH_HRTIM1         RCC_APB2ENR_HRTIM1EN
 231:../../Drivers/STM32F3xx_HAL_Driver/Inc/stm32f3xx_ll_bus.h **** #endif /*HRTIM1*/
 232:../../Drivers/STM32F3xx_HAL_Driver/Inc/stm32f3xx_ll_bus.h **** #if defined(SDADC1)
 233:../../Drivers/STM32F3xx_HAL_Driver/Inc/stm32f3xx_ll_bus.h **** #define LL_APB2_GRP1_PERIPH_SDADC1         RCC_APB2ENR_SDADC1EN
 234:../../Drivers/STM32F3xx_HAL_Driver/Inc/stm32f3xx_ll_bus.h **** #endif /*SDADC1*/
 235:../../Drivers/STM32F3xx_HAL_Driver/Inc/stm32f3xx_ll_bus.h **** #if defined(SDADC2)
 236:../../Drivers/STM32F3xx_HAL_Driver/Inc/stm32f3xx_ll_bus.h **** #define LL_APB2_GRP1_PERIPH_SDADC2         RCC_APB2ENR_SDADC2EN
 237:../../Drivers/STM32F3xx_HAL_Driver/Inc/stm32f3xx_ll_bus.h **** #endif /*SDADC2*/
 238:../../Drivers/STM32F3xx_HAL_Driver/Inc/stm32f3xx_ll_bus.h **** #if defined(SDADC3)
 239:../../Drivers/STM32F3xx_HAL_Driver/Inc/stm32f3xx_ll_bus.h **** #define LL_APB2_GRP1_PERIPH_SDADC3         RCC_APB2ENR_SDADC3EN
 240:../../Drivers/STM32F3xx_HAL_Driver/Inc/stm32f3xx_ll_bus.h **** #endif /*SDADC3*/
 241:../../Drivers/STM32F3xx_HAL_Driver/Inc/stm32f3xx_ll_bus.h **** /**
 242:../../Drivers/STM32F3xx_HAL_Driver/Inc/stm32f3xx_ll_bus.h ****   * @}
 243:../../Drivers/STM32F3xx_HAL_Driver/Inc/stm32f3xx_ll_bus.h ****   */
 244:../../Drivers/STM32F3xx_HAL_Driver/Inc/stm32f3xx_ll_bus.h **** 
 245:../../Drivers/STM32F3xx_HAL_Driver/Inc/stm32f3xx_ll_bus.h **** /**
 246:../../Drivers/STM32F3xx_HAL_Driver/Inc/stm32f3xx_ll_bus.h ****   * @}
 247:../../Drivers/STM32F3xx_HAL_Driver/Inc/stm32f3xx_ll_bus.h ****   */
 248:../../Drivers/STM32F3xx_HAL_Driver/Inc/stm32f3xx_ll_bus.h **** 
 249:../../Drivers/STM32F3xx_HAL_Driver/Inc/stm32f3xx_ll_bus.h **** /* Exported macro ------------------------------------------------------------*/
 250:../../Drivers/STM32F3xx_HAL_Driver/Inc/stm32f3xx_ll_bus.h **** 
 251:../../Drivers/STM32F3xx_HAL_Driver/Inc/stm32f3xx_ll_bus.h **** /* Exported functions --------------------------------------------------------*/
 252:../../Drivers/STM32F3xx_HAL_Driver/Inc/stm32f3xx_ll_bus.h **** /** @defgroup BUS_LL_Exported_Functions BUS Exported Functions
 253:../../Drivers/STM32F3xx_HAL_Driver/Inc/stm32f3xx_ll_bus.h ****   * @{
 254:../../Drivers/STM32F3xx_HAL_Driver/Inc/stm32f3xx_ll_bus.h ****   */
 255:../../Drivers/STM32F3xx_HAL_Driver/Inc/stm32f3xx_ll_bus.h **** 
 256:../../Drivers/STM32F3xx_HAL_Driver/Inc/stm32f3xx_ll_bus.h **** /** @defgroup BUS_LL_EF_AHB1 AHB1
 257:../../Drivers/STM32F3xx_HAL_Driver/Inc/stm32f3xx_ll_bus.h ****   * @{
 258:../../Drivers/STM32F3xx_HAL_Driver/Inc/stm32f3xx_ll_bus.h ****   */
 259:../../Drivers/STM32F3xx_HAL_Driver/Inc/stm32f3xx_ll_bus.h **** 
ARM GAS  /tmp/ccBBHnuc.s 			page 6


 260:../../Drivers/STM32F3xx_HAL_Driver/Inc/stm32f3xx_ll_bus.h **** /**
 261:../../Drivers/STM32F3xx_HAL_Driver/Inc/stm32f3xx_ll_bus.h ****   * @brief  Enable AHB1 peripherals clock.
 262:../../Drivers/STM32F3xx_HAL_Driver/Inc/stm32f3xx_ll_bus.h ****   * @rmtoll AHBENR       DMA1EN        LL_AHB1_GRP1_EnableClock\n
 263:../../Drivers/STM32F3xx_HAL_Driver/Inc/stm32f3xx_ll_bus.h ****   *         AHBENR       DMA2EN        LL_AHB1_GRP1_EnableClock\n
 264:../../Drivers/STM32F3xx_HAL_Driver/Inc/stm32f3xx_ll_bus.h ****   *         AHBENR       SRAMEN        LL_AHB1_GRP1_EnableClock\n
 265:../../Drivers/STM32F3xx_HAL_Driver/Inc/stm32f3xx_ll_bus.h ****   *         AHBENR       FLITFEN       LL_AHB1_GRP1_EnableClock\n
 266:../../Drivers/STM32F3xx_HAL_Driver/Inc/stm32f3xx_ll_bus.h ****   *         AHBENR       FMCEN         LL_AHB1_GRP1_EnableClock\n
 267:../../Drivers/STM32F3xx_HAL_Driver/Inc/stm32f3xx_ll_bus.h ****   *         AHBENR       CRCEN         LL_AHB1_GRP1_EnableClock\n
 268:../../Drivers/STM32F3xx_HAL_Driver/Inc/stm32f3xx_ll_bus.h ****   *         AHBENR       GPIOHEN       LL_AHB1_GRP1_EnableClock\n
 269:../../Drivers/STM32F3xx_HAL_Driver/Inc/stm32f3xx_ll_bus.h ****   *         AHBENR       GPIOAEN       LL_AHB1_GRP1_EnableClock\n
 270:../../Drivers/STM32F3xx_HAL_Driver/Inc/stm32f3xx_ll_bus.h ****   *         AHBENR       GPIOBEN       LL_AHB1_GRP1_EnableClock\n
 271:../../Drivers/STM32F3xx_HAL_Driver/Inc/stm32f3xx_ll_bus.h ****   *         AHBENR       GPIOCEN       LL_AHB1_GRP1_EnableClock\n
 272:../../Drivers/STM32F3xx_HAL_Driver/Inc/stm32f3xx_ll_bus.h ****   *         AHBENR       GPIODEN       LL_AHB1_GRP1_EnableClock\n
 273:../../Drivers/STM32F3xx_HAL_Driver/Inc/stm32f3xx_ll_bus.h ****   *         AHBENR       GPIOEEN       LL_AHB1_GRP1_EnableClock\n
 274:../../Drivers/STM32F3xx_HAL_Driver/Inc/stm32f3xx_ll_bus.h ****   *         AHBENR       GPIOFEN       LL_AHB1_GRP1_EnableClock\n
 275:../../Drivers/STM32F3xx_HAL_Driver/Inc/stm32f3xx_ll_bus.h ****   *         AHBENR       GPIOGEN       LL_AHB1_GRP1_EnableClock\n
 276:../../Drivers/STM32F3xx_HAL_Driver/Inc/stm32f3xx_ll_bus.h ****   *         AHBENR       TSCEN         LL_AHB1_GRP1_EnableClock\n
 277:../../Drivers/STM32F3xx_HAL_Driver/Inc/stm32f3xx_ll_bus.h ****   *         AHBENR       ADC1EN        LL_AHB1_GRP1_EnableClock\n
 278:../../Drivers/STM32F3xx_HAL_Driver/Inc/stm32f3xx_ll_bus.h ****   *         AHBENR       ADC12EN       LL_AHB1_GRP1_EnableClock\n
 279:../../Drivers/STM32F3xx_HAL_Driver/Inc/stm32f3xx_ll_bus.h ****   *         AHBENR       ADC34EN       LL_AHB1_GRP1_EnableClock
 280:../../Drivers/STM32F3xx_HAL_Driver/Inc/stm32f3xx_ll_bus.h ****   * @param  Periphs This parameter can be a combination of the following values:
 281:../../Drivers/STM32F3xx_HAL_Driver/Inc/stm32f3xx_ll_bus.h ****   *         @arg @ref LL_AHB1_GRP1_PERIPH_DMA1
 282:../../Drivers/STM32F3xx_HAL_Driver/Inc/stm32f3xx_ll_bus.h ****   *         @arg @ref LL_AHB1_GRP1_PERIPH_DMA2 (*)
 283:../../Drivers/STM32F3xx_HAL_Driver/Inc/stm32f3xx_ll_bus.h ****   *         @arg @ref LL_AHB1_GRP1_PERIPH_SRAM
 284:../../Drivers/STM32F3xx_HAL_Driver/Inc/stm32f3xx_ll_bus.h ****   *         @arg @ref LL_AHB1_GRP1_PERIPH_FLASH
 285:../../Drivers/STM32F3xx_HAL_Driver/Inc/stm32f3xx_ll_bus.h ****   *         @arg @ref LL_AHB1_GRP1_PERIPH_FMC (*)
 286:../../Drivers/STM32F3xx_HAL_Driver/Inc/stm32f3xx_ll_bus.h ****   *         @arg @ref LL_AHB1_GRP1_PERIPH_CRC
 287:../../Drivers/STM32F3xx_HAL_Driver/Inc/stm32f3xx_ll_bus.h ****   *         @arg @ref LL_AHB1_GRP1_PERIPH_GPIOH (*)
 288:../../Drivers/STM32F3xx_HAL_Driver/Inc/stm32f3xx_ll_bus.h ****   *         @arg @ref LL_AHB1_GRP1_PERIPH_GPIOA
 289:../../Drivers/STM32F3xx_HAL_Driver/Inc/stm32f3xx_ll_bus.h ****   *         @arg @ref LL_AHB1_GRP1_PERIPH_GPIOB
 290:../../Drivers/STM32F3xx_HAL_Driver/Inc/stm32f3xx_ll_bus.h ****   *         @arg @ref LL_AHB1_GRP1_PERIPH_GPIOC
 291:../../Drivers/STM32F3xx_HAL_Driver/Inc/stm32f3xx_ll_bus.h ****   *         @arg @ref LL_AHB1_GRP1_PERIPH_GPIOD
 292:../../Drivers/STM32F3xx_HAL_Driver/Inc/stm32f3xx_ll_bus.h ****   *         @arg @ref LL_AHB1_GRP1_PERIPH_GPIOE (*)
 293:../../Drivers/STM32F3xx_HAL_Driver/Inc/stm32f3xx_ll_bus.h ****   *         @arg @ref LL_AHB1_GRP1_PERIPH_GPIOF
 294:../../Drivers/STM32F3xx_HAL_Driver/Inc/stm32f3xx_ll_bus.h ****   *         @arg @ref LL_AHB1_GRP1_PERIPH_GPIOG (*)
 295:../../Drivers/STM32F3xx_HAL_Driver/Inc/stm32f3xx_ll_bus.h ****   *         @arg @ref LL_AHB1_GRP1_PERIPH_TSC
 296:../../Drivers/STM32F3xx_HAL_Driver/Inc/stm32f3xx_ll_bus.h ****   *         @arg @ref LL_AHB1_GRP1_PERIPH_ADC1 (*)
 297:../../Drivers/STM32F3xx_HAL_Driver/Inc/stm32f3xx_ll_bus.h ****   *         @arg @ref LL_AHB1_GRP1_PERIPH_ADC12 (*)
 298:../../Drivers/STM32F3xx_HAL_Driver/Inc/stm32f3xx_ll_bus.h ****   *         @arg @ref LL_AHB1_GRP1_PERIPH_ADC34 (*)
 299:../../Drivers/STM32F3xx_HAL_Driver/Inc/stm32f3xx_ll_bus.h ****   *
 300:../../Drivers/STM32F3xx_HAL_Driver/Inc/stm32f3xx_ll_bus.h ****   *         (*) value not defined in all devices.
 301:../../Drivers/STM32F3xx_HAL_Driver/Inc/stm32f3xx_ll_bus.h ****   * @retval None
 302:../../Drivers/STM32F3xx_HAL_Driver/Inc/stm32f3xx_ll_bus.h **** */
 303:../../Drivers/STM32F3xx_HAL_Driver/Inc/stm32f3xx_ll_bus.h **** __STATIC_INLINE void LL_AHB1_GRP1_EnableClock(uint32_t Periphs)
 304:../../Drivers/STM32F3xx_HAL_Driver/Inc/stm32f3xx_ll_bus.h **** {
  28              		.loc 1 304 0
  29              		.cfi_startproc
  30              		@ args = 0, pretend = 0, frame = 16
  31              		@ frame_needed = 1, uses_anonymous_args = 0
  32              		@ link register save eliminated.
  33 0000 80B4     		push	{r7}
  34              	.LCFI0:
  35              		.cfi_def_cfa_offset 4
  36              		.cfi_offset 7, -4
  37 0002 85B0     		sub	sp, sp, #20
  38              	.LCFI1:
  39              		.cfi_def_cfa_offset 24
ARM GAS  /tmp/ccBBHnuc.s 			page 7


  40 0004 00AF     		add	r7, sp, #0
  41              	.LCFI2:
  42              		.cfi_def_cfa_register 7
  43 0006 7860     		str	r0, [r7, #4]
 305:../../Drivers/STM32F3xx_HAL_Driver/Inc/stm32f3xx_ll_bus.h ****   __IO uint32_t tmpreg;
 306:../../Drivers/STM32F3xx_HAL_Driver/Inc/stm32f3xx_ll_bus.h ****   SET_BIT(RCC->AHBENR, Periphs);
  44              		.loc 1 306 0
  45 0008 0849     		ldr	r1, .L2
  46 000a 084B     		ldr	r3, .L2
  47 000c 5A69     		ldr	r2, [r3, #20]
  48 000e 7B68     		ldr	r3, [r7, #4]
  49 0010 1343     		orrs	r3, r3, r2
  50 0012 4B61     		str	r3, [r1, #20]
 307:../../Drivers/STM32F3xx_HAL_Driver/Inc/stm32f3xx_ll_bus.h ****   /* Delay after an RCC peripheral clock enabling */
 308:../../Drivers/STM32F3xx_HAL_Driver/Inc/stm32f3xx_ll_bus.h ****   tmpreg = READ_BIT(RCC->AHBENR, Periphs);
  51              		.loc 1 308 0
  52 0014 054B     		ldr	r3, .L2
  53 0016 5A69     		ldr	r2, [r3, #20]
  54 0018 7B68     		ldr	r3, [r7, #4]
  55 001a 1340     		ands	r3, r3, r2
  56 001c FB60     		str	r3, [r7, #12]
 309:../../Drivers/STM32F3xx_HAL_Driver/Inc/stm32f3xx_ll_bus.h ****   (void)tmpreg;
  57              		.loc 1 309 0
  58 001e FB68     		ldr	r3, [r7, #12]
 310:../../Drivers/STM32F3xx_HAL_Driver/Inc/stm32f3xx_ll_bus.h **** }
  59              		.loc 1 310 0
  60 0020 1437     		adds	r7, r7, #20
  61              	.LCFI3:
  62              		.cfi_def_cfa_offset 4
  63 0022 BD46     		mov	sp, r7
  64              	.LCFI4:
  65              		.cfi_def_cfa_register 13
  66              		@ sp needed
  67 0024 5DF8047B 		ldr	r7, [sp], #4
  68              	.LCFI5:
  69              		.cfi_restore 7
  70              		.cfi_def_cfa_offset 0
  71 0028 7047     		bx	lr
  72              	.L3:
  73 002a 00BF     		.align	2
  74              	.L2:
  75 002c 00100240 		.word	1073876992
  76              		.cfi_endproc
  77              	.LFE123:
  79              		.section	.text.LL_RCC_ConfigMCO,"ax",%progbits
  80              		.align	2
  81              		.thumb
  82              		.thumb_func
  84              	LL_RCC_ConfigMCO:
  85              	.LFB169:
  86              		.file 2 "../../Drivers/STM32F3xx_HAL_Driver/Inc/stm32f3xx_ll_rcc.h"
   1:../../Drivers/STM32F3xx_HAL_Driver/Inc/stm32f3xx_ll_rcc.h **** /**
   2:../../Drivers/STM32F3xx_HAL_Driver/Inc/stm32f3xx_ll_rcc.h ****   ******************************************************************************
   3:../../Drivers/STM32F3xx_HAL_Driver/Inc/stm32f3xx_ll_rcc.h ****   * @file    stm32f3xx_ll_rcc.h
   4:../../Drivers/STM32F3xx_HAL_Driver/Inc/stm32f3xx_ll_rcc.h ****   * @author  MCD Application Team
   5:../../Drivers/STM32F3xx_HAL_Driver/Inc/stm32f3xx_ll_rcc.h ****   * @brief   Header file of RCC LL module.
   6:../../Drivers/STM32F3xx_HAL_Driver/Inc/stm32f3xx_ll_rcc.h ****   ******************************************************************************
ARM GAS  /tmp/ccBBHnuc.s 			page 8


   7:../../Drivers/STM32F3xx_HAL_Driver/Inc/stm32f3xx_ll_rcc.h ****   * @attention
   8:../../Drivers/STM32F3xx_HAL_Driver/Inc/stm32f3xx_ll_rcc.h ****   *
   9:../../Drivers/STM32F3xx_HAL_Driver/Inc/stm32f3xx_ll_rcc.h ****   * <h2><center>&copy; COPYRIGHT(c) 2016 STMicroelectronics</center></h2>
  10:../../Drivers/STM32F3xx_HAL_Driver/Inc/stm32f3xx_ll_rcc.h ****   *
  11:../../Drivers/STM32F3xx_HAL_Driver/Inc/stm32f3xx_ll_rcc.h ****   * Redistribution and use in source and binary forms, with or without modification,
  12:../../Drivers/STM32F3xx_HAL_Driver/Inc/stm32f3xx_ll_rcc.h ****   * are permitted provided that the following conditions are met:
  13:../../Drivers/STM32F3xx_HAL_Driver/Inc/stm32f3xx_ll_rcc.h ****   *   1. Redistributions of source code must retain the above copyright notice,
  14:../../Drivers/STM32F3xx_HAL_Driver/Inc/stm32f3xx_ll_rcc.h ****   *      this list of conditions and the following disclaimer.
  15:../../Drivers/STM32F3xx_HAL_Driver/Inc/stm32f3xx_ll_rcc.h ****   *   2. Redistributions in binary form must reproduce the above copyright notice,
  16:../../Drivers/STM32F3xx_HAL_Driver/Inc/stm32f3xx_ll_rcc.h ****   *      this list of conditions and the following disclaimer in the documentation
  17:../../Drivers/STM32F3xx_HAL_Driver/Inc/stm32f3xx_ll_rcc.h ****   *      and/or other materials provided with the distribution.
  18:../../Drivers/STM32F3xx_HAL_Driver/Inc/stm32f3xx_ll_rcc.h ****   *   3. Neither the name of STMicroelectronics nor the names of its contributors
  19:../../Drivers/STM32F3xx_HAL_Driver/Inc/stm32f3xx_ll_rcc.h ****   *      may be used to endorse or promote products derived from this software
  20:../../Drivers/STM32F3xx_HAL_Driver/Inc/stm32f3xx_ll_rcc.h ****   *      without specific prior written permission.
  21:../../Drivers/STM32F3xx_HAL_Driver/Inc/stm32f3xx_ll_rcc.h ****   *
  22:../../Drivers/STM32F3xx_HAL_Driver/Inc/stm32f3xx_ll_rcc.h ****   * THIS SOFTWARE IS PROVIDED BY THE COPYRIGHT HOLDERS AND CONTRIBUTORS "AS IS"
  23:../../Drivers/STM32F3xx_HAL_Driver/Inc/stm32f3xx_ll_rcc.h ****   * AND ANY EXPRESS OR IMPLIED WARRANTIES, INCLUDING, BUT NOT LIMITED TO, THE
  24:../../Drivers/STM32F3xx_HAL_Driver/Inc/stm32f3xx_ll_rcc.h ****   * IMPLIED WARRANTIES OF MERCHANTABILITY AND FITNESS FOR A PARTICULAR PURPOSE ARE
  25:../../Drivers/STM32F3xx_HAL_Driver/Inc/stm32f3xx_ll_rcc.h ****   * DISCLAIMED. IN NO EVENT SHALL THE COPYRIGHT HOLDER OR CONTRIBUTORS BE LIABLE
  26:../../Drivers/STM32F3xx_HAL_Driver/Inc/stm32f3xx_ll_rcc.h ****   * FOR ANY DIRECT, INDIRECT, INCIDENTAL, SPECIAL, EXEMPLARY, OR CONSEQUENTIAL
  27:../../Drivers/STM32F3xx_HAL_Driver/Inc/stm32f3xx_ll_rcc.h ****   * DAMAGES (INCLUDING, BUT NOT LIMITED TO, PROCUREMENT OF SUBSTITUTE GOODS OR
  28:../../Drivers/STM32F3xx_HAL_Driver/Inc/stm32f3xx_ll_rcc.h ****   * SERVICES; LOSS OF USE, DATA, OR PROFITS; OR BUSINESS INTERRUPTION) HOWEVER
  29:../../Drivers/STM32F3xx_HAL_Driver/Inc/stm32f3xx_ll_rcc.h ****   * CAUSED AND ON ANY THEORY OF LIABILITY, WHETHER IN CONTRACT, STRICT LIABILITY,
  30:../../Drivers/STM32F3xx_HAL_Driver/Inc/stm32f3xx_ll_rcc.h ****   * OR TORT (INCLUDING NEGLIGENCE OR OTHERWISE) ARISING IN ANY WAY OUT OF THE USE
  31:../../Drivers/STM32F3xx_HAL_Driver/Inc/stm32f3xx_ll_rcc.h ****   * OF THIS SOFTWARE, EVEN IF ADVISED OF THE POSSIBILITY OF SUCH DAMAGE.
  32:../../Drivers/STM32F3xx_HAL_Driver/Inc/stm32f3xx_ll_rcc.h ****   *
  33:../../Drivers/STM32F3xx_HAL_Driver/Inc/stm32f3xx_ll_rcc.h ****   ******************************************************************************
  34:../../Drivers/STM32F3xx_HAL_Driver/Inc/stm32f3xx_ll_rcc.h ****   */
  35:../../Drivers/STM32F3xx_HAL_Driver/Inc/stm32f3xx_ll_rcc.h **** 
  36:../../Drivers/STM32F3xx_HAL_Driver/Inc/stm32f3xx_ll_rcc.h **** /* Define to prevent recursive inclusion -------------------------------------*/
  37:../../Drivers/STM32F3xx_HAL_Driver/Inc/stm32f3xx_ll_rcc.h **** #ifndef __STM32F3xx_LL_RCC_H
  38:../../Drivers/STM32F3xx_HAL_Driver/Inc/stm32f3xx_ll_rcc.h **** #define __STM32F3xx_LL_RCC_H
  39:../../Drivers/STM32F3xx_HAL_Driver/Inc/stm32f3xx_ll_rcc.h **** 
  40:../../Drivers/STM32F3xx_HAL_Driver/Inc/stm32f3xx_ll_rcc.h **** #ifdef __cplusplus
  41:../../Drivers/STM32F3xx_HAL_Driver/Inc/stm32f3xx_ll_rcc.h **** extern "C" {
  42:../../Drivers/STM32F3xx_HAL_Driver/Inc/stm32f3xx_ll_rcc.h **** #endif
  43:../../Drivers/STM32F3xx_HAL_Driver/Inc/stm32f3xx_ll_rcc.h **** 
  44:../../Drivers/STM32F3xx_HAL_Driver/Inc/stm32f3xx_ll_rcc.h **** /* Includes ------------------------------------------------------------------*/
  45:../../Drivers/STM32F3xx_HAL_Driver/Inc/stm32f3xx_ll_rcc.h **** #include "stm32f3xx.h"
  46:../../Drivers/STM32F3xx_HAL_Driver/Inc/stm32f3xx_ll_rcc.h **** 
  47:../../Drivers/STM32F3xx_HAL_Driver/Inc/stm32f3xx_ll_rcc.h **** /** @addtogroup STM32F3xx_LL_Driver
  48:../../Drivers/STM32F3xx_HAL_Driver/Inc/stm32f3xx_ll_rcc.h ****   * @{
  49:../../Drivers/STM32F3xx_HAL_Driver/Inc/stm32f3xx_ll_rcc.h ****   */
  50:../../Drivers/STM32F3xx_HAL_Driver/Inc/stm32f3xx_ll_rcc.h **** 
  51:../../Drivers/STM32F3xx_HAL_Driver/Inc/stm32f3xx_ll_rcc.h **** #if defined(RCC)
  52:../../Drivers/STM32F3xx_HAL_Driver/Inc/stm32f3xx_ll_rcc.h **** 
  53:../../Drivers/STM32F3xx_HAL_Driver/Inc/stm32f3xx_ll_rcc.h **** /** @defgroup RCC_LL RCC
  54:../../Drivers/STM32F3xx_HAL_Driver/Inc/stm32f3xx_ll_rcc.h ****   * @{
  55:../../Drivers/STM32F3xx_HAL_Driver/Inc/stm32f3xx_ll_rcc.h ****   */
  56:../../Drivers/STM32F3xx_HAL_Driver/Inc/stm32f3xx_ll_rcc.h **** 
  57:../../Drivers/STM32F3xx_HAL_Driver/Inc/stm32f3xx_ll_rcc.h **** /* Private types -------------------------------------------------------------*/
  58:../../Drivers/STM32F3xx_HAL_Driver/Inc/stm32f3xx_ll_rcc.h **** /* Private variables ---------------------------------------------------------*/
  59:../../Drivers/STM32F3xx_HAL_Driver/Inc/stm32f3xx_ll_rcc.h **** /* Private constants ---------------------------------------------------------*/
  60:../../Drivers/STM32F3xx_HAL_Driver/Inc/stm32f3xx_ll_rcc.h **** /** @defgroup RCC_LL_Private_Constants RCC Private Constants
  61:../../Drivers/STM32F3xx_HAL_Driver/Inc/stm32f3xx_ll_rcc.h ****   * @{
  62:../../Drivers/STM32F3xx_HAL_Driver/Inc/stm32f3xx_ll_rcc.h ****   */
  63:../../Drivers/STM32F3xx_HAL_Driver/Inc/stm32f3xx_ll_rcc.h **** /* Defines used for the bit position in the register and perform offsets*/
ARM GAS  /tmp/ccBBHnuc.s 			page 9


  64:../../Drivers/STM32F3xx_HAL_Driver/Inc/stm32f3xx_ll_rcc.h **** #define RCC_POSITION_HPRE       (uint32_t)POSITION_VAL(RCC_CFGR_HPRE)     /*!< field position in re
  65:../../Drivers/STM32F3xx_HAL_Driver/Inc/stm32f3xx_ll_rcc.h **** #define RCC_POSITION_PPRE1      (uint32_t)POSITION_VAL(RCC_CFGR_PPRE1)    /*!< field position in re
  66:../../Drivers/STM32F3xx_HAL_Driver/Inc/stm32f3xx_ll_rcc.h **** #define RCC_POSITION_PPRE2      (uint32_t)POSITION_VAL(RCC_CFGR_PPRE2)    /*!< field position in re
  67:../../Drivers/STM32F3xx_HAL_Driver/Inc/stm32f3xx_ll_rcc.h **** #define RCC_POSITION_HSICAL     (uint32_t)POSITION_VAL(RCC_CR_HSICAL)     /*!< field position in re
  68:../../Drivers/STM32F3xx_HAL_Driver/Inc/stm32f3xx_ll_rcc.h **** #define RCC_POSITION_HSITRIM    (uint32_t)POSITION_VAL(RCC_CR_HSITRIM)    /*!< field position in re
  69:../../Drivers/STM32F3xx_HAL_Driver/Inc/stm32f3xx_ll_rcc.h **** #define RCC_POSITION_PLLMUL     (uint32_t)POSITION_VAL(RCC_CFGR_PLLMUL)   /*!< field position in re
  70:../../Drivers/STM32F3xx_HAL_Driver/Inc/stm32f3xx_ll_rcc.h **** #define RCC_POSITION_USART1SW   (uint32_t)0U                              /*!< field position in re
  71:../../Drivers/STM32F3xx_HAL_Driver/Inc/stm32f3xx_ll_rcc.h **** #define RCC_POSITION_USART2SW   (uint32_t)16U                             /*!< field position in re
  72:../../Drivers/STM32F3xx_HAL_Driver/Inc/stm32f3xx_ll_rcc.h **** #define RCC_POSITION_USART3SW   (uint32_t)18U                             /*!< field position in re
  73:../../Drivers/STM32F3xx_HAL_Driver/Inc/stm32f3xx_ll_rcc.h **** #define RCC_POSITION_TIM1SW     (uint32_t)8U                              /*!< field position in re
  74:../../Drivers/STM32F3xx_HAL_Driver/Inc/stm32f3xx_ll_rcc.h **** #define RCC_POSITION_TIM8SW     (uint32_t)9U                              /*!< field position in re
  75:../../Drivers/STM32F3xx_HAL_Driver/Inc/stm32f3xx_ll_rcc.h **** #define RCC_POSITION_TIM15SW    (uint32_t)10U                             /*!< field position in re
  76:../../Drivers/STM32F3xx_HAL_Driver/Inc/stm32f3xx_ll_rcc.h **** #define RCC_POSITION_TIM16SW    (uint32_t)11U                             /*!< field position in re
  77:../../Drivers/STM32F3xx_HAL_Driver/Inc/stm32f3xx_ll_rcc.h **** #define RCC_POSITION_TIM17SW    (uint32_t)13U                             /*!< field position in re
  78:../../Drivers/STM32F3xx_HAL_Driver/Inc/stm32f3xx_ll_rcc.h **** #define RCC_POSITION_TIM20SW    (uint32_t)15U                             /*!< field position in re
  79:../../Drivers/STM32F3xx_HAL_Driver/Inc/stm32f3xx_ll_rcc.h **** #define RCC_POSITION_TIM2SW     (uint32_t)24U                             /*!< field position in re
  80:../../Drivers/STM32F3xx_HAL_Driver/Inc/stm32f3xx_ll_rcc.h **** #define RCC_POSITION_TIM34SW    (uint32_t)25U                             /*!< field position in re
  81:../../Drivers/STM32F3xx_HAL_Driver/Inc/stm32f3xx_ll_rcc.h **** 
  82:../../Drivers/STM32F3xx_HAL_Driver/Inc/stm32f3xx_ll_rcc.h **** /**
  83:../../Drivers/STM32F3xx_HAL_Driver/Inc/stm32f3xx_ll_rcc.h ****   * @}
  84:../../Drivers/STM32F3xx_HAL_Driver/Inc/stm32f3xx_ll_rcc.h ****   */
  85:../../Drivers/STM32F3xx_HAL_Driver/Inc/stm32f3xx_ll_rcc.h **** 
  86:../../Drivers/STM32F3xx_HAL_Driver/Inc/stm32f3xx_ll_rcc.h **** /* Private macros ------------------------------------------------------------*/
  87:../../Drivers/STM32F3xx_HAL_Driver/Inc/stm32f3xx_ll_rcc.h **** #if defined(USE_FULL_LL_DRIVER)
  88:../../Drivers/STM32F3xx_HAL_Driver/Inc/stm32f3xx_ll_rcc.h **** /** @defgroup RCC_LL_Private_Macros RCC Private Macros
  89:../../Drivers/STM32F3xx_HAL_Driver/Inc/stm32f3xx_ll_rcc.h ****   * @{
  90:../../Drivers/STM32F3xx_HAL_Driver/Inc/stm32f3xx_ll_rcc.h ****   */
  91:../../Drivers/STM32F3xx_HAL_Driver/Inc/stm32f3xx_ll_rcc.h **** /**
  92:../../Drivers/STM32F3xx_HAL_Driver/Inc/stm32f3xx_ll_rcc.h ****   * @}
  93:../../Drivers/STM32F3xx_HAL_Driver/Inc/stm32f3xx_ll_rcc.h ****   */
  94:../../Drivers/STM32F3xx_HAL_Driver/Inc/stm32f3xx_ll_rcc.h **** #endif /*USE_FULL_LL_DRIVER*/
  95:../../Drivers/STM32F3xx_HAL_Driver/Inc/stm32f3xx_ll_rcc.h **** /* Exported types ------------------------------------------------------------*/
  96:../../Drivers/STM32F3xx_HAL_Driver/Inc/stm32f3xx_ll_rcc.h **** #if defined(USE_FULL_LL_DRIVER)
  97:../../Drivers/STM32F3xx_HAL_Driver/Inc/stm32f3xx_ll_rcc.h **** /** @defgroup RCC_LL_Exported_Types RCC Exported Types
  98:../../Drivers/STM32F3xx_HAL_Driver/Inc/stm32f3xx_ll_rcc.h ****   * @{
  99:../../Drivers/STM32F3xx_HAL_Driver/Inc/stm32f3xx_ll_rcc.h ****   */
 100:../../Drivers/STM32F3xx_HAL_Driver/Inc/stm32f3xx_ll_rcc.h **** 
 101:../../Drivers/STM32F3xx_HAL_Driver/Inc/stm32f3xx_ll_rcc.h **** /** @defgroup LL_ES_CLOCK_FREQ Clocks Frequency Structure
 102:../../Drivers/STM32F3xx_HAL_Driver/Inc/stm32f3xx_ll_rcc.h ****   * @{
 103:../../Drivers/STM32F3xx_HAL_Driver/Inc/stm32f3xx_ll_rcc.h ****   */
 104:../../Drivers/STM32F3xx_HAL_Driver/Inc/stm32f3xx_ll_rcc.h **** 
 105:../../Drivers/STM32F3xx_HAL_Driver/Inc/stm32f3xx_ll_rcc.h **** /**
 106:../../Drivers/STM32F3xx_HAL_Driver/Inc/stm32f3xx_ll_rcc.h ****   * @brief  RCC Clocks Frequency Structure
 107:../../Drivers/STM32F3xx_HAL_Driver/Inc/stm32f3xx_ll_rcc.h ****   */
 108:../../Drivers/STM32F3xx_HAL_Driver/Inc/stm32f3xx_ll_rcc.h **** typedef struct
 109:../../Drivers/STM32F3xx_HAL_Driver/Inc/stm32f3xx_ll_rcc.h **** {
 110:../../Drivers/STM32F3xx_HAL_Driver/Inc/stm32f3xx_ll_rcc.h ****   uint32_t SYSCLK_Frequency;        /*!< SYSCLK clock frequency */
 111:../../Drivers/STM32F3xx_HAL_Driver/Inc/stm32f3xx_ll_rcc.h ****   uint32_t HCLK_Frequency;          /*!< HCLK clock frequency */
 112:../../Drivers/STM32F3xx_HAL_Driver/Inc/stm32f3xx_ll_rcc.h ****   uint32_t PCLK1_Frequency;         /*!< PCLK1 clock frequency */
 113:../../Drivers/STM32F3xx_HAL_Driver/Inc/stm32f3xx_ll_rcc.h ****   uint32_t PCLK2_Frequency;         /*!< PCLK2 clock frequency */
 114:../../Drivers/STM32F3xx_HAL_Driver/Inc/stm32f3xx_ll_rcc.h **** } LL_RCC_ClocksTypeDef;
 115:../../Drivers/STM32F3xx_HAL_Driver/Inc/stm32f3xx_ll_rcc.h **** 
 116:../../Drivers/STM32F3xx_HAL_Driver/Inc/stm32f3xx_ll_rcc.h **** /**
 117:../../Drivers/STM32F3xx_HAL_Driver/Inc/stm32f3xx_ll_rcc.h ****   * @}
 118:../../Drivers/STM32F3xx_HAL_Driver/Inc/stm32f3xx_ll_rcc.h ****   */
 119:../../Drivers/STM32F3xx_HAL_Driver/Inc/stm32f3xx_ll_rcc.h **** 
 120:../../Drivers/STM32F3xx_HAL_Driver/Inc/stm32f3xx_ll_rcc.h **** /**
ARM GAS  /tmp/ccBBHnuc.s 			page 10


 121:../../Drivers/STM32F3xx_HAL_Driver/Inc/stm32f3xx_ll_rcc.h ****   * @}
 122:../../Drivers/STM32F3xx_HAL_Driver/Inc/stm32f3xx_ll_rcc.h ****   */
 123:../../Drivers/STM32F3xx_HAL_Driver/Inc/stm32f3xx_ll_rcc.h **** #endif /* USE_FULL_LL_DRIVER */
 124:../../Drivers/STM32F3xx_HAL_Driver/Inc/stm32f3xx_ll_rcc.h **** 
 125:../../Drivers/STM32F3xx_HAL_Driver/Inc/stm32f3xx_ll_rcc.h **** /* Exported constants --------------------------------------------------------*/
 126:../../Drivers/STM32F3xx_HAL_Driver/Inc/stm32f3xx_ll_rcc.h **** /** @defgroup RCC_LL_Exported_Constants RCC Exported Constants
 127:../../Drivers/STM32F3xx_HAL_Driver/Inc/stm32f3xx_ll_rcc.h ****   * @{
 128:../../Drivers/STM32F3xx_HAL_Driver/Inc/stm32f3xx_ll_rcc.h ****   */
 129:../../Drivers/STM32F3xx_HAL_Driver/Inc/stm32f3xx_ll_rcc.h **** 
 130:../../Drivers/STM32F3xx_HAL_Driver/Inc/stm32f3xx_ll_rcc.h **** /** @defgroup RCC_LL_EC_OSC_VALUES Oscillator Values adaptation
 131:../../Drivers/STM32F3xx_HAL_Driver/Inc/stm32f3xx_ll_rcc.h ****   * @brief    Defines used to adapt values of different oscillators
 132:../../Drivers/STM32F3xx_HAL_Driver/Inc/stm32f3xx_ll_rcc.h ****   * @note     These values could be modified in the user environment according to
 133:../../Drivers/STM32F3xx_HAL_Driver/Inc/stm32f3xx_ll_rcc.h ****   *           HW set-up.
 134:../../Drivers/STM32F3xx_HAL_Driver/Inc/stm32f3xx_ll_rcc.h ****   * @{
 135:../../Drivers/STM32F3xx_HAL_Driver/Inc/stm32f3xx_ll_rcc.h ****   */
 136:../../Drivers/STM32F3xx_HAL_Driver/Inc/stm32f3xx_ll_rcc.h **** #if !defined  (HSE_VALUE)
 137:../../Drivers/STM32F3xx_HAL_Driver/Inc/stm32f3xx_ll_rcc.h **** #define HSE_VALUE    8000000U  /*!< Value of the HSE oscillator in Hz */
 138:../../Drivers/STM32F3xx_HAL_Driver/Inc/stm32f3xx_ll_rcc.h **** #endif /* HSE_VALUE */
 139:../../Drivers/STM32F3xx_HAL_Driver/Inc/stm32f3xx_ll_rcc.h **** 
 140:../../Drivers/STM32F3xx_HAL_Driver/Inc/stm32f3xx_ll_rcc.h **** #if !defined  (HSI_VALUE)
 141:../../Drivers/STM32F3xx_HAL_Driver/Inc/stm32f3xx_ll_rcc.h **** #define HSI_VALUE    8000000U  /*!< Value of the HSI oscillator in Hz */
 142:../../Drivers/STM32F3xx_HAL_Driver/Inc/stm32f3xx_ll_rcc.h **** #endif /* HSI_VALUE */
 143:../../Drivers/STM32F3xx_HAL_Driver/Inc/stm32f3xx_ll_rcc.h **** 
 144:../../Drivers/STM32F3xx_HAL_Driver/Inc/stm32f3xx_ll_rcc.h **** #if !defined  (LSE_VALUE)
 145:../../Drivers/STM32F3xx_HAL_Driver/Inc/stm32f3xx_ll_rcc.h **** #define LSE_VALUE    32768U    /*!< Value of the LSE oscillator in Hz */
 146:../../Drivers/STM32F3xx_HAL_Driver/Inc/stm32f3xx_ll_rcc.h **** #endif /* LSE_VALUE */
 147:../../Drivers/STM32F3xx_HAL_Driver/Inc/stm32f3xx_ll_rcc.h **** 
 148:../../Drivers/STM32F3xx_HAL_Driver/Inc/stm32f3xx_ll_rcc.h **** #if !defined  (LSI_VALUE)
 149:../../Drivers/STM32F3xx_HAL_Driver/Inc/stm32f3xx_ll_rcc.h **** #define LSI_VALUE    32000U    /*!< Value of the LSI oscillator in Hz */
 150:../../Drivers/STM32F3xx_HAL_Driver/Inc/stm32f3xx_ll_rcc.h **** #endif /* LSI_VALUE */
 151:../../Drivers/STM32F3xx_HAL_Driver/Inc/stm32f3xx_ll_rcc.h **** /**
 152:../../Drivers/STM32F3xx_HAL_Driver/Inc/stm32f3xx_ll_rcc.h ****   * @}
 153:../../Drivers/STM32F3xx_HAL_Driver/Inc/stm32f3xx_ll_rcc.h ****   */
 154:../../Drivers/STM32F3xx_HAL_Driver/Inc/stm32f3xx_ll_rcc.h **** 
 155:../../Drivers/STM32F3xx_HAL_Driver/Inc/stm32f3xx_ll_rcc.h **** /** @defgroup RCC_LL_EC_CLEAR_FLAG Clear Flags Defines
 156:../../Drivers/STM32F3xx_HAL_Driver/Inc/stm32f3xx_ll_rcc.h ****   * @brief    Flags defines which can be used with LL_RCC_WriteReg function
 157:../../Drivers/STM32F3xx_HAL_Driver/Inc/stm32f3xx_ll_rcc.h ****   * @{
 158:../../Drivers/STM32F3xx_HAL_Driver/Inc/stm32f3xx_ll_rcc.h ****   */
 159:../../Drivers/STM32F3xx_HAL_Driver/Inc/stm32f3xx_ll_rcc.h **** #define LL_RCC_CIR_LSIRDYC                RCC_CIR_LSIRDYC     /*!< LSI Ready Interrupt Clear */
 160:../../Drivers/STM32F3xx_HAL_Driver/Inc/stm32f3xx_ll_rcc.h **** #define LL_RCC_CIR_LSERDYC                RCC_CIR_LSERDYC     /*!< LSE Ready Interrupt Clear */
 161:../../Drivers/STM32F3xx_HAL_Driver/Inc/stm32f3xx_ll_rcc.h **** #define LL_RCC_CIR_HSIRDYC                RCC_CIR_HSIRDYC     /*!< HSI Ready Interrupt Clear */
 162:../../Drivers/STM32F3xx_HAL_Driver/Inc/stm32f3xx_ll_rcc.h **** #define LL_RCC_CIR_HSERDYC                RCC_CIR_HSERDYC     /*!< HSE Ready Interrupt Clear */
 163:../../Drivers/STM32F3xx_HAL_Driver/Inc/stm32f3xx_ll_rcc.h **** #define LL_RCC_CIR_PLLRDYC                RCC_CIR_PLLRDYC     /*!< PLL Ready Interrupt Clear */
 164:../../Drivers/STM32F3xx_HAL_Driver/Inc/stm32f3xx_ll_rcc.h **** #define LL_RCC_CIR_CSSC                   RCC_CIR_CSSC        /*!< Clock Security System Interrupt 
 165:../../Drivers/STM32F3xx_HAL_Driver/Inc/stm32f3xx_ll_rcc.h **** /**
 166:../../Drivers/STM32F3xx_HAL_Driver/Inc/stm32f3xx_ll_rcc.h ****   * @}
 167:../../Drivers/STM32F3xx_HAL_Driver/Inc/stm32f3xx_ll_rcc.h ****   */
 168:../../Drivers/STM32F3xx_HAL_Driver/Inc/stm32f3xx_ll_rcc.h **** 
 169:../../Drivers/STM32F3xx_HAL_Driver/Inc/stm32f3xx_ll_rcc.h **** /** @defgroup RCC_LL_EC_GET_FLAG Get Flags Defines
 170:../../Drivers/STM32F3xx_HAL_Driver/Inc/stm32f3xx_ll_rcc.h ****   * @brief    Flags defines which can be used with LL_RCC_ReadReg function
 171:../../Drivers/STM32F3xx_HAL_Driver/Inc/stm32f3xx_ll_rcc.h ****   * @{
 172:../../Drivers/STM32F3xx_HAL_Driver/Inc/stm32f3xx_ll_rcc.h ****   */
 173:../../Drivers/STM32F3xx_HAL_Driver/Inc/stm32f3xx_ll_rcc.h **** #define LL_RCC_CIR_LSIRDYF                RCC_CIR_LSIRDYF     /*!< LSI Ready Interrupt flag */
 174:../../Drivers/STM32F3xx_HAL_Driver/Inc/stm32f3xx_ll_rcc.h **** #define LL_RCC_CIR_LSERDYF                RCC_CIR_LSERDYF     /*!< LSE Ready Interrupt flag */
 175:../../Drivers/STM32F3xx_HAL_Driver/Inc/stm32f3xx_ll_rcc.h **** #define LL_RCC_CIR_HSIRDYF                RCC_CIR_HSIRDYF     /*!< HSI Ready Interrupt flag */
 176:../../Drivers/STM32F3xx_HAL_Driver/Inc/stm32f3xx_ll_rcc.h **** #define LL_RCC_CIR_HSERDYF                RCC_CIR_HSERDYF     /*!< HSE Ready Interrupt flag */
 177:../../Drivers/STM32F3xx_HAL_Driver/Inc/stm32f3xx_ll_rcc.h **** #define LL_RCC_CFGR_MCOF                  RCC_CFGR_MCOF     /*!< MCO flag */
ARM GAS  /tmp/ccBBHnuc.s 			page 11


 178:../../Drivers/STM32F3xx_HAL_Driver/Inc/stm32f3xx_ll_rcc.h **** #define LL_RCC_CIR_PLLRDYF                RCC_CIR_PLLRDYF     /*!< PLL Ready Interrupt flag */
 179:../../Drivers/STM32F3xx_HAL_Driver/Inc/stm32f3xx_ll_rcc.h **** #define LL_RCC_CIR_CSSF                   RCC_CIR_CSSF       /*!< Clock Security System Interrupt f
 180:../../Drivers/STM32F3xx_HAL_Driver/Inc/stm32f3xx_ll_rcc.h **** #define LL_RCC_CSR_OBLRSTF                RCC_CSR_OBLRSTF         /*!< OBL reset flag */
 181:../../Drivers/STM32F3xx_HAL_Driver/Inc/stm32f3xx_ll_rcc.h **** #define LL_RCC_CSR_PINRSTF                RCC_CSR_PINRSTF         /*!< PIN reset flag */
 182:../../Drivers/STM32F3xx_HAL_Driver/Inc/stm32f3xx_ll_rcc.h **** #define LL_RCC_CSR_PORRSTF                RCC_CSR_PORRSTF         /*!< POR/PDR reset flag */
 183:../../Drivers/STM32F3xx_HAL_Driver/Inc/stm32f3xx_ll_rcc.h **** #define LL_RCC_CSR_SFTRSTF                RCC_CSR_SFTRSTF         /*!< Software Reset flag */
 184:../../Drivers/STM32F3xx_HAL_Driver/Inc/stm32f3xx_ll_rcc.h **** #define LL_RCC_CSR_IWDGRSTF               RCC_CSR_IWDGRSTF        /*!< Independent Watchdog reset f
 185:../../Drivers/STM32F3xx_HAL_Driver/Inc/stm32f3xx_ll_rcc.h **** #define LL_RCC_CSR_WWDGRSTF               RCC_CSR_WWDGRSTF        /*!< Window watchdog reset flag *
 186:../../Drivers/STM32F3xx_HAL_Driver/Inc/stm32f3xx_ll_rcc.h **** #define LL_RCC_CSR_LPWRRSTF               RCC_CSR_LPWRRSTF        /*!< Low-Power reset flag */
 187:../../Drivers/STM32F3xx_HAL_Driver/Inc/stm32f3xx_ll_rcc.h **** #if defined(RCC_CSR_V18PWRRSTF)
 188:../../Drivers/STM32F3xx_HAL_Driver/Inc/stm32f3xx_ll_rcc.h **** #define LL_RCC_CSR_V18PWRRSTF             RCC_CSR_V18PWRRSTF      /*!< Reset flag of the 1.8 V doma
 189:../../Drivers/STM32F3xx_HAL_Driver/Inc/stm32f3xx_ll_rcc.h **** #endif /* RCC_CSR_V18PWRRSTF */
 190:../../Drivers/STM32F3xx_HAL_Driver/Inc/stm32f3xx_ll_rcc.h **** /**
 191:../../Drivers/STM32F3xx_HAL_Driver/Inc/stm32f3xx_ll_rcc.h ****   * @}
 192:../../Drivers/STM32F3xx_HAL_Driver/Inc/stm32f3xx_ll_rcc.h ****   */
 193:../../Drivers/STM32F3xx_HAL_Driver/Inc/stm32f3xx_ll_rcc.h **** 
 194:../../Drivers/STM32F3xx_HAL_Driver/Inc/stm32f3xx_ll_rcc.h **** /** @defgroup RCC_LL_EC_IT IT Defines
 195:../../Drivers/STM32F3xx_HAL_Driver/Inc/stm32f3xx_ll_rcc.h ****   * @brief    IT defines which can be used with LL_RCC_ReadReg and  LL_RCC_WriteReg functions
 196:../../Drivers/STM32F3xx_HAL_Driver/Inc/stm32f3xx_ll_rcc.h ****   * @{
 197:../../Drivers/STM32F3xx_HAL_Driver/Inc/stm32f3xx_ll_rcc.h ****   */
 198:../../Drivers/STM32F3xx_HAL_Driver/Inc/stm32f3xx_ll_rcc.h **** #define LL_RCC_CIR_LSIRDYIE               RCC_CIR_LSIRDYIE      /*!< LSI Ready Interrupt Enable */
 199:../../Drivers/STM32F3xx_HAL_Driver/Inc/stm32f3xx_ll_rcc.h **** #define LL_RCC_CIR_LSERDYIE               RCC_CIR_LSERDYIE      /*!< LSE Ready Interrupt Enable */
 200:../../Drivers/STM32F3xx_HAL_Driver/Inc/stm32f3xx_ll_rcc.h **** #define LL_RCC_CIR_HSIRDYIE               RCC_CIR_HSIRDYIE      /*!< HSI Ready Interrupt Enable */
 201:../../Drivers/STM32F3xx_HAL_Driver/Inc/stm32f3xx_ll_rcc.h **** #define LL_RCC_CIR_HSERDYIE               RCC_CIR_HSERDYIE      /*!< HSE Ready Interrupt Enable */
 202:../../Drivers/STM32F3xx_HAL_Driver/Inc/stm32f3xx_ll_rcc.h **** #define LL_RCC_CIR_PLLRDYIE               RCC_CIR_PLLRDYIE      /*!< PLL Ready Interrupt Enable */
 203:../../Drivers/STM32F3xx_HAL_Driver/Inc/stm32f3xx_ll_rcc.h **** /**
 204:../../Drivers/STM32F3xx_HAL_Driver/Inc/stm32f3xx_ll_rcc.h ****   * @}
 205:../../Drivers/STM32F3xx_HAL_Driver/Inc/stm32f3xx_ll_rcc.h ****   */
 206:../../Drivers/STM32F3xx_HAL_Driver/Inc/stm32f3xx_ll_rcc.h **** 
 207:../../Drivers/STM32F3xx_HAL_Driver/Inc/stm32f3xx_ll_rcc.h **** /** @defgroup RCC_LL_EC_LSEDRIVE  LSE oscillator drive capability
 208:../../Drivers/STM32F3xx_HAL_Driver/Inc/stm32f3xx_ll_rcc.h ****   * @{
 209:../../Drivers/STM32F3xx_HAL_Driver/Inc/stm32f3xx_ll_rcc.h ****   */
 210:../../Drivers/STM32F3xx_HAL_Driver/Inc/stm32f3xx_ll_rcc.h **** #define LL_RCC_LSEDRIVE_LOW                ((uint32_t)0x00000000U) /*!< Xtal mode lower driving cap
 211:../../Drivers/STM32F3xx_HAL_Driver/Inc/stm32f3xx_ll_rcc.h **** #define LL_RCC_LSEDRIVE_MEDIUMLOW          RCC_BDCR_LSEDRV_1 /*!< Xtal mode medium low driving capa
 212:../../Drivers/STM32F3xx_HAL_Driver/Inc/stm32f3xx_ll_rcc.h **** #define LL_RCC_LSEDRIVE_MEDIUMHIGH         RCC_BDCR_LSEDRV_0 /*!< Xtal mode medium high driving cap
 213:../../Drivers/STM32F3xx_HAL_Driver/Inc/stm32f3xx_ll_rcc.h **** #define LL_RCC_LSEDRIVE_HIGH               RCC_BDCR_LSEDRV   /*!< Xtal mode higher driving capabili
 214:../../Drivers/STM32F3xx_HAL_Driver/Inc/stm32f3xx_ll_rcc.h **** /**
 215:../../Drivers/STM32F3xx_HAL_Driver/Inc/stm32f3xx_ll_rcc.h ****   * @}
 216:../../Drivers/STM32F3xx_HAL_Driver/Inc/stm32f3xx_ll_rcc.h ****   */
 217:../../Drivers/STM32F3xx_HAL_Driver/Inc/stm32f3xx_ll_rcc.h **** 
 218:../../Drivers/STM32F3xx_HAL_Driver/Inc/stm32f3xx_ll_rcc.h **** /** @defgroup RCC_LL_EC_SYS_CLKSOURCE  System clock switch
 219:../../Drivers/STM32F3xx_HAL_Driver/Inc/stm32f3xx_ll_rcc.h ****   * @{
 220:../../Drivers/STM32F3xx_HAL_Driver/Inc/stm32f3xx_ll_rcc.h ****   */
 221:../../Drivers/STM32F3xx_HAL_Driver/Inc/stm32f3xx_ll_rcc.h **** #define LL_RCC_SYS_CLKSOURCE_HSI           RCC_CFGR_SW_HSI    /*!< HSI selection as system clock */
 222:../../Drivers/STM32F3xx_HAL_Driver/Inc/stm32f3xx_ll_rcc.h **** #define LL_RCC_SYS_CLKSOURCE_HSE           RCC_CFGR_SW_HSE    /*!< HSE selection as system clock */
 223:../../Drivers/STM32F3xx_HAL_Driver/Inc/stm32f3xx_ll_rcc.h **** #define LL_RCC_SYS_CLKSOURCE_PLL           RCC_CFGR_SW_PLL    /*!< PLL selection as system clock */
 224:../../Drivers/STM32F3xx_HAL_Driver/Inc/stm32f3xx_ll_rcc.h **** /**
 225:../../Drivers/STM32F3xx_HAL_Driver/Inc/stm32f3xx_ll_rcc.h ****   * @}
 226:../../Drivers/STM32F3xx_HAL_Driver/Inc/stm32f3xx_ll_rcc.h ****   */
 227:../../Drivers/STM32F3xx_HAL_Driver/Inc/stm32f3xx_ll_rcc.h **** 
 228:../../Drivers/STM32F3xx_HAL_Driver/Inc/stm32f3xx_ll_rcc.h **** /** @defgroup RCC_LL_EC_SYS_CLKSOURCE_STATUS  System clock switch status
 229:../../Drivers/STM32F3xx_HAL_Driver/Inc/stm32f3xx_ll_rcc.h ****   * @{
 230:../../Drivers/STM32F3xx_HAL_Driver/Inc/stm32f3xx_ll_rcc.h ****   */
 231:../../Drivers/STM32F3xx_HAL_Driver/Inc/stm32f3xx_ll_rcc.h **** #define LL_RCC_SYS_CLKSOURCE_STATUS_HSI    RCC_CFGR_SWS_HSI   /*!< HSI used as system clock */
 232:../../Drivers/STM32F3xx_HAL_Driver/Inc/stm32f3xx_ll_rcc.h **** #define LL_RCC_SYS_CLKSOURCE_STATUS_HSE    RCC_CFGR_SWS_HSE   /*!< HSE used as system clock */
 233:../../Drivers/STM32F3xx_HAL_Driver/Inc/stm32f3xx_ll_rcc.h **** #define LL_RCC_SYS_CLKSOURCE_STATUS_PLL    RCC_CFGR_SWS_PLL   /*!< PLL used as system clock */
 234:../../Drivers/STM32F3xx_HAL_Driver/Inc/stm32f3xx_ll_rcc.h **** /**
ARM GAS  /tmp/ccBBHnuc.s 			page 12


 235:../../Drivers/STM32F3xx_HAL_Driver/Inc/stm32f3xx_ll_rcc.h ****   * @}
 236:../../Drivers/STM32F3xx_HAL_Driver/Inc/stm32f3xx_ll_rcc.h ****   */
 237:../../Drivers/STM32F3xx_HAL_Driver/Inc/stm32f3xx_ll_rcc.h **** 
 238:../../Drivers/STM32F3xx_HAL_Driver/Inc/stm32f3xx_ll_rcc.h **** /** @defgroup RCC_LL_EC_SYSCLK_DIV  AHB prescaler
 239:../../Drivers/STM32F3xx_HAL_Driver/Inc/stm32f3xx_ll_rcc.h ****   * @{
 240:../../Drivers/STM32F3xx_HAL_Driver/Inc/stm32f3xx_ll_rcc.h ****   */
 241:../../Drivers/STM32F3xx_HAL_Driver/Inc/stm32f3xx_ll_rcc.h **** #define LL_RCC_SYSCLK_DIV_1                RCC_CFGR_HPRE_DIV1   /*!< SYSCLK not divided */
 242:../../Drivers/STM32F3xx_HAL_Driver/Inc/stm32f3xx_ll_rcc.h **** #define LL_RCC_SYSCLK_DIV_2                RCC_CFGR_HPRE_DIV2   /*!< SYSCLK divided by 2 */
 243:../../Drivers/STM32F3xx_HAL_Driver/Inc/stm32f3xx_ll_rcc.h **** #define LL_RCC_SYSCLK_DIV_4                RCC_CFGR_HPRE_DIV4   /*!< SYSCLK divided by 4 */
 244:../../Drivers/STM32F3xx_HAL_Driver/Inc/stm32f3xx_ll_rcc.h **** #define LL_RCC_SYSCLK_DIV_8                RCC_CFGR_HPRE_DIV8   /*!< SYSCLK divided by 8 */
 245:../../Drivers/STM32F3xx_HAL_Driver/Inc/stm32f3xx_ll_rcc.h **** #define LL_RCC_SYSCLK_DIV_16               RCC_CFGR_HPRE_DIV16  /*!< SYSCLK divided by 16 */
 246:../../Drivers/STM32F3xx_HAL_Driver/Inc/stm32f3xx_ll_rcc.h **** #define LL_RCC_SYSCLK_DIV_64               RCC_CFGR_HPRE_DIV64  /*!< SYSCLK divided by 64 */
 247:../../Drivers/STM32F3xx_HAL_Driver/Inc/stm32f3xx_ll_rcc.h **** #define LL_RCC_SYSCLK_DIV_128              RCC_CFGR_HPRE_DIV128 /*!< SYSCLK divided by 128 */
 248:../../Drivers/STM32F3xx_HAL_Driver/Inc/stm32f3xx_ll_rcc.h **** #define LL_RCC_SYSCLK_DIV_256              RCC_CFGR_HPRE_DIV256 /*!< SYSCLK divided by 256 */
 249:../../Drivers/STM32F3xx_HAL_Driver/Inc/stm32f3xx_ll_rcc.h **** #define LL_RCC_SYSCLK_DIV_512              RCC_CFGR_HPRE_DIV512 /*!< SYSCLK divided by 512 */
 250:../../Drivers/STM32F3xx_HAL_Driver/Inc/stm32f3xx_ll_rcc.h **** /**
 251:../../Drivers/STM32F3xx_HAL_Driver/Inc/stm32f3xx_ll_rcc.h ****   * @}
 252:../../Drivers/STM32F3xx_HAL_Driver/Inc/stm32f3xx_ll_rcc.h ****   */
 253:../../Drivers/STM32F3xx_HAL_Driver/Inc/stm32f3xx_ll_rcc.h **** 
 254:../../Drivers/STM32F3xx_HAL_Driver/Inc/stm32f3xx_ll_rcc.h **** /** @defgroup RCC_LL_EC_APB1_DIV  APB low-speed prescaler (APB1)
 255:../../Drivers/STM32F3xx_HAL_Driver/Inc/stm32f3xx_ll_rcc.h ****   * @{
 256:../../Drivers/STM32F3xx_HAL_Driver/Inc/stm32f3xx_ll_rcc.h ****   */
 257:../../Drivers/STM32F3xx_HAL_Driver/Inc/stm32f3xx_ll_rcc.h **** #define LL_RCC_APB1_DIV_1                  RCC_CFGR_PPRE1_DIV1  /*!< HCLK not divided */
 258:../../Drivers/STM32F3xx_HAL_Driver/Inc/stm32f3xx_ll_rcc.h **** #define LL_RCC_APB1_DIV_2                  RCC_CFGR_PPRE1_DIV2  /*!< HCLK divided by 2 */
 259:../../Drivers/STM32F3xx_HAL_Driver/Inc/stm32f3xx_ll_rcc.h **** #define LL_RCC_APB1_DIV_4                  RCC_CFGR_PPRE1_DIV4  /*!< HCLK divided by 4 */
 260:../../Drivers/STM32F3xx_HAL_Driver/Inc/stm32f3xx_ll_rcc.h **** #define LL_RCC_APB1_DIV_8                  RCC_CFGR_PPRE1_DIV8  /*!< HCLK divided by 8 */
 261:../../Drivers/STM32F3xx_HAL_Driver/Inc/stm32f3xx_ll_rcc.h **** #define LL_RCC_APB1_DIV_16                 RCC_CFGR_PPRE1_DIV16 /*!< HCLK divided by 16 */
 262:../../Drivers/STM32F3xx_HAL_Driver/Inc/stm32f3xx_ll_rcc.h **** /**
 263:../../Drivers/STM32F3xx_HAL_Driver/Inc/stm32f3xx_ll_rcc.h ****   * @}
 264:../../Drivers/STM32F3xx_HAL_Driver/Inc/stm32f3xx_ll_rcc.h ****   */
 265:../../Drivers/STM32F3xx_HAL_Driver/Inc/stm32f3xx_ll_rcc.h **** 
 266:../../Drivers/STM32F3xx_HAL_Driver/Inc/stm32f3xx_ll_rcc.h **** /** @defgroup RCC_LL_EC_APB2_DIV  APB high-speed prescaler (APB2)
 267:../../Drivers/STM32F3xx_HAL_Driver/Inc/stm32f3xx_ll_rcc.h ****   * @{
 268:../../Drivers/STM32F3xx_HAL_Driver/Inc/stm32f3xx_ll_rcc.h ****   */
 269:../../Drivers/STM32F3xx_HAL_Driver/Inc/stm32f3xx_ll_rcc.h **** #define LL_RCC_APB2_DIV_1                  RCC_CFGR_PPRE2_DIV1  /*!< HCLK not divided */
 270:../../Drivers/STM32F3xx_HAL_Driver/Inc/stm32f3xx_ll_rcc.h **** #define LL_RCC_APB2_DIV_2                  RCC_CFGR_PPRE2_DIV2  /*!< HCLK divided by 2 */
 271:../../Drivers/STM32F3xx_HAL_Driver/Inc/stm32f3xx_ll_rcc.h **** #define LL_RCC_APB2_DIV_4                  RCC_CFGR_PPRE2_DIV4  /*!< HCLK divided by 4 */
 272:../../Drivers/STM32F3xx_HAL_Driver/Inc/stm32f3xx_ll_rcc.h **** #define LL_RCC_APB2_DIV_8                  RCC_CFGR_PPRE2_DIV8  /*!< HCLK divided by 8 */
 273:../../Drivers/STM32F3xx_HAL_Driver/Inc/stm32f3xx_ll_rcc.h **** #define LL_RCC_APB2_DIV_16                 RCC_CFGR_PPRE2_DIV16 /*!< HCLK divided by 16 */
 274:../../Drivers/STM32F3xx_HAL_Driver/Inc/stm32f3xx_ll_rcc.h **** /**
 275:../../Drivers/STM32F3xx_HAL_Driver/Inc/stm32f3xx_ll_rcc.h ****   * @}
 276:../../Drivers/STM32F3xx_HAL_Driver/Inc/stm32f3xx_ll_rcc.h ****   */
 277:../../Drivers/STM32F3xx_HAL_Driver/Inc/stm32f3xx_ll_rcc.h **** 
 278:../../Drivers/STM32F3xx_HAL_Driver/Inc/stm32f3xx_ll_rcc.h **** /** @defgroup RCC_LL_EC_MCO1SOURCE  MCO1 SOURCE selection
 279:../../Drivers/STM32F3xx_HAL_Driver/Inc/stm32f3xx_ll_rcc.h ****   * @{
 280:../../Drivers/STM32F3xx_HAL_Driver/Inc/stm32f3xx_ll_rcc.h ****   */
 281:../../Drivers/STM32F3xx_HAL_Driver/Inc/stm32f3xx_ll_rcc.h **** #define LL_RCC_MCO1SOURCE_NOCLOCK          RCC_CFGR_MCOSEL_NOCLOCK      /*!< MCO output disabled, n
 282:../../Drivers/STM32F3xx_HAL_Driver/Inc/stm32f3xx_ll_rcc.h **** #define LL_RCC_MCO1SOURCE_SYSCLK           RCC_CFGR_MCOSEL_SYSCLK       /*!< SYSCLK selection as MC
 283:../../Drivers/STM32F3xx_HAL_Driver/Inc/stm32f3xx_ll_rcc.h **** #define LL_RCC_MCO1SOURCE_HSI              RCC_CFGR_MCOSEL_HSI          /*!< HSI selection as MCO s
 284:../../Drivers/STM32F3xx_HAL_Driver/Inc/stm32f3xx_ll_rcc.h **** #define LL_RCC_MCO1SOURCE_HSE              RCC_CFGR_MCOSEL_HSE          /*!< HSE selection as MCO s
 285:../../Drivers/STM32F3xx_HAL_Driver/Inc/stm32f3xx_ll_rcc.h **** #define LL_RCC_MCO1SOURCE_LSI              RCC_CFGR_MCOSEL_LSI          /*!< LSI selection as MCO s
 286:../../Drivers/STM32F3xx_HAL_Driver/Inc/stm32f3xx_ll_rcc.h **** #define LL_RCC_MCO1SOURCE_LSE              RCC_CFGR_MCOSEL_LSE          /*!< LSE selection as MCO s
 287:../../Drivers/STM32F3xx_HAL_Driver/Inc/stm32f3xx_ll_rcc.h **** #define LL_RCC_MCO1SOURCE_PLLCLK_DIV_2     RCC_CFGR_MCOSEL_PLL_DIV2     /*!< PLL clock divided by 2
 288:../../Drivers/STM32F3xx_HAL_Driver/Inc/stm32f3xx_ll_rcc.h **** #if defined(RCC_CFGR_PLLNODIV)
 289:../../Drivers/STM32F3xx_HAL_Driver/Inc/stm32f3xx_ll_rcc.h **** #define LL_RCC_MCO1SOURCE_PLLCLK           (RCC_CFGR_MCOSEL_PLL_DIV2 | RCC_CFGR_PLLNODIV) /*!< PLL 
 290:../../Drivers/STM32F3xx_HAL_Driver/Inc/stm32f3xx_ll_rcc.h **** #endif /* RCC_CFGR_PLLNODIV */
 291:../../Drivers/STM32F3xx_HAL_Driver/Inc/stm32f3xx_ll_rcc.h **** /**
ARM GAS  /tmp/ccBBHnuc.s 			page 13


 292:../../Drivers/STM32F3xx_HAL_Driver/Inc/stm32f3xx_ll_rcc.h ****   * @}
 293:../../Drivers/STM32F3xx_HAL_Driver/Inc/stm32f3xx_ll_rcc.h ****   */
 294:../../Drivers/STM32F3xx_HAL_Driver/Inc/stm32f3xx_ll_rcc.h **** 
 295:../../Drivers/STM32F3xx_HAL_Driver/Inc/stm32f3xx_ll_rcc.h **** /** @defgroup RCC_LL_EC_MCO1_DIV  MCO1 prescaler
 296:../../Drivers/STM32F3xx_HAL_Driver/Inc/stm32f3xx_ll_rcc.h ****   * @{
 297:../../Drivers/STM32F3xx_HAL_Driver/Inc/stm32f3xx_ll_rcc.h ****   */
 298:../../Drivers/STM32F3xx_HAL_Driver/Inc/stm32f3xx_ll_rcc.h **** #define LL_RCC_MCO1_DIV_1                  ((uint32_t)0x00000000U)/*!< MCO Clock divided by 1 */
 299:../../Drivers/STM32F3xx_HAL_Driver/Inc/stm32f3xx_ll_rcc.h **** #if defined(RCC_CFGR_MCOPRE)
 300:../../Drivers/STM32F3xx_HAL_Driver/Inc/stm32f3xx_ll_rcc.h **** #define LL_RCC_MCO1_DIV_2                  RCC_CFGR_MCOPRE_DIV2   /*!< MCO Clock divided by 2 */
 301:../../Drivers/STM32F3xx_HAL_Driver/Inc/stm32f3xx_ll_rcc.h **** #define LL_RCC_MCO1_DIV_4                  RCC_CFGR_MCOPRE_DIV4   /*!< MCO Clock divided by 4 */
 302:../../Drivers/STM32F3xx_HAL_Driver/Inc/stm32f3xx_ll_rcc.h **** #define LL_RCC_MCO1_DIV_8                  RCC_CFGR_MCOPRE_DIV8   /*!< MCO Clock divided by 8 */
 303:../../Drivers/STM32F3xx_HAL_Driver/Inc/stm32f3xx_ll_rcc.h **** #define LL_RCC_MCO1_DIV_16                 RCC_CFGR_MCOPRE_DIV16  /*!< MCO Clock divided by 16 */
 304:../../Drivers/STM32F3xx_HAL_Driver/Inc/stm32f3xx_ll_rcc.h **** #define LL_RCC_MCO1_DIV_32                 RCC_CFGR_MCOPRE_DIV32  /*!< MCO Clock divided by 32 */
 305:../../Drivers/STM32F3xx_HAL_Driver/Inc/stm32f3xx_ll_rcc.h **** #define LL_RCC_MCO1_DIV_64                 RCC_CFGR_MCOPRE_DIV64  /*!< MCO Clock divided by 64 */
 306:../../Drivers/STM32F3xx_HAL_Driver/Inc/stm32f3xx_ll_rcc.h **** #define LL_RCC_MCO1_DIV_128                RCC_CFGR_MCOPRE_DIV128 /*!< MCO Clock divided by 128 */
 307:../../Drivers/STM32F3xx_HAL_Driver/Inc/stm32f3xx_ll_rcc.h **** #endif /* RCC_CFGR_MCOPRE */
 308:../../Drivers/STM32F3xx_HAL_Driver/Inc/stm32f3xx_ll_rcc.h **** /**
 309:../../Drivers/STM32F3xx_HAL_Driver/Inc/stm32f3xx_ll_rcc.h ****   * @}
 310:../../Drivers/STM32F3xx_HAL_Driver/Inc/stm32f3xx_ll_rcc.h ****   */
 311:../../Drivers/STM32F3xx_HAL_Driver/Inc/stm32f3xx_ll_rcc.h **** 
 312:../../Drivers/STM32F3xx_HAL_Driver/Inc/stm32f3xx_ll_rcc.h **** #if defined(USE_FULL_LL_DRIVER)
 313:../../Drivers/STM32F3xx_HAL_Driver/Inc/stm32f3xx_ll_rcc.h **** /** @defgroup RCC_LL_EC_PERIPH_FREQUENCY Peripheral clock frequency
 314:../../Drivers/STM32F3xx_HAL_Driver/Inc/stm32f3xx_ll_rcc.h ****   * @{
 315:../../Drivers/STM32F3xx_HAL_Driver/Inc/stm32f3xx_ll_rcc.h ****   */
 316:../../Drivers/STM32F3xx_HAL_Driver/Inc/stm32f3xx_ll_rcc.h **** #define LL_RCC_PERIPH_FREQUENCY_NO         0x00000000U      /*!< No clock enabled for the periphera
 317:../../Drivers/STM32F3xx_HAL_Driver/Inc/stm32f3xx_ll_rcc.h **** #define LL_RCC_PERIPH_FREQUENCY_NA         0xFFFFFFFFU      /*!< Frequency cannot be provided as ex
 318:../../Drivers/STM32F3xx_HAL_Driver/Inc/stm32f3xx_ll_rcc.h **** /**
 319:../../Drivers/STM32F3xx_HAL_Driver/Inc/stm32f3xx_ll_rcc.h ****   * @}
 320:../../Drivers/STM32F3xx_HAL_Driver/Inc/stm32f3xx_ll_rcc.h ****   */
 321:../../Drivers/STM32F3xx_HAL_Driver/Inc/stm32f3xx_ll_rcc.h **** #endif /* USE_FULL_LL_DRIVER */
 322:../../Drivers/STM32F3xx_HAL_Driver/Inc/stm32f3xx_ll_rcc.h **** 
 323:../../Drivers/STM32F3xx_HAL_Driver/Inc/stm32f3xx_ll_rcc.h **** /** @defgroup RCC_LL_EC_USART1_CLKSOURCE Peripheral USART clock source selection
 324:../../Drivers/STM32F3xx_HAL_Driver/Inc/stm32f3xx_ll_rcc.h ****   * @{
 325:../../Drivers/STM32F3xx_HAL_Driver/Inc/stm32f3xx_ll_rcc.h ****   */
 326:../../Drivers/STM32F3xx_HAL_Driver/Inc/stm32f3xx_ll_rcc.h **** #if defined(RCC_CFGR3_USART1SW_PCLK1)
 327:../../Drivers/STM32F3xx_HAL_Driver/Inc/stm32f3xx_ll_rcc.h **** #define LL_RCC_USART1_CLKSOURCE_PCLK1    (uint32_t)((RCC_POSITION_USART1SW << 24U) | RCC_CFGR3_USAR
 328:../../Drivers/STM32F3xx_HAL_Driver/Inc/stm32f3xx_ll_rcc.h **** #else
 329:../../Drivers/STM32F3xx_HAL_Driver/Inc/stm32f3xx_ll_rcc.h **** #define LL_RCC_USART1_CLKSOURCE_PCLK2    (uint32_t)((RCC_POSITION_USART1SW << 24U) | RCC_CFGR3_USAR
 330:../../Drivers/STM32F3xx_HAL_Driver/Inc/stm32f3xx_ll_rcc.h **** #endif /*RCC_CFGR3_USART1SW_PCLK1*/
 331:../../Drivers/STM32F3xx_HAL_Driver/Inc/stm32f3xx_ll_rcc.h **** #define LL_RCC_USART1_CLKSOURCE_SYSCLK   (uint32_t)((RCC_POSITION_USART1SW << 24U) | RCC_CFGR3_USAR
 332:../../Drivers/STM32F3xx_HAL_Driver/Inc/stm32f3xx_ll_rcc.h **** #define LL_RCC_USART1_CLKSOURCE_LSE      (uint32_t)((RCC_POSITION_USART1SW << 24U) | RCC_CFGR3_USAR
 333:../../Drivers/STM32F3xx_HAL_Driver/Inc/stm32f3xx_ll_rcc.h **** #define LL_RCC_USART1_CLKSOURCE_HSI      (uint32_t)((RCC_POSITION_USART1SW << 24U) | RCC_CFGR3_USAR
 334:../../Drivers/STM32F3xx_HAL_Driver/Inc/stm32f3xx_ll_rcc.h **** #if defined(RCC_CFGR3_USART2SW)
 335:../../Drivers/STM32F3xx_HAL_Driver/Inc/stm32f3xx_ll_rcc.h **** #define LL_RCC_USART2_CLKSOURCE_PCLK1    (uint32_t)((RCC_POSITION_USART2SW << 24U) | RCC_CFGR3_USAR
 336:../../Drivers/STM32F3xx_HAL_Driver/Inc/stm32f3xx_ll_rcc.h **** #define LL_RCC_USART2_CLKSOURCE_SYSCLK   (uint32_t)((RCC_POSITION_USART2SW << 24U) | RCC_CFGR3_USAR
 337:../../Drivers/STM32F3xx_HAL_Driver/Inc/stm32f3xx_ll_rcc.h **** #define LL_RCC_USART2_CLKSOURCE_LSE      (uint32_t)((RCC_POSITION_USART2SW << 24U) | RCC_CFGR3_USAR
 338:../../Drivers/STM32F3xx_HAL_Driver/Inc/stm32f3xx_ll_rcc.h **** #define LL_RCC_USART2_CLKSOURCE_HSI      (uint32_t)((RCC_POSITION_USART2SW << 24U) | RCC_CFGR3_USAR
 339:../../Drivers/STM32F3xx_HAL_Driver/Inc/stm32f3xx_ll_rcc.h **** #endif /* RCC_CFGR3_USART2SW */
 340:../../Drivers/STM32F3xx_HAL_Driver/Inc/stm32f3xx_ll_rcc.h **** #if defined(RCC_CFGR3_USART3SW)
 341:../../Drivers/STM32F3xx_HAL_Driver/Inc/stm32f3xx_ll_rcc.h **** #define LL_RCC_USART3_CLKSOURCE_PCLK1    (uint32_t)((RCC_POSITION_USART3SW << 24U) | RCC_CFGR3_USAR
 342:../../Drivers/STM32F3xx_HAL_Driver/Inc/stm32f3xx_ll_rcc.h **** #define LL_RCC_USART3_CLKSOURCE_SYSCLK   (uint32_t)((RCC_POSITION_USART3SW << 24U) | RCC_CFGR3_USAR
 343:../../Drivers/STM32F3xx_HAL_Driver/Inc/stm32f3xx_ll_rcc.h **** #define LL_RCC_USART3_CLKSOURCE_LSE      (uint32_t)((RCC_POSITION_USART3SW << 24U) | RCC_CFGR3_USAR
 344:../../Drivers/STM32F3xx_HAL_Driver/Inc/stm32f3xx_ll_rcc.h **** #define LL_RCC_USART3_CLKSOURCE_HSI      (uint32_t)((RCC_POSITION_USART3SW << 24U) | RCC_CFGR3_USAR
 345:../../Drivers/STM32F3xx_HAL_Driver/Inc/stm32f3xx_ll_rcc.h **** #endif /* RCC_CFGR3_USART3SW */
 346:../../Drivers/STM32F3xx_HAL_Driver/Inc/stm32f3xx_ll_rcc.h **** /**
 347:../../Drivers/STM32F3xx_HAL_Driver/Inc/stm32f3xx_ll_rcc.h ****   * @}
 348:../../Drivers/STM32F3xx_HAL_Driver/Inc/stm32f3xx_ll_rcc.h ****   */
ARM GAS  /tmp/ccBBHnuc.s 			page 14


 349:../../Drivers/STM32F3xx_HAL_Driver/Inc/stm32f3xx_ll_rcc.h **** 
 350:../../Drivers/STM32F3xx_HAL_Driver/Inc/stm32f3xx_ll_rcc.h **** #if defined(RCC_CFGR3_UART4SW) || defined(RCC_CFGR3_UART5SW)
 351:../../Drivers/STM32F3xx_HAL_Driver/Inc/stm32f3xx_ll_rcc.h **** /** @defgroup RCC_LL_EC_UART4_CLKSOURCE Peripheral UART clock source selection
 352:../../Drivers/STM32F3xx_HAL_Driver/Inc/stm32f3xx_ll_rcc.h ****   * @{
 353:../../Drivers/STM32F3xx_HAL_Driver/Inc/stm32f3xx_ll_rcc.h ****   */
 354:../../Drivers/STM32F3xx_HAL_Driver/Inc/stm32f3xx_ll_rcc.h **** #define LL_RCC_UART4_CLKSOURCE_PCLK1     (uint32_t)((RCC_CFGR3_UART4SW >> 8U) | RCC_CFGR3_UART4SW_P
 355:../../Drivers/STM32F3xx_HAL_Driver/Inc/stm32f3xx_ll_rcc.h **** #define LL_RCC_UART4_CLKSOURCE_SYSCLK    (uint32_t)((RCC_CFGR3_UART4SW >> 8U) | RCC_CFGR3_UART4SW_S
 356:../../Drivers/STM32F3xx_HAL_Driver/Inc/stm32f3xx_ll_rcc.h **** #define LL_RCC_UART4_CLKSOURCE_LSE       (uint32_t)((RCC_CFGR3_UART4SW >> 8U) | RCC_CFGR3_UART4SW_L
 357:../../Drivers/STM32F3xx_HAL_Driver/Inc/stm32f3xx_ll_rcc.h **** #define LL_RCC_UART4_CLKSOURCE_HSI       (uint32_t)((RCC_CFGR3_UART4SW >> 8U) | RCC_CFGR3_UART4SW_H
 358:../../Drivers/STM32F3xx_HAL_Driver/Inc/stm32f3xx_ll_rcc.h **** #define LL_RCC_UART5_CLKSOURCE_PCLK1     (uint32_t)((RCC_CFGR3_UART5SW >> 8U) | RCC_CFGR3_UART5SW_P
 359:../../Drivers/STM32F3xx_HAL_Driver/Inc/stm32f3xx_ll_rcc.h **** #define LL_RCC_UART5_CLKSOURCE_SYSCLK    (uint32_t)((RCC_CFGR3_UART5SW >> 8U) | RCC_CFGR3_UART5SW_S
 360:../../Drivers/STM32F3xx_HAL_Driver/Inc/stm32f3xx_ll_rcc.h **** #define LL_RCC_UART5_CLKSOURCE_LSE       (uint32_t)((RCC_CFGR3_UART5SW >> 8U) | RCC_CFGR3_UART5SW_L
 361:../../Drivers/STM32F3xx_HAL_Driver/Inc/stm32f3xx_ll_rcc.h **** #define LL_RCC_UART5_CLKSOURCE_HSI       (uint32_t)((RCC_CFGR3_UART5SW >> 8U) | RCC_CFGR3_UART5SW_H
 362:../../Drivers/STM32F3xx_HAL_Driver/Inc/stm32f3xx_ll_rcc.h **** /**
 363:../../Drivers/STM32F3xx_HAL_Driver/Inc/stm32f3xx_ll_rcc.h ****   * @}
 364:../../Drivers/STM32F3xx_HAL_Driver/Inc/stm32f3xx_ll_rcc.h ****   */
 365:../../Drivers/STM32F3xx_HAL_Driver/Inc/stm32f3xx_ll_rcc.h **** 
 366:../../Drivers/STM32F3xx_HAL_Driver/Inc/stm32f3xx_ll_rcc.h **** #endif /* RCC_CFGR3_UART4SW || RCC_CFGR3_UART5SW */
 367:../../Drivers/STM32F3xx_HAL_Driver/Inc/stm32f3xx_ll_rcc.h **** 
 368:../../Drivers/STM32F3xx_HAL_Driver/Inc/stm32f3xx_ll_rcc.h **** /** @defgroup RCC_LL_EC_I2C1_CLKSOURCE Peripheral I2C clock source selection
 369:../../Drivers/STM32F3xx_HAL_Driver/Inc/stm32f3xx_ll_rcc.h ****   * @{
 370:../../Drivers/STM32F3xx_HAL_Driver/Inc/stm32f3xx_ll_rcc.h ****   */
 371:../../Drivers/STM32F3xx_HAL_Driver/Inc/stm32f3xx_ll_rcc.h **** #define LL_RCC_I2C1_CLKSOURCE_HSI        (uint32_t)((RCC_CFGR3_I2C1SW << 24U) | RCC_CFGR3_I2C1SW_HS
 372:../../Drivers/STM32F3xx_HAL_Driver/Inc/stm32f3xx_ll_rcc.h **** #define LL_RCC_I2C1_CLKSOURCE_SYSCLK     (uint32_t)((RCC_CFGR3_I2C1SW << 24U) | RCC_CFGR3_I2C1SW_SY
 373:../../Drivers/STM32F3xx_HAL_Driver/Inc/stm32f3xx_ll_rcc.h **** #if defined(RCC_CFGR3_I2C2SW)
 374:../../Drivers/STM32F3xx_HAL_Driver/Inc/stm32f3xx_ll_rcc.h **** #define LL_RCC_I2C2_CLKSOURCE_HSI        (uint32_t)((RCC_CFGR3_I2C2SW << 24U) | RCC_CFGR3_I2C2SW_HS
 375:../../Drivers/STM32F3xx_HAL_Driver/Inc/stm32f3xx_ll_rcc.h **** #define LL_RCC_I2C2_CLKSOURCE_SYSCLK     (uint32_t)((RCC_CFGR3_I2C2SW << 24U) | RCC_CFGR3_I2C2SW_SY
 376:../../Drivers/STM32F3xx_HAL_Driver/Inc/stm32f3xx_ll_rcc.h **** #endif /*RCC_CFGR3_I2C2SW*/
 377:../../Drivers/STM32F3xx_HAL_Driver/Inc/stm32f3xx_ll_rcc.h **** #if defined(RCC_CFGR3_I2C3SW)
 378:../../Drivers/STM32F3xx_HAL_Driver/Inc/stm32f3xx_ll_rcc.h **** #define LL_RCC_I2C3_CLKSOURCE_HSI        (uint32_t)((RCC_CFGR3_I2C3SW << 24U) | RCC_CFGR3_I2C3SW_HS
 379:../../Drivers/STM32F3xx_HAL_Driver/Inc/stm32f3xx_ll_rcc.h **** #define LL_RCC_I2C3_CLKSOURCE_SYSCLK     (uint32_t)((RCC_CFGR3_I2C3SW << 24U) | RCC_CFGR3_I2C3SW_SY
 380:../../Drivers/STM32F3xx_HAL_Driver/Inc/stm32f3xx_ll_rcc.h **** #endif /*RCC_CFGR3_I2C3SW*/
 381:../../Drivers/STM32F3xx_HAL_Driver/Inc/stm32f3xx_ll_rcc.h **** /**
 382:../../Drivers/STM32F3xx_HAL_Driver/Inc/stm32f3xx_ll_rcc.h ****   * @}
 383:../../Drivers/STM32F3xx_HAL_Driver/Inc/stm32f3xx_ll_rcc.h ****   */
 384:../../Drivers/STM32F3xx_HAL_Driver/Inc/stm32f3xx_ll_rcc.h **** 
 385:../../Drivers/STM32F3xx_HAL_Driver/Inc/stm32f3xx_ll_rcc.h **** #if defined(RCC_CFGR_I2SSRC)
 386:../../Drivers/STM32F3xx_HAL_Driver/Inc/stm32f3xx_ll_rcc.h **** /** @defgroup RCC_LL_EC_I2S_CLKSOURCE Peripheral I2S clock source selection
 387:../../Drivers/STM32F3xx_HAL_Driver/Inc/stm32f3xx_ll_rcc.h ****   * @{
 388:../../Drivers/STM32F3xx_HAL_Driver/Inc/stm32f3xx_ll_rcc.h ****   */
 389:../../Drivers/STM32F3xx_HAL_Driver/Inc/stm32f3xx_ll_rcc.h **** #define LL_RCC_I2S_CLKSOURCE_SYSCLK      RCC_CFGR_I2SSRC_SYSCLK /*!< System clock selected as I2S c
 390:../../Drivers/STM32F3xx_HAL_Driver/Inc/stm32f3xx_ll_rcc.h **** #define LL_RCC_I2S_CLKSOURCE_PIN         RCC_CFGR_I2SSRC_EXT    /*!< External clock selected as I2S
 391:../../Drivers/STM32F3xx_HAL_Driver/Inc/stm32f3xx_ll_rcc.h **** /**
 392:../../Drivers/STM32F3xx_HAL_Driver/Inc/stm32f3xx_ll_rcc.h ****   * @}
 393:../../Drivers/STM32F3xx_HAL_Driver/Inc/stm32f3xx_ll_rcc.h ****   */
 394:../../Drivers/STM32F3xx_HAL_Driver/Inc/stm32f3xx_ll_rcc.h **** 
 395:../../Drivers/STM32F3xx_HAL_Driver/Inc/stm32f3xx_ll_rcc.h **** #endif /* RCC_CFGR_I2SSRC */
 396:../../Drivers/STM32F3xx_HAL_Driver/Inc/stm32f3xx_ll_rcc.h **** 
 397:../../Drivers/STM32F3xx_HAL_Driver/Inc/stm32f3xx_ll_rcc.h **** #if defined(RCC_CFGR3_TIMSW)
 398:../../Drivers/STM32F3xx_HAL_Driver/Inc/stm32f3xx_ll_rcc.h **** /** @defgroup RCC_LL_EC_TIM1_CLKSOURCE Peripheral TIM clock source selection
 399:../../Drivers/STM32F3xx_HAL_Driver/Inc/stm32f3xx_ll_rcc.h ****   * @{
 400:../../Drivers/STM32F3xx_HAL_Driver/Inc/stm32f3xx_ll_rcc.h ****   */
 401:../../Drivers/STM32F3xx_HAL_Driver/Inc/stm32f3xx_ll_rcc.h **** #define LL_RCC_TIM1_CLKSOURCE_PCLK2      (uint32_t)(((RCC_POSITION_TIM1SW - RCC_POSITION_TIM1SW) <<
 402:../../Drivers/STM32F3xx_HAL_Driver/Inc/stm32f3xx_ll_rcc.h **** #define LL_RCC_TIM1_CLKSOURCE_PLL        (uint32_t)(((RCC_POSITION_TIM1SW - RCC_POSITION_TIM1SW) <<
 403:../../Drivers/STM32F3xx_HAL_Driver/Inc/stm32f3xx_ll_rcc.h **** #if defined(RCC_CFGR3_TIM8SW)
 404:../../Drivers/STM32F3xx_HAL_Driver/Inc/stm32f3xx_ll_rcc.h **** #define LL_RCC_TIM8_CLKSOURCE_PCLK2      (uint32_t)(((RCC_POSITION_TIM8SW - RCC_POSITION_TIM1SW) <<
 405:../../Drivers/STM32F3xx_HAL_Driver/Inc/stm32f3xx_ll_rcc.h **** #define LL_RCC_TIM8_CLKSOURCE_PLL        (uint32_t)(((RCC_POSITION_TIM8SW - RCC_POSITION_TIM1SW) <<
ARM GAS  /tmp/ccBBHnuc.s 			page 15


 406:../../Drivers/STM32F3xx_HAL_Driver/Inc/stm32f3xx_ll_rcc.h **** #endif /*RCC_CFGR3_TIM8SW*/
 407:../../Drivers/STM32F3xx_HAL_Driver/Inc/stm32f3xx_ll_rcc.h **** #if defined(RCC_CFGR3_TIM15SW)
 408:../../Drivers/STM32F3xx_HAL_Driver/Inc/stm32f3xx_ll_rcc.h **** #define LL_RCC_TIM15_CLKSOURCE_PCLK2     (uint32_t)(((RCC_POSITION_TIM15SW - RCC_POSITION_TIM1SW) <
 409:../../Drivers/STM32F3xx_HAL_Driver/Inc/stm32f3xx_ll_rcc.h **** #define LL_RCC_TIM15_CLKSOURCE_PLL       (uint32_t)(((RCC_POSITION_TIM15SW - RCC_POSITION_TIM1SW) <
 410:../../Drivers/STM32F3xx_HAL_Driver/Inc/stm32f3xx_ll_rcc.h **** #endif /*RCC_CFGR3_TIM15SW*/
 411:../../Drivers/STM32F3xx_HAL_Driver/Inc/stm32f3xx_ll_rcc.h **** #if defined(RCC_CFGR3_TIM16SW)
 412:../../Drivers/STM32F3xx_HAL_Driver/Inc/stm32f3xx_ll_rcc.h **** #define LL_RCC_TIM16_CLKSOURCE_PCLK2     (uint32_t)(((RCC_POSITION_TIM16SW - RCC_POSITION_TIM1SW) <
 413:../../Drivers/STM32F3xx_HAL_Driver/Inc/stm32f3xx_ll_rcc.h **** #define LL_RCC_TIM16_CLKSOURCE_PLL       (uint32_t)(((RCC_POSITION_TIM16SW - RCC_POSITION_TIM1SW) <
 414:../../Drivers/STM32F3xx_HAL_Driver/Inc/stm32f3xx_ll_rcc.h **** #endif /*RCC_CFGR3_TIM16SW*/
 415:../../Drivers/STM32F3xx_HAL_Driver/Inc/stm32f3xx_ll_rcc.h **** #if defined(RCC_CFGR3_TIM17SW)
 416:../../Drivers/STM32F3xx_HAL_Driver/Inc/stm32f3xx_ll_rcc.h **** #define LL_RCC_TIM17_CLKSOURCE_PCLK2     (uint32_t)(((RCC_POSITION_TIM17SW - RCC_POSITION_TIM1SW) <
 417:../../Drivers/STM32F3xx_HAL_Driver/Inc/stm32f3xx_ll_rcc.h **** #define LL_RCC_TIM17_CLKSOURCE_PLL       (uint32_t)(((RCC_POSITION_TIM17SW - RCC_POSITION_TIM1SW) <
 418:../../Drivers/STM32F3xx_HAL_Driver/Inc/stm32f3xx_ll_rcc.h **** #endif /*RCC_CFGR3_TIM17SW*/
 419:../../Drivers/STM32F3xx_HAL_Driver/Inc/stm32f3xx_ll_rcc.h **** #if defined(RCC_CFGR3_TIM20SW)
 420:../../Drivers/STM32F3xx_HAL_Driver/Inc/stm32f3xx_ll_rcc.h **** #define LL_RCC_TIM20_CLKSOURCE_PCLK2     (uint32_t)(((RCC_POSITION_TIM20SW - RCC_POSITION_TIM1SW) <
 421:../../Drivers/STM32F3xx_HAL_Driver/Inc/stm32f3xx_ll_rcc.h **** #define LL_RCC_TIM20_CLKSOURCE_PLL       (uint32_t)(((RCC_POSITION_TIM20SW - RCC_POSITION_TIM1SW) <
 422:../../Drivers/STM32F3xx_HAL_Driver/Inc/stm32f3xx_ll_rcc.h **** #endif /*RCC_CFGR3_TIM20SW*/
 423:../../Drivers/STM32F3xx_HAL_Driver/Inc/stm32f3xx_ll_rcc.h **** #if defined(RCC_CFGR3_TIM2SW)
 424:../../Drivers/STM32F3xx_HAL_Driver/Inc/stm32f3xx_ll_rcc.h **** #define LL_RCC_TIM2_CLKSOURCE_PCLK1      (uint32_t)(((RCC_POSITION_TIM2SW - RCC_POSITION_TIM1SW) <<
 425:../../Drivers/STM32F3xx_HAL_Driver/Inc/stm32f3xx_ll_rcc.h **** #define LL_RCC_TIM2_CLKSOURCE_PLL        (uint32_t)(((RCC_POSITION_TIM2SW - RCC_POSITION_TIM1SW) <<
 426:../../Drivers/STM32F3xx_HAL_Driver/Inc/stm32f3xx_ll_rcc.h **** #endif /*RCC_CFGR3_TIM2SW*/
 427:../../Drivers/STM32F3xx_HAL_Driver/Inc/stm32f3xx_ll_rcc.h **** #if defined(RCC_CFGR3_TIM34SW)
 428:../../Drivers/STM32F3xx_HAL_Driver/Inc/stm32f3xx_ll_rcc.h **** #define LL_RCC_TIM34_CLKSOURCE_PCLK1     (uint32_t)(((RCC_POSITION_TIM34SW - RCC_POSITION_TIM1SW) <
 429:../../Drivers/STM32F3xx_HAL_Driver/Inc/stm32f3xx_ll_rcc.h **** #define LL_RCC_TIM34_CLKSOURCE_PLL       (uint32_t)(((RCC_POSITION_TIM34SW - RCC_POSITION_TIM1SW) <
 430:../../Drivers/STM32F3xx_HAL_Driver/Inc/stm32f3xx_ll_rcc.h **** #endif /*RCC_CFGR3_TIM34SW*/
 431:../../Drivers/STM32F3xx_HAL_Driver/Inc/stm32f3xx_ll_rcc.h **** /**
 432:../../Drivers/STM32F3xx_HAL_Driver/Inc/stm32f3xx_ll_rcc.h ****   * @}
 433:../../Drivers/STM32F3xx_HAL_Driver/Inc/stm32f3xx_ll_rcc.h ****   */
 434:../../Drivers/STM32F3xx_HAL_Driver/Inc/stm32f3xx_ll_rcc.h **** 
 435:../../Drivers/STM32F3xx_HAL_Driver/Inc/stm32f3xx_ll_rcc.h **** #endif /* RCC_CFGR3_TIMSW */
 436:../../Drivers/STM32F3xx_HAL_Driver/Inc/stm32f3xx_ll_rcc.h **** 
 437:../../Drivers/STM32F3xx_HAL_Driver/Inc/stm32f3xx_ll_rcc.h **** #if defined(HRTIM1)
 438:../../Drivers/STM32F3xx_HAL_Driver/Inc/stm32f3xx_ll_rcc.h **** /** @defgroup RCC_LL_EC_HRTIM1_CLKSOURCE Peripheral HRTIM1 clock source selection
 439:../../Drivers/STM32F3xx_HAL_Driver/Inc/stm32f3xx_ll_rcc.h ****   * @{
 440:../../Drivers/STM32F3xx_HAL_Driver/Inc/stm32f3xx_ll_rcc.h ****   */
 441:../../Drivers/STM32F3xx_HAL_Driver/Inc/stm32f3xx_ll_rcc.h **** #define LL_RCC_HRTIM1_CLKSOURCE_PCLK2    RCC_CFGR3_HRTIM1SW_PCLK2 /*!< PCLK2 used as  HRTIM1 clock 
 442:../../Drivers/STM32F3xx_HAL_Driver/Inc/stm32f3xx_ll_rcc.h **** #define LL_RCC_HRTIM1_CLKSOURCE_PLL      RCC_CFGR3_HRTIM1SW_PLL   /*!< PLL clock used as  HRTIM1 cl
 443:../../Drivers/STM32F3xx_HAL_Driver/Inc/stm32f3xx_ll_rcc.h **** /**
 444:../../Drivers/STM32F3xx_HAL_Driver/Inc/stm32f3xx_ll_rcc.h ****   * @}
 445:../../Drivers/STM32F3xx_HAL_Driver/Inc/stm32f3xx_ll_rcc.h ****   */
 446:../../Drivers/STM32F3xx_HAL_Driver/Inc/stm32f3xx_ll_rcc.h **** 
 447:../../Drivers/STM32F3xx_HAL_Driver/Inc/stm32f3xx_ll_rcc.h **** #endif /* HRTIM1 */
 448:../../Drivers/STM32F3xx_HAL_Driver/Inc/stm32f3xx_ll_rcc.h **** 
 449:../../Drivers/STM32F3xx_HAL_Driver/Inc/stm32f3xx_ll_rcc.h **** #if defined(CEC)
 450:../../Drivers/STM32F3xx_HAL_Driver/Inc/stm32f3xx_ll_rcc.h **** /** @defgroup RCC_LL_EC_CEC_CLKSOURCE Peripheral CEC clock source selection
 451:../../Drivers/STM32F3xx_HAL_Driver/Inc/stm32f3xx_ll_rcc.h ****   * @{
 452:../../Drivers/STM32F3xx_HAL_Driver/Inc/stm32f3xx_ll_rcc.h ****   */
 453:../../Drivers/STM32F3xx_HAL_Driver/Inc/stm32f3xx_ll_rcc.h **** #define LL_RCC_CEC_CLKSOURCE_HSI_DIV244  RCC_CFGR3_CECSW_HSI_DIV244 /*!< HSI clock divided by 244 s
 454:../../Drivers/STM32F3xx_HAL_Driver/Inc/stm32f3xx_ll_rcc.h **** #define LL_RCC_CEC_CLKSOURCE_LSE         RCC_CFGR3_CECSW_LSE        /*!< LSE clock selected as HDMI
 455:../../Drivers/STM32F3xx_HAL_Driver/Inc/stm32f3xx_ll_rcc.h **** /**
 456:../../Drivers/STM32F3xx_HAL_Driver/Inc/stm32f3xx_ll_rcc.h ****   * @}
 457:../../Drivers/STM32F3xx_HAL_Driver/Inc/stm32f3xx_ll_rcc.h ****   */
 458:../../Drivers/STM32F3xx_HAL_Driver/Inc/stm32f3xx_ll_rcc.h **** 
 459:../../Drivers/STM32F3xx_HAL_Driver/Inc/stm32f3xx_ll_rcc.h **** #endif /* CEC */
 460:../../Drivers/STM32F3xx_HAL_Driver/Inc/stm32f3xx_ll_rcc.h **** 
 461:../../Drivers/STM32F3xx_HAL_Driver/Inc/stm32f3xx_ll_rcc.h **** #if defined(USB)
 462:../../Drivers/STM32F3xx_HAL_Driver/Inc/stm32f3xx_ll_rcc.h **** /** @defgroup RCC_LL_EC_USB_CLKSOURCE Peripheral USB clock source selection
ARM GAS  /tmp/ccBBHnuc.s 			page 16


 463:../../Drivers/STM32F3xx_HAL_Driver/Inc/stm32f3xx_ll_rcc.h ****   * @{
 464:../../Drivers/STM32F3xx_HAL_Driver/Inc/stm32f3xx_ll_rcc.h ****   */
 465:../../Drivers/STM32F3xx_HAL_Driver/Inc/stm32f3xx_ll_rcc.h **** #define LL_RCC_USB_CLKSOURCE_PLL         RCC_CFGR_USBPRE_DIV1    /*!< USB prescaler is PLL clock di
 466:../../Drivers/STM32F3xx_HAL_Driver/Inc/stm32f3xx_ll_rcc.h **** #define LL_RCC_USB_CLKSOURCE_PLL_DIV_1_5 RCC_CFGR_USBPRE_DIV1_5  /*!< USB prescaler is PLL clock di
 467:../../Drivers/STM32F3xx_HAL_Driver/Inc/stm32f3xx_ll_rcc.h **** /**
 468:../../Drivers/STM32F3xx_HAL_Driver/Inc/stm32f3xx_ll_rcc.h ****   * @}
 469:../../Drivers/STM32F3xx_HAL_Driver/Inc/stm32f3xx_ll_rcc.h ****   */
 470:../../Drivers/STM32F3xx_HAL_Driver/Inc/stm32f3xx_ll_rcc.h **** 
 471:../../Drivers/STM32F3xx_HAL_Driver/Inc/stm32f3xx_ll_rcc.h **** #endif /* USB */
 472:../../Drivers/STM32F3xx_HAL_Driver/Inc/stm32f3xx_ll_rcc.h **** 
 473:../../Drivers/STM32F3xx_HAL_Driver/Inc/stm32f3xx_ll_rcc.h **** #if defined(RCC_CFGR_ADCPRE)
 474:../../Drivers/STM32F3xx_HAL_Driver/Inc/stm32f3xx_ll_rcc.h **** /** @defgroup RCC_LL_EC_ADC_CLKSOURCE Peripheral ADC clock source selection
 475:../../Drivers/STM32F3xx_HAL_Driver/Inc/stm32f3xx_ll_rcc.h ****   * @{
 476:../../Drivers/STM32F3xx_HAL_Driver/Inc/stm32f3xx_ll_rcc.h ****   */
 477:../../Drivers/STM32F3xx_HAL_Driver/Inc/stm32f3xx_ll_rcc.h **** #define LL_RCC_ADC_CLKSRC_PCLK2_DIV_2    RCC_CFGR_ADCPRE_DIV2      /*!< ADC prescaler PCLK divided 
 478:../../Drivers/STM32F3xx_HAL_Driver/Inc/stm32f3xx_ll_rcc.h **** #define LL_RCC_ADC_CLKSRC_PCLK2_DIV_4    RCC_CFGR_ADCPRE_DIV4      /*!< ADC prescaler PCLK divided 
 479:../../Drivers/STM32F3xx_HAL_Driver/Inc/stm32f3xx_ll_rcc.h **** #define LL_RCC_ADC_CLKSRC_PCLK2_DIV_6    RCC_CFGR_ADCPRE_DIV6      /*!< ADC prescaler PCLK divided 
 480:../../Drivers/STM32F3xx_HAL_Driver/Inc/stm32f3xx_ll_rcc.h **** #define LL_RCC_ADC_CLKSRC_PCLK2_DIV_8    RCC_CFGR_ADCPRE_DIV8      /*!< ADC prescaler PCLK divided 
 481:../../Drivers/STM32F3xx_HAL_Driver/Inc/stm32f3xx_ll_rcc.h **** /**
 482:../../Drivers/STM32F3xx_HAL_Driver/Inc/stm32f3xx_ll_rcc.h ****   * @}
 483:../../Drivers/STM32F3xx_HAL_Driver/Inc/stm32f3xx_ll_rcc.h ****   */
 484:../../Drivers/STM32F3xx_HAL_Driver/Inc/stm32f3xx_ll_rcc.h **** 
 485:../../Drivers/STM32F3xx_HAL_Driver/Inc/stm32f3xx_ll_rcc.h **** #elif defined(RCC_CFGR2_ADC1PRES)
 486:../../Drivers/STM32F3xx_HAL_Driver/Inc/stm32f3xx_ll_rcc.h **** /** @defgroup RCC_LL_EC_ADC1_CLKSOURCE Peripheral ADC clock source selection
 487:../../Drivers/STM32F3xx_HAL_Driver/Inc/stm32f3xx_ll_rcc.h ****   * @{
 488:../../Drivers/STM32F3xx_HAL_Driver/Inc/stm32f3xx_ll_rcc.h ****   */
 489:../../Drivers/STM32F3xx_HAL_Driver/Inc/stm32f3xx_ll_rcc.h **** #define LL_RCC_ADC1_CLKSRC_HCLK          RCC_CFGR2_ADC1PRES_NO     /*!< ADC1 clock disabled, ADC1 c
 490:../../Drivers/STM32F3xx_HAL_Driver/Inc/stm32f3xx_ll_rcc.h **** #define LL_RCC_ADC1_CLKSRC_PLL_DIV_1     RCC_CFGR2_ADC1PRES_DIV1   /*!< ADC1 PLL clock divided by 1
 491:../../Drivers/STM32F3xx_HAL_Driver/Inc/stm32f3xx_ll_rcc.h **** #define LL_RCC_ADC1_CLKSRC_PLL_DIV_2     RCC_CFGR2_ADC1PRES_DIV2   /*!< ADC1 PLL clock divided by 2
 492:../../Drivers/STM32F3xx_HAL_Driver/Inc/stm32f3xx_ll_rcc.h **** #define LL_RCC_ADC1_CLKSRC_PLL_DIV_4     RCC_CFGR2_ADC1PRES_DIV4   /*!< ADC1 PLL clock divided by 4
 493:../../Drivers/STM32F3xx_HAL_Driver/Inc/stm32f3xx_ll_rcc.h **** #define LL_RCC_ADC1_CLKSRC_PLL_DIV_6     RCC_CFGR2_ADC1PRES_DIV6   /*!< ADC1 PLL clock divided by 6
 494:../../Drivers/STM32F3xx_HAL_Driver/Inc/stm32f3xx_ll_rcc.h **** #define LL_RCC_ADC1_CLKSRC_PLL_DIV_8     RCC_CFGR2_ADC1PRES_DIV8   /*!< ADC1 PLL clock divided by 8
 495:../../Drivers/STM32F3xx_HAL_Driver/Inc/stm32f3xx_ll_rcc.h **** #define LL_RCC_ADC1_CLKSRC_PLL_DIV_10    RCC_CFGR2_ADC1PRES_DIV10  /*!< ADC1 PLL clock divided by 1
 496:../../Drivers/STM32F3xx_HAL_Driver/Inc/stm32f3xx_ll_rcc.h **** #define LL_RCC_ADC1_CLKSRC_PLL_DIV_12    RCC_CFGR2_ADC1PRES_DIV12  /*!< ADC1 PLL clock divided by 1
 497:../../Drivers/STM32F3xx_HAL_Driver/Inc/stm32f3xx_ll_rcc.h **** #define LL_RCC_ADC1_CLKSRC_PLL_DIV_16    RCC_CFGR2_ADC1PRES_DIV16  /*!< ADC1 PLL clock divided by 1
 498:../../Drivers/STM32F3xx_HAL_Driver/Inc/stm32f3xx_ll_rcc.h **** #define LL_RCC_ADC1_CLKSRC_PLL_DIV_32    RCC_CFGR2_ADC1PRES_DIV32  /*!< ADC1 PLL clock divided by 3
 499:../../Drivers/STM32F3xx_HAL_Driver/Inc/stm32f3xx_ll_rcc.h **** #define LL_RCC_ADC1_CLKSRC_PLL_DIV_64    RCC_CFGR2_ADC1PRES_DIV64  /*!< ADC1 PLL clock divided by 6
 500:../../Drivers/STM32F3xx_HAL_Driver/Inc/stm32f3xx_ll_rcc.h **** #define LL_RCC_ADC1_CLKSRC_PLL_DIV_128   RCC_CFGR2_ADC1PRES_DIV128 /*!< ADC1 PLL clock divided by 1
 501:../../Drivers/STM32F3xx_HAL_Driver/Inc/stm32f3xx_ll_rcc.h **** #define LL_RCC_ADC1_CLKSRC_PLL_DIV_256   RCC_CFGR2_ADC1PRES_DIV256 /*!< ADC1 PLL clock divided by 2
 502:../../Drivers/STM32F3xx_HAL_Driver/Inc/stm32f3xx_ll_rcc.h **** /**
 503:../../Drivers/STM32F3xx_HAL_Driver/Inc/stm32f3xx_ll_rcc.h ****   * @}
 504:../../Drivers/STM32F3xx_HAL_Driver/Inc/stm32f3xx_ll_rcc.h ****   */
 505:../../Drivers/STM32F3xx_HAL_Driver/Inc/stm32f3xx_ll_rcc.h **** 
 506:../../Drivers/STM32F3xx_HAL_Driver/Inc/stm32f3xx_ll_rcc.h **** #elif defined(RCC_CFGR2_ADCPRE12) || defined(RCC_CFGR2_ADCPRE34)
 507:../../Drivers/STM32F3xx_HAL_Driver/Inc/stm32f3xx_ll_rcc.h **** #if defined(RCC_CFGR2_ADCPRE12) && defined(RCC_CFGR2_ADCPRE34)
 508:../../Drivers/STM32F3xx_HAL_Driver/Inc/stm32f3xx_ll_rcc.h **** /** @defgroup RCC_LL_EC_ADC12_CLKSOURCE Peripheral ADC12 clock source selection
 509:../../Drivers/STM32F3xx_HAL_Driver/Inc/stm32f3xx_ll_rcc.h ****   * @{
 510:../../Drivers/STM32F3xx_HAL_Driver/Inc/stm32f3xx_ll_rcc.h ****   */
 511:../../Drivers/STM32F3xx_HAL_Driver/Inc/stm32f3xx_ll_rcc.h **** #define LL_RCC_ADC12_CLKSRC_HCLK         (uint32_t)((RCC_CFGR2_ADCPRE12 << 16U) | RCC_CFGR2_ADCPRE1
 512:../../Drivers/STM32F3xx_HAL_Driver/Inc/stm32f3xx_ll_rcc.h **** #define LL_RCC_ADC12_CLKSRC_PLL_DIV_1    (uint32_t)((RCC_CFGR2_ADCPRE12 << 16U) | RCC_CFGR2_ADCPRE1
 513:../../Drivers/STM32F3xx_HAL_Driver/Inc/stm32f3xx_ll_rcc.h **** #define LL_RCC_ADC12_CLKSRC_PLL_DIV_2    (uint32_t)((RCC_CFGR2_ADCPRE12 << 16U) | RCC_CFGR2_ADCPRE1
 514:../../Drivers/STM32F3xx_HAL_Driver/Inc/stm32f3xx_ll_rcc.h **** #define LL_RCC_ADC12_CLKSRC_PLL_DIV_4    (uint32_t)((RCC_CFGR2_ADCPRE12 << 16U) | RCC_CFGR2_ADCPRE1
 515:../../Drivers/STM32F3xx_HAL_Driver/Inc/stm32f3xx_ll_rcc.h **** #define LL_RCC_ADC12_CLKSRC_PLL_DIV_6    (uint32_t)((RCC_CFGR2_ADCPRE12 << 16U) | RCC_CFGR2_ADCPRE1
 516:../../Drivers/STM32F3xx_HAL_Driver/Inc/stm32f3xx_ll_rcc.h **** #define LL_RCC_ADC12_CLKSRC_PLL_DIV_8    (uint32_t)((RCC_CFGR2_ADCPRE12 << 16U) | RCC_CFGR2_ADCPRE1
 517:../../Drivers/STM32F3xx_HAL_Driver/Inc/stm32f3xx_ll_rcc.h **** #define LL_RCC_ADC12_CLKSRC_PLL_DIV_10   (uint32_t)((RCC_CFGR2_ADCPRE12 << 16U) | RCC_CFGR2_ADCPRE1
 518:../../Drivers/STM32F3xx_HAL_Driver/Inc/stm32f3xx_ll_rcc.h **** #define LL_RCC_ADC12_CLKSRC_PLL_DIV_12   (uint32_t)((RCC_CFGR2_ADCPRE12 << 16U) | RCC_CFGR2_ADCPRE1
 519:../../Drivers/STM32F3xx_HAL_Driver/Inc/stm32f3xx_ll_rcc.h **** #define LL_RCC_ADC12_CLKSRC_PLL_DIV_16   (uint32_t)((RCC_CFGR2_ADCPRE12 << 16U) | RCC_CFGR2_ADCPRE1
ARM GAS  /tmp/ccBBHnuc.s 			page 17


 520:../../Drivers/STM32F3xx_HAL_Driver/Inc/stm32f3xx_ll_rcc.h **** #define LL_RCC_ADC12_CLKSRC_PLL_DIV_32   (uint32_t)((RCC_CFGR2_ADCPRE12 << 16U) | RCC_CFGR2_ADCPRE1
 521:../../Drivers/STM32F3xx_HAL_Driver/Inc/stm32f3xx_ll_rcc.h **** #define LL_RCC_ADC12_CLKSRC_PLL_DIV_64   (uint32_t)((RCC_CFGR2_ADCPRE12 << 16U) | RCC_CFGR2_ADCPRE1
 522:../../Drivers/STM32F3xx_HAL_Driver/Inc/stm32f3xx_ll_rcc.h **** #define LL_RCC_ADC12_CLKSRC_PLL_DIV_128  (uint32_t)((RCC_CFGR2_ADCPRE12 << 16U) | RCC_CFGR2_ADCPRE1
 523:../../Drivers/STM32F3xx_HAL_Driver/Inc/stm32f3xx_ll_rcc.h **** #define LL_RCC_ADC12_CLKSRC_PLL_DIV_256  (uint32_t)((RCC_CFGR2_ADCPRE12 << 16U) | RCC_CFGR2_ADCPRE1
 524:../../Drivers/STM32F3xx_HAL_Driver/Inc/stm32f3xx_ll_rcc.h **** /**
 525:../../Drivers/STM32F3xx_HAL_Driver/Inc/stm32f3xx_ll_rcc.h ****   * @}
 526:../../Drivers/STM32F3xx_HAL_Driver/Inc/stm32f3xx_ll_rcc.h ****   */
 527:../../Drivers/STM32F3xx_HAL_Driver/Inc/stm32f3xx_ll_rcc.h **** 
 528:../../Drivers/STM32F3xx_HAL_Driver/Inc/stm32f3xx_ll_rcc.h **** /** @defgroup RCC_LL_EC_ADC34_CLKSOURCE Peripheral ADC34 clock source selection
 529:../../Drivers/STM32F3xx_HAL_Driver/Inc/stm32f3xx_ll_rcc.h ****   * @{
 530:../../Drivers/STM32F3xx_HAL_Driver/Inc/stm32f3xx_ll_rcc.h ****   */
 531:../../Drivers/STM32F3xx_HAL_Driver/Inc/stm32f3xx_ll_rcc.h **** #define LL_RCC_ADC34_CLKSRC_HCLK         (uint32_t)((RCC_CFGR2_ADCPRE34 << 16U) | RCC_CFGR2_ADCPRE3
 532:../../Drivers/STM32F3xx_HAL_Driver/Inc/stm32f3xx_ll_rcc.h **** #define LL_RCC_ADC34_CLKSRC_PLL_DIV_1    (uint32_t)((RCC_CFGR2_ADCPRE34 << 16U) | RCC_CFGR2_ADCPRE3
 533:../../Drivers/STM32F3xx_HAL_Driver/Inc/stm32f3xx_ll_rcc.h **** #define LL_RCC_ADC34_CLKSRC_PLL_DIV_2    (uint32_t)((RCC_CFGR2_ADCPRE34 << 16U) | RCC_CFGR2_ADCPRE3
 534:../../Drivers/STM32F3xx_HAL_Driver/Inc/stm32f3xx_ll_rcc.h **** #define LL_RCC_ADC34_CLKSRC_PLL_DIV_4    (uint32_t)((RCC_CFGR2_ADCPRE34 << 16U) | RCC_CFGR2_ADCPRE3
 535:../../Drivers/STM32F3xx_HAL_Driver/Inc/stm32f3xx_ll_rcc.h **** #define LL_RCC_ADC34_CLKSRC_PLL_DIV_6    (uint32_t)((RCC_CFGR2_ADCPRE34 << 16U) | RCC_CFGR2_ADCPRE3
 536:../../Drivers/STM32F3xx_HAL_Driver/Inc/stm32f3xx_ll_rcc.h **** #define LL_RCC_ADC34_CLKSRC_PLL_DIV_8    (uint32_t)((RCC_CFGR2_ADCPRE34 << 16U) | RCC_CFGR2_ADCPRE3
 537:../../Drivers/STM32F3xx_HAL_Driver/Inc/stm32f3xx_ll_rcc.h **** #define LL_RCC_ADC34_CLKSRC_PLL_DIV_10   (uint32_t)((RCC_CFGR2_ADCPRE34 << 16U) | RCC_CFGR2_ADCPRE3
 538:../../Drivers/STM32F3xx_HAL_Driver/Inc/stm32f3xx_ll_rcc.h **** #define LL_RCC_ADC34_CLKSRC_PLL_DIV_12   (uint32_t)((RCC_CFGR2_ADCPRE34 << 16U) | RCC_CFGR2_ADCPRE3
 539:../../Drivers/STM32F3xx_HAL_Driver/Inc/stm32f3xx_ll_rcc.h **** #define LL_RCC_ADC34_CLKSRC_PLL_DIV_16   (uint32_t)((RCC_CFGR2_ADCPRE34 << 16U) | RCC_CFGR2_ADCPRE3
 540:../../Drivers/STM32F3xx_HAL_Driver/Inc/stm32f3xx_ll_rcc.h **** #define LL_RCC_ADC34_CLKSRC_PLL_DIV_32   (uint32_t)((RCC_CFGR2_ADCPRE34 << 16U) | RCC_CFGR2_ADCPRE3
 541:../../Drivers/STM32F3xx_HAL_Driver/Inc/stm32f3xx_ll_rcc.h **** #define LL_RCC_ADC34_CLKSRC_PLL_DIV_64   (uint32_t)((RCC_CFGR2_ADCPRE34 << 16U) | RCC_CFGR2_ADCPRE3
 542:../../Drivers/STM32F3xx_HAL_Driver/Inc/stm32f3xx_ll_rcc.h **** #define LL_RCC_ADC34_CLKSRC_PLL_DIV_128  (uint32_t)((RCC_CFGR2_ADCPRE34 << 16U) | RCC_CFGR2_ADCPRE3
 543:../../Drivers/STM32F3xx_HAL_Driver/Inc/stm32f3xx_ll_rcc.h **** #define LL_RCC_ADC34_CLKSRC_PLL_DIV_256  (uint32_t)((RCC_CFGR2_ADCPRE34 << 16U) | RCC_CFGR2_ADCPRE3
 544:../../Drivers/STM32F3xx_HAL_Driver/Inc/stm32f3xx_ll_rcc.h **** /**
 545:../../Drivers/STM32F3xx_HAL_Driver/Inc/stm32f3xx_ll_rcc.h ****   * @}
 546:../../Drivers/STM32F3xx_HAL_Driver/Inc/stm32f3xx_ll_rcc.h ****   */
 547:../../Drivers/STM32F3xx_HAL_Driver/Inc/stm32f3xx_ll_rcc.h **** 
 548:../../Drivers/STM32F3xx_HAL_Driver/Inc/stm32f3xx_ll_rcc.h **** #else
 549:../../Drivers/STM32F3xx_HAL_Driver/Inc/stm32f3xx_ll_rcc.h **** /** @defgroup RCC_LL_EC_ADC12_CLKSOURCE Peripheral ADC clock source selection
 550:../../Drivers/STM32F3xx_HAL_Driver/Inc/stm32f3xx_ll_rcc.h ****   * @{
 551:../../Drivers/STM32F3xx_HAL_Driver/Inc/stm32f3xx_ll_rcc.h ****   */
 552:../../Drivers/STM32F3xx_HAL_Driver/Inc/stm32f3xx_ll_rcc.h **** #define LL_RCC_ADC12_CLKSRC_HCLK         RCC_CFGR2_ADCPRE12_NO     /*!< ADC12 clock disabled, ADC12
 553:../../Drivers/STM32F3xx_HAL_Driver/Inc/stm32f3xx_ll_rcc.h **** #define LL_RCC_ADC12_CLKSRC_PLL_DIV_1    RCC_CFGR2_ADCPRE12_DIV1   /*!< ADC12 PLL clock divided by 
 554:../../Drivers/STM32F3xx_HAL_Driver/Inc/stm32f3xx_ll_rcc.h **** #define LL_RCC_ADC12_CLKSRC_PLL_DIV_2    RCC_CFGR2_ADCPRE12_DIV2   /*!< ADC12 PLL clock divided by 
 555:../../Drivers/STM32F3xx_HAL_Driver/Inc/stm32f3xx_ll_rcc.h **** #define LL_RCC_ADC12_CLKSRC_PLL_DIV_4    RCC_CFGR2_ADCPRE12_DIV4   /*!< ADC12 PLL clock divided by 
 556:../../Drivers/STM32F3xx_HAL_Driver/Inc/stm32f3xx_ll_rcc.h **** #define LL_RCC_ADC12_CLKSRC_PLL_DIV_6    RCC_CFGR2_ADCPRE12_DIV6   /*!< ADC12 PLL clock divided by 
 557:../../Drivers/STM32F3xx_HAL_Driver/Inc/stm32f3xx_ll_rcc.h **** #define LL_RCC_ADC12_CLKSRC_PLL_DIV_8    RCC_CFGR2_ADCPRE12_DIV8   /*!< ADC12 PLL clock divided by 
 558:../../Drivers/STM32F3xx_HAL_Driver/Inc/stm32f3xx_ll_rcc.h **** #define LL_RCC_ADC12_CLKSRC_PLL_DIV_10   RCC_CFGR2_ADCPRE12_DIV10  /*!< ADC12 PLL clock divided by 
 559:../../Drivers/STM32F3xx_HAL_Driver/Inc/stm32f3xx_ll_rcc.h **** #define LL_RCC_ADC12_CLKSRC_PLL_DIV_12   RCC_CFGR2_ADCPRE12_DIV12  /*!< ADC12 PLL clock divided by 
 560:../../Drivers/STM32F3xx_HAL_Driver/Inc/stm32f3xx_ll_rcc.h **** #define LL_RCC_ADC12_CLKSRC_PLL_DIV_16   RCC_CFGR2_ADCPRE12_DIV16  /*!< ADC12 PLL clock divided by 
 561:../../Drivers/STM32F3xx_HAL_Driver/Inc/stm32f3xx_ll_rcc.h **** #define LL_RCC_ADC12_CLKSRC_PLL_DIV_32   RCC_CFGR2_ADCPRE12_DIV32  /*!< ADC12 PLL clock divided by 
 562:../../Drivers/STM32F3xx_HAL_Driver/Inc/stm32f3xx_ll_rcc.h **** #define LL_RCC_ADC12_CLKSRC_PLL_DIV_64   RCC_CFGR2_ADCPRE12_DIV64  /*!< ADC12 PLL clock divided by 
 563:../../Drivers/STM32F3xx_HAL_Driver/Inc/stm32f3xx_ll_rcc.h **** #define LL_RCC_ADC12_CLKSRC_PLL_DIV_128  RCC_CFGR2_ADCPRE12_DIV128 /*!< ADC12 PLL clock divided by 
 564:../../Drivers/STM32F3xx_HAL_Driver/Inc/stm32f3xx_ll_rcc.h **** #define LL_RCC_ADC12_CLKSRC_PLL_DIV_256  RCC_CFGR2_ADCPRE12_DIV256 /*!< ADC12 PLL clock divided by 
 565:../../Drivers/STM32F3xx_HAL_Driver/Inc/stm32f3xx_ll_rcc.h **** /**
 566:../../Drivers/STM32F3xx_HAL_Driver/Inc/stm32f3xx_ll_rcc.h ****   * @}
 567:../../Drivers/STM32F3xx_HAL_Driver/Inc/stm32f3xx_ll_rcc.h ****   */
 568:../../Drivers/STM32F3xx_HAL_Driver/Inc/stm32f3xx_ll_rcc.h **** 
 569:../../Drivers/STM32F3xx_HAL_Driver/Inc/stm32f3xx_ll_rcc.h **** #endif /* RCC_CFGR2_ADCPRE12 && RCC_CFGR2_ADCPRE34 */
 570:../../Drivers/STM32F3xx_HAL_Driver/Inc/stm32f3xx_ll_rcc.h **** 
 571:../../Drivers/STM32F3xx_HAL_Driver/Inc/stm32f3xx_ll_rcc.h **** #endif /* RCC_CFGR_ADCPRE */
 572:../../Drivers/STM32F3xx_HAL_Driver/Inc/stm32f3xx_ll_rcc.h **** 
 573:../../Drivers/STM32F3xx_HAL_Driver/Inc/stm32f3xx_ll_rcc.h **** #if defined(RCC_CFGR_SDPRE)
 574:../../Drivers/STM32F3xx_HAL_Driver/Inc/stm32f3xx_ll_rcc.h **** /** @defgroup RCC_LL_EC_SDADC_CLKSOURCE_SYSCLK Peripheral SDADC clock source selection
 575:../../Drivers/STM32F3xx_HAL_Driver/Inc/stm32f3xx_ll_rcc.h ****   * @{
 576:../../Drivers/STM32F3xx_HAL_Driver/Inc/stm32f3xx_ll_rcc.h ****   */
ARM GAS  /tmp/ccBBHnuc.s 			page 18


 577:../../Drivers/STM32F3xx_HAL_Driver/Inc/stm32f3xx_ll_rcc.h **** #define LL_RCC_SDADC_CLKSRC_SYS_DIV_1    RCC_CFGR_SDPRE_DIV1   /*!< SDADC CLK not divided */
 578:../../Drivers/STM32F3xx_HAL_Driver/Inc/stm32f3xx_ll_rcc.h **** #define LL_RCC_SDADC_CLKSRC_SYS_DIV_2    RCC_CFGR_SDPRE_DIV2   /*!< SDADC CLK divided by 2 */
 579:../../Drivers/STM32F3xx_HAL_Driver/Inc/stm32f3xx_ll_rcc.h **** #define LL_RCC_SDADC_CLKSRC_SYS_DIV_4    RCC_CFGR_SDPRE_DIV4   /*!< SDADC CLK divided by 4 */
 580:../../Drivers/STM32F3xx_HAL_Driver/Inc/stm32f3xx_ll_rcc.h **** #define LL_RCC_SDADC_CLKSRC_SYS_DIV_6    RCC_CFGR_SDPRE_DIV6   /*!< SDADC CLK divided by 6 */
 581:../../Drivers/STM32F3xx_HAL_Driver/Inc/stm32f3xx_ll_rcc.h **** #define LL_RCC_SDADC_CLKSRC_SYS_DIV_8    RCC_CFGR_SDPRE_DIV8   /*!< SDADC CLK divided by 8 */
 582:../../Drivers/STM32F3xx_HAL_Driver/Inc/stm32f3xx_ll_rcc.h **** #define LL_RCC_SDADC_CLKSRC_SYS_DIV_10   RCC_CFGR_SDPRE_DIV10  /*!< SDADC CLK divided by 10 */
 583:../../Drivers/STM32F3xx_HAL_Driver/Inc/stm32f3xx_ll_rcc.h **** #define LL_RCC_SDADC_CLKSRC_SYS_DIV_12   RCC_CFGR_SDPRE_DIV12  /*!< SDADC CLK divided by 12 */
 584:../../Drivers/STM32F3xx_HAL_Driver/Inc/stm32f3xx_ll_rcc.h **** #define LL_RCC_SDADC_CLKSRC_SYS_DIV_14   RCC_CFGR_SDPRE_DIV14  /*!< SDADC CLK divided by 14 */
 585:../../Drivers/STM32F3xx_HAL_Driver/Inc/stm32f3xx_ll_rcc.h **** #define LL_RCC_SDADC_CLKSRC_SYS_DIV_16   RCC_CFGR_SDPRE_DIV16  /*!< SDADC CLK divided by 16 */
 586:../../Drivers/STM32F3xx_HAL_Driver/Inc/stm32f3xx_ll_rcc.h **** #define LL_RCC_SDADC_CLKSRC_SYS_DIV_20   RCC_CFGR_SDPRE_DIV20  /*!< SDADC CLK divided by 20 */
 587:../../Drivers/STM32F3xx_HAL_Driver/Inc/stm32f3xx_ll_rcc.h **** #define LL_RCC_SDADC_CLKSRC_SYS_DIV_24   RCC_CFGR_SDPRE_DIV24  /*!< SDADC CLK divided by 24 */
 588:../../Drivers/STM32F3xx_HAL_Driver/Inc/stm32f3xx_ll_rcc.h **** #define LL_RCC_SDADC_CLKSRC_SYS_DIV_28   RCC_CFGR_SDPRE_DIV28  /*!< SDADC CLK divided by 28 */
 589:../../Drivers/STM32F3xx_HAL_Driver/Inc/stm32f3xx_ll_rcc.h **** #define LL_RCC_SDADC_CLKSRC_SYS_DIV_32   RCC_CFGR_SDPRE_DIV32  /*!< SDADC CLK divided by 32 */
 590:../../Drivers/STM32F3xx_HAL_Driver/Inc/stm32f3xx_ll_rcc.h **** #define LL_RCC_SDADC_CLKSRC_SYS_DIV_36   RCC_CFGR_SDPRE_DIV36  /*!< SDADC CLK divided by 36 */
 591:../../Drivers/STM32F3xx_HAL_Driver/Inc/stm32f3xx_ll_rcc.h **** #define LL_RCC_SDADC_CLKSRC_SYS_DIV_40   RCC_CFGR_SDPRE_DIV40  /*!< SDADC CLK divided by 40 */
 592:../../Drivers/STM32F3xx_HAL_Driver/Inc/stm32f3xx_ll_rcc.h **** #define LL_RCC_SDADC_CLKSRC_SYS_DIV_44   RCC_CFGR_SDPRE_DIV44  /*!< SDADC CLK divided by 44 */
 593:../../Drivers/STM32F3xx_HAL_Driver/Inc/stm32f3xx_ll_rcc.h **** #define LL_RCC_SDADC_CLKSRC_SYS_DIV_48   RCC_CFGR_SDPRE_DIV48  /*!< SDADC CLK divided by 48 */
 594:../../Drivers/STM32F3xx_HAL_Driver/Inc/stm32f3xx_ll_rcc.h **** /**
 595:../../Drivers/STM32F3xx_HAL_Driver/Inc/stm32f3xx_ll_rcc.h ****   * @}
 596:../../Drivers/STM32F3xx_HAL_Driver/Inc/stm32f3xx_ll_rcc.h ****   */
 597:../../Drivers/STM32F3xx_HAL_Driver/Inc/stm32f3xx_ll_rcc.h **** 
 598:../../Drivers/STM32F3xx_HAL_Driver/Inc/stm32f3xx_ll_rcc.h **** #endif /* RCC_CFGR_SDPRE */
 599:../../Drivers/STM32F3xx_HAL_Driver/Inc/stm32f3xx_ll_rcc.h **** 
 600:../../Drivers/STM32F3xx_HAL_Driver/Inc/stm32f3xx_ll_rcc.h **** /** @defgroup RCC_LL_EC_USART Peripheral USART get clock source
 601:../../Drivers/STM32F3xx_HAL_Driver/Inc/stm32f3xx_ll_rcc.h ****   * @{
 602:../../Drivers/STM32F3xx_HAL_Driver/Inc/stm32f3xx_ll_rcc.h ****   */
 603:../../Drivers/STM32F3xx_HAL_Driver/Inc/stm32f3xx_ll_rcc.h **** #define LL_RCC_USART1_CLKSOURCE          RCC_POSITION_USART1SW /*!< USART1 Clock source selection *
 604:../../Drivers/STM32F3xx_HAL_Driver/Inc/stm32f3xx_ll_rcc.h **** #if defined(RCC_CFGR3_USART2SW)
 605:../../Drivers/STM32F3xx_HAL_Driver/Inc/stm32f3xx_ll_rcc.h **** #define LL_RCC_USART2_CLKSOURCE          RCC_POSITION_USART2SW /*!< USART2 Clock source selection *
 606:../../Drivers/STM32F3xx_HAL_Driver/Inc/stm32f3xx_ll_rcc.h **** #endif /* RCC_CFGR3_USART2SW */
 607:../../Drivers/STM32F3xx_HAL_Driver/Inc/stm32f3xx_ll_rcc.h **** #if defined(RCC_CFGR3_USART3SW)
 608:../../Drivers/STM32F3xx_HAL_Driver/Inc/stm32f3xx_ll_rcc.h **** #define LL_RCC_USART3_CLKSOURCE          RCC_POSITION_USART3SW /*!< USART3 Clock source selection *
 609:../../Drivers/STM32F3xx_HAL_Driver/Inc/stm32f3xx_ll_rcc.h **** #endif /* RCC_CFGR3_USART3SW */
 610:../../Drivers/STM32F3xx_HAL_Driver/Inc/stm32f3xx_ll_rcc.h **** /**
 611:../../Drivers/STM32F3xx_HAL_Driver/Inc/stm32f3xx_ll_rcc.h ****   * @}
 612:../../Drivers/STM32F3xx_HAL_Driver/Inc/stm32f3xx_ll_rcc.h ****   */
 613:../../Drivers/STM32F3xx_HAL_Driver/Inc/stm32f3xx_ll_rcc.h **** 
 614:../../Drivers/STM32F3xx_HAL_Driver/Inc/stm32f3xx_ll_rcc.h **** #if defined(RCC_CFGR3_UART4SW) || defined(RCC_CFGR3_UART5SW)
 615:../../Drivers/STM32F3xx_HAL_Driver/Inc/stm32f3xx_ll_rcc.h **** /** @defgroup RCC_LL_EC_UART Peripheral UART get clock source
 616:../../Drivers/STM32F3xx_HAL_Driver/Inc/stm32f3xx_ll_rcc.h ****   * @{
 617:../../Drivers/STM32F3xx_HAL_Driver/Inc/stm32f3xx_ll_rcc.h ****   */
 618:../../Drivers/STM32F3xx_HAL_Driver/Inc/stm32f3xx_ll_rcc.h **** #define LL_RCC_UART4_CLKSOURCE           RCC_CFGR3_UART4SW /*!< UART4 Clock source selection */
 619:../../Drivers/STM32F3xx_HAL_Driver/Inc/stm32f3xx_ll_rcc.h **** #define LL_RCC_UART5_CLKSOURCE           RCC_CFGR3_UART5SW /*!< UART5 Clock source selection */
 620:../../Drivers/STM32F3xx_HAL_Driver/Inc/stm32f3xx_ll_rcc.h **** /**
 621:../../Drivers/STM32F3xx_HAL_Driver/Inc/stm32f3xx_ll_rcc.h ****   * @}
 622:../../Drivers/STM32F3xx_HAL_Driver/Inc/stm32f3xx_ll_rcc.h ****   */
 623:../../Drivers/STM32F3xx_HAL_Driver/Inc/stm32f3xx_ll_rcc.h **** 
 624:../../Drivers/STM32F3xx_HAL_Driver/Inc/stm32f3xx_ll_rcc.h **** #endif /* RCC_CFGR3_UART4SW || RCC_CFGR3_UART5SW */
 625:../../Drivers/STM32F3xx_HAL_Driver/Inc/stm32f3xx_ll_rcc.h **** 
 626:../../Drivers/STM32F3xx_HAL_Driver/Inc/stm32f3xx_ll_rcc.h **** /** @defgroup RCC_LL_EC_I2C Peripheral I2C get clock source
 627:../../Drivers/STM32F3xx_HAL_Driver/Inc/stm32f3xx_ll_rcc.h ****   * @{
 628:../../Drivers/STM32F3xx_HAL_Driver/Inc/stm32f3xx_ll_rcc.h ****   */
 629:../../Drivers/STM32F3xx_HAL_Driver/Inc/stm32f3xx_ll_rcc.h **** #define LL_RCC_I2C1_CLKSOURCE            RCC_CFGR3_I2C1SW /*!< I2C1 Clock source selection */
 630:../../Drivers/STM32F3xx_HAL_Driver/Inc/stm32f3xx_ll_rcc.h **** #if defined(RCC_CFGR3_I2C2SW)
 631:../../Drivers/STM32F3xx_HAL_Driver/Inc/stm32f3xx_ll_rcc.h **** #define LL_RCC_I2C2_CLKSOURCE            RCC_CFGR3_I2C2SW /*!< I2C2 Clock source selection */
 632:../../Drivers/STM32F3xx_HAL_Driver/Inc/stm32f3xx_ll_rcc.h **** #endif /*RCC_CFGR3_I2C2SW*/
 633:../../Drivers/STM32F3xx_HAL_Driver/Inc/stm32f3xx_ll_rcc.h **** #if defined(RCC_CFGR3_I2C3SW)
ARM GAS  /tmp/ccBBHnuc.s 			page 19


 634:../../Drivers/STM32F3xx_HAL_Driver/Inc/stm32f3xx_ll_rcc.h **** #define LL_RCC_I2C3_CLKSOURCE            RCC_CFGR3_I2C3SW /*!< I2C3 Clock source selection */
 635:../../Drivers/STM32F3xx_HAL_Driver/Inc/stm32f3xx_ll_rcc.h **** #endif /*RCC_CFGR3_I2C3SW*/
 636:../../Drivers/STM32F3xx_HAL_Driver/Inc/stm32f3xx_ll_rcc.h **** /**
 637:../../Drivers/STM32F3xx_HAL_Driver/Inc/stm32f3xx_ll_rcc.h ****   * @}
 638:../../Drivers/STM32F3xx_HAL_Driver/Inc/stm32f3xx_ll_rcc.h ****   */
 639:../../Drivers/STM32F3xx_HAL_Driver/Inc/stm32f3xx_ll_rcc.h **** 
 640:../../Drivers/STM32F3xx_HAL_Driver/Inc/stm32f3xx_ll_rcc.h **** #if defined(RCC_CFGR_I2SSRC)
 641:../../Drivers/STM32F3xx_HAL_Driver/Inc/stm32f3xx_ll_rcc.h **** /** @defgroup RCC_LL_EC_I2S Peripheral I2S get clock source
 642:../../Drivers/STM32F3xx_HAL_Driver/Inc/stm32f3xx_ll_rcc.h ****   * @{
 643:../../Drivers/STM32F3xx_HAL_Driver/Inc/stm32f3xx_ll_rcc.h ****   */
 644:../../Drivers/STM32F3xx_HAL_Driver/Inc/stm32f3xx_ll_rcc.h **** #define LL_RCC_I2S_CLKSOURCE             RCC_CFGR_I2SSRC       /*!< I2S Clock source selection */
 645:../../Drivers/STM32F3xx_HAL_Driver/Inc/stm32f3xx_ll_rcc.h **** /**
 646:../../Drivers/STM32F3xx_HAL_Driver/Inc/stm32f3xx_ll_rcc.h ****   * @}
 647:../../Drivers/STM32F3xx_HAL_Driver/Inc/stm32f3xx_ll_rcc.h ****   */
 648:../../Drivers/STM32F3xx_HAL_Driver/Inc/stm32f3xx_ll_rcc.h **** 
 649:../../Drivers/STM32F3xx_HAL_Driver/Inc/stm32f3xx_ll_rcc.h **** #endif /* RCC_CFGR_I2SSRC */
 650:../../Drivers/STM32F3xx_HAL_Driver/Inc/stm32f3xx_ll_rcc.h **** 
 651:../../Drivers/STM32F3xx_HAL_Driver/Inc/stm32f3xx_ll_rcc.h **** #if defined(RCC_CFGR3_TIMSW)
 652:../../Drivers/STM32F3xx_HAL_Driver/Inc/stm32f3xx_ll_rcc.h **** /** @defgroup RCC_LL_EC_TIM TIMx Peripheral TIM get clock source
 653:../../Drivers/STM32F3xx_HAL_Driver/Inc/stm32f3xx_ll_rcc.h ****   * @{
 654:../../Drivers/STM32F3xx_HAL_Driver/Inc/stm32f3xx_ll_rcc.h ****   */
 655:../../Drivers/STM32F3xx_HAL_Driver/Inc/stm32f3xx_ll_rcc.h **** #define LL_RCC_TIM1_CLKSOURCE            (RCC_POSITION_TIM1SW - RCC_POSITION_TIM1SW)  /*!< TIM1 Clo
 656:../../Drivers/STM32F3xx_HAL_Driver/Inc/stm32f3xx_ll_rcc.h **** #if defined(RCC_CFGR3_TIM2SW)
 657:../../Drivers/STM32F3xx_HAL_Driver/Inc/stm32f3xx_ll_rcc.h **** #define LL_RCC_TIM2_CLKSOURCE            (RCC_POSITION_TIM2SW - RCC_POSITION_TIM1SW)  /*!< TIM2 Clo
 658:../../Drivers/STM32F3xx_HAL_Driver/Inc/stm32f3xx_ll_rcc.h **** #endif /*RCC_CFGR3_TIM2SW*/
 659:../../Drivers/STM32F3xx_HAL_Driver/Inc/stm32f3xx_ll_rcc.h **** #if defined(RCC_CFGR3_TIM8SW)
 660:../../Drivers/STM32F3xx_HAL_Driver/Inc/stm32f3xx_ll_rcc.h **** #define LL_RCC_TIM8_CLKSOURCE            (RCC_POSITION_TIM8SW - RCC_POSITION_TIM1SW)  /*!< TIM8 Clo
 661:../../Drivers/STM32F3xx_HAL_Driver/Inc/stm32f3xx_ll_rcc.h **** #endif /*RCC_CFGR3_TIM8SW*/
 662:../../Drivers/STM32F3xx_HAL_Driver/Inc/stm32f3xx_ll_rcc.h **** #if defined(RCC_CFGR3_TIM15SW)
 663:../../Drivers/STM32F3xx_HAL_Driver/Inc/stm32f3xx_ll_rcc.h **** #define LL_RCC_TIM15_CLKSOURCE           (RCC_POSITION_TIM15SW - RCC_POSITION_TIM1SW) /*!< TIM15 Cl
 664:../../Drivers/STM32F3xx_HAL_Driver/Inc/stm32f3xx_ll_rcc.h **** #endif /*RCC_CFGR3_TIM15SW*/
 665:../../Drivers/STM32F3xx_HAL_Driver/Inc/stm32f3xx_ll_rcc.h **** #if defined(RCC_CFGR3_TIM16SW)
 666:../../Drivers/STM32F3xx_HAL_Driver/Inc/stm32f3xx_ll_rcc.h **** #define LL_RCC_TIM16_CLKSOURCE           (RCC_POSITION_TIM16SW - RCC_POSITION_TIM1SW) /*!< TIM16 Cl
 667:../../Drivers/STM32F3xx_HAL_Driver/Inc/stm32f3xx_ll_rcc.h **** #endif /*RCC_CFGR3_TIM16SW*/
 668:../../Drivers/STM32F3xx_HAL_Driver/Inc/stm32f3xx_ll_rcc.h **** #if defined(RCC_CFGR3_TIM17SW)
 669:../../Drivers/STM32F3xx_HAL_Driver/Inc/stm32f3xx_ll_rcc.h **** #define LL_RCC_TIM17_CLKSOURCE           (RCC_POSITION_TIM17SW - RCC_POSITION_TIM1SW) /*!< TIM17 Cl
 670:../../Drivers/STM32F3xx_HAL_Driver/Inc/stm32f3xx_ll_rcc.h **** #endif /*RCC_CFGR3_TIM17SW*/
 671:../../Drivers/STM32F3xx_HAL_Driver/Inc/stm32f3xx_ll_rcc.h **** #if defined(RCC_CFGR3_TIM20SW)
 672:../../Drivers/STM32F3xx_HAL_Driver/Inc/stm32f3xx_ll_rcc.h **** #define LL_RCC_TIM20_CLKSOURCE           (RCC_POSITION_TIM20SW - RCC_POSITION_TIM1SW) /*!< TIM20 Cl
 673:../../Drivers/STM32F3xx_HAL_Driver/Inc/stm32f3xx_ll_rcc.h **** #endif /*RCC_CFGR3_TIM20SW*/
 674:../../Drivers/STM32F3xx_HAL_Driver/Inc/stm32f3xx_ll_rcc.h **** #if defined(RCC_CFGR3_TIM34SW)
 675:../../Drivers/STM32F3xx_HAL_Driver/Inc/stm32f3xx_ll_rcc.h **** #define LL_RCC_TIM34_CLKSOURCE           (RCC_POSITION_TIM34SW - RCC_POSITION_TIM1SW) /*!< TIM3/4 C
 676:../../Drivers/STM32F3xx_HAL_Driver/Inc/stm32f3xx_ll_rcc.h **** #endif /*RCC_CFGR3_TIM34SW*/
 677:../../Drivers/STM32F3xx_HAL_Driver/Inc/stm32f3xx_ll_rcc.h **** /**
 678:../../Drivers/STM32F3xx_HAL_Driver/Inc/stm32f3xx_ll_rcc.h ****   * @}
 679:../../Drivers/STM32F3xx_HAL_Driver/Inc/stm32f3xx_ll_rcc.h ****   */
 680:../../Drivers/STM32F3xx_HAL_Driver/Inc/stm32f3xx_ll_rcc.h **** 
 681:../../Drivers/STM32F3xx_HAL_Driver/Inc/stm32f3xx_ll_rcc.h **** #endif /* RCC_CFGR3_TIMSW */
 682:../../Drivers/STM32F3xx_HAL_Driver/Inc/stm32f3xx_ll_rcc.h **** 
 683:../../Drivers/STM32F3xx_HAL_Driver/Inc/stm32f3xx_ll_rcc.h **** #if defined(HRTIM1)
 684:../../Drivers/STM32F3xx_HAL_Driver/Inc/stm32f3xx_ll_rcc.h **** /** @defgroup RCC_LL_EC_HRTIM1 Peripheral HRTIM1 get clock source
 685:../../Drivers/STM32F3xx_HAL_Driver/Inc/stm32f3xx_ll_rcc.h ****   * @{
 686:../../Drivers/STM32F3xx_HAL_Driver/Inc/stm32f3xx_ll_rcc.h ****   */
 687:../../Drivers/STM32F3xx_HAL_Driver/Inc/stm32f3xx_ll_rcc.h **** #define LL_RCC_HRTIM1_CLKSOURCE          RCC_CFGR3_HRTIM1SW /*!< HRTIM1 Clock source selection */
 688:../../Drivers/STM32F3xx_HAL_Driver/Inc/stm32f3xx_ll_rcc.h **** /**
 689:../../Drivers/STM32F3xx_HAL_Driver/Inc/stm32f3xx_ll_rcc.h ****   * @}
 690:../../Drivers/STM32F3xx_HAL_Driver/Inc/stm32f3xx_ll_rcc.h ****   */
ARM GAS  /tmp/ccBBHnuc.s 			page 20


 691:../../Drivers/STM32F3xx_HAL_Driver/Inc/stm32f3xx_ll_rcc.h **** 
 692:../../Drivers/STM32F3xx_HAL_Driver/Inc/stm32f3xx_ll_rcc.h **** #endif /* HRTIM1 */
 693:../../Drivers/STM32F3xx_HAL_Driver/Inc/stm32f3xx_ll_rcc.h **** 
 694:../../Drivers/STM32F3xx_HAL_Driver/Inc/stm32f3xx_ll_rcc.h **** #if defined(CEC)
 695:../../Drivers/STM32F3xx_HAL_Driver/Inc/stm32f3xx_ll_rcc.h **** /** @defgroup RCC_LL_EC_CEC Peripheral CEC get clock source
 696:../../Drivers/STM32F3xx_HAL_Driver/Inc/stm32f3xx_ll_rcc.h ****   * @{
 697:../../Drivers/STM32F3xx_HAL_Driver/Inc/stm32f3xx_ll_rcc.h ****   */
 698:../../Drivers/STM32F3xx_HAL_Driver/Inc/stm32f3xx_ll_rcc.h **** #define LL_RCC_CEC_CLKSOURCE             RCC_CFGR3_CECSW /*!< CEC Clock source selection */
 699:../../Drivers/STM32F3xx_HAL_Driver/Inc/stm32f3xx_ll_rcc.h **** /**
 700:../../Drivers/STM32F3xx_HAL_Driver/Inc/stm32f3xx_ll_rcc.h ****   * @}
 701:../../Drivers/STM32F3xx_HAL_Driver/Inc/stm32f3xx_ll_rcc.h ****   */
 702:../../Drivers/STM32F3xx_HAL_Driver/Inc/stm32f3xx_ll_rcc.h **** 
 703:../../Drivers/STM32F3xx_HAL_Driver/Inc/stm32f3xx_ll_rcc.h **** #endif /* CEC */
 704:../../Drivers/STM32F3xx_HAL_Driver/Inc/stm32f3xx_ll_rcc.h **** 
 705:../../Drivers/STM32F3xx_HAL_Driver/Inc/stm32f3xx_ll_rcc.h **** #if defined(USB)
 706:../../Drivers/STM32F3xx_HAL_Driver/Inc/stm32f3xx_ll_rcc.h **** /** @defgroup RCC_LL_EC_USB Peripheral USB get clock source
 707:../../Drivers/STM32F3xx_HAL_Driver/Inc/stm32f3xx_ll_rcc.h ****   * @{
 708:../../Drivers/STM32F3xx_HAL_Driver/Inc/stm32f3xx_ll_rcc.h ****   */
 709:../../Drivers/STM32F3xx_HAL_Driver/Inc/stm32f3xx_ll_rcc.h **** #define LL_RCC_USB_CLKSOURCE             RCC_CFGR_USBPRE /*!< USB Clock source selection */
 710:../../Drivers/STM32F3xx_HAL_Driver/Inc/stm32f3xx_ll_rcc.h **** /**
 711:../../Drivers/STM32F3xx_HAL_Driver/Inc/stm32f3xx_ll_rcc.h ****   * @}
 712:../../Drivers/STM32F3xx_HAL_Driver/Inc/stm32f3xx_ll_rcc.h ****   */
 713:../../Drivers/STM32F3xx_HAL_Driver/Inc/stm32f3xx_ll_rcc.h **** 
 714:../../Drivers/STM32F3xx_HAL_Driver/Inc/stm32f3xx_ll_rcc.h **** #endif /* USB */
 715:../../Drivers/STM32F3xx_HAL_Driver/Inc/stm32f3xx_ll_rcc.h **** 
 716:../../Drivers/STM32F3xx_HAL_Driver/Inc/stm32f3xx_ll_rcc.h **** #if defined(RCC_CFGR_ADCPRE)
 717:../../Drivers/STM32F3xx_HAL_Driver/Inc/stm32f3xx_ll_rcc.h **** /** @defgroup RCC_LL_EC_ADC Peripheral ADC get clock source
 718:../../Drivers/STM32F3xx_HAL_Driver/Inc/stm32f3xx_ll_rcc.h ****   * @{
 719:../../Drivers/STM32F3xx_HAL_Driver/Inc/stm32f3xx_ll_rcc.h ****   */
 720:../../Drivers/STM32F3xx_HAL_Driver/Inc/stm32f3xx_ll_rcc.h **** #define LL_RCC_ADC_CLKSOURCE             RCC_CFGR_ADCPRE /*!< ADC Clock source selection */
 721:../../Drivers/STM32F3xx_HAL_Driver/Inc/stm32f3xx_ll_rcc.h **** /**
 722:../../Drivers/STM32F3xx_HAL_Driver/Inc/stm32f3xx_ll_rcc.h ****   * @}
 723:../../Drivers/STM32F3xx_HAL_Driver/Inc/stm32f3xx_ll_rcc.h ****   */
 724:../../Drivers/STM32F3xx_HAL_Driver/Inc/stm32f3xx_ll_rcc.h **** 
 725:../../Drivers/STM32F3xx_HAL_Driver/Inc/stm32f3xx_ll_rcc.h **** #endif /* RCC_CFGR_ADCPRE */
 726:../../Drivers/STM32F3xx_HAL_Driver/Inc/stm32f3xx_ll_rcc.h **** 
 727:../../Drivers/STM32F3xx_HAL_Driver/Inc/stm32f3xx_ll_rcc.h **** #if defined(RCC_CFGR2_ADC1PRES) || defined(RCC_CFGR2_ADCPRE12) || defined(RCC_CFGR2_ADCPRE34)
 728:../../Drivers/STM32F3xx_HAL_Driver/Inc/stm32f3xx_ll_rcc.h **** /** @defgroup RCC_LL_EC_ADCXX Peripheral ADC get clock source
 729:../../Drivers/STM32F3xx_HAL_Driver/Inc/stm32f3xx_ll_rcc.h ****   * @{
 730:../../Drivers/STM32F3xx_HAL_Driver/Inc/stm32f3xx_ll_rcc.h ****   */
 731:../../Drivers/STM32F3xx_HAL_Driver/Inc/stm32f3xx_ll_rcc.h **** #if defined(RCC_CFGR2_ADC1PRES)
 732:../../Drivers/STM32F3xx_HAL_Driver/Inc/stm32f3xx_ll_rcc.h **** #define LL_RCC_ADC1_CLKSOURCE            RCC_CFGR2_ADC1PRES /*!< ADC1 Clock source selection */
 733:../../Drivers/STM32F3xx_HAL_Driver/Inc/stm32f3xx_ll_rcc.h **** #else
 734:../../Drivers/STM32F3xx_HAL_Driver/Inc/stm32f3xx_ll_rcc.h **** #define LL_RCC_ADC12_CLKSOURCE           RCC_CFGR2_ADCPRE12 /*!< ADC12 Clock source selection */
 735:../../Drivers/STM32F3xx_HAL_Driver/Inc/stm32f3xx_ll_rcc.h **** #if defined(RCC_CFGR2_ADCPRE34)
 736:../../Drivers/STM32F3xx_HAL_Driver/Inc/stm32f3xx_ll_rcc.h **** #define LL_RCC_ADC34_CLKSOURCE           RCC_CFGR2_ADCPRE34 /*!< ADC34 Clock source selection */
 737:../../Drivers/STM32F3xx_HAL_Driver/Inc/stm32f3xx_ll_rcc.h **** #endif /*RCC_CFGR2_ADCPRE34*/
 738:../../Drivers/STM32F3xx_HAL_Driver/Inc/stm32f3xx_ll_rcc.h **** #endif /*RCC_CFGR2_ADC1PRES*/
 739:../../Drivers/STM32F3xx_HAL_Driver/Inc/stm32f3xx_ll_rcc.h **** /**
 740:../../Drivers/STM32F3xx_HAL_Driver/Inc/stm32f3xx_ll_rcc.h ****   * @}
 741:../../Drivers/STM32F3xx_HAL_Driver/Inc/stm32f3xx_ll_rcc.h ****   */
 742:../../Drivers/STM32F3xx_HAL_Driver/Inc/stm32f3xx_ll_rcc.h **** 
 743:../../Drivers/STM32F3xx_HAL_Driver/Inc/stm32f3xx_ll_rcc.h **** #endif /* RCC_CFGR2_ADC1PRES || RCC_CFGR2_ADCPRE12 || RCC_CFGR2_ADCPRE34 */
 744:../../Drivers/STM32F3xx_HAL_Driver/Inc/stm32f3xx_ll_rcc.h **** 
 745:../../Drivers/STM32F3xx_HAL_Driver/Inc/stm32f3xx_ll_rcc.h **** #if defined(RCC_CFGR_SDPRE)
 746:../../Drivers/STM32F3xx_HAL_Driver/Inc/stm32f3xx_ll_rcc.h **** /** @defgroup RCC_LL_EC_SDADC Peripheral SDADC get clock source
 747:../../Drivers/STM32F3xx_HAL_Driver/Inc/stm32f3xx_ll_rcc.h ****   * @{
ARM GAS  /tmp/ccBBHnuc.s 			page 21


 748:../../Drivers/STM32F3xx_HAL_Driver/Inc/stm32f3xx_ll_rcc.h ****   */
 749:../../Drivers/STM32F3xx_HAL_Driver/Inc/stm32f3xx_ll_rcc.h **** #define LL_RCC_SDADC_CLKSOURCE           RCC_CFGR_SDPRE  /*!< SDADC Clock source selection */
 750:../../Drivers/STM32F3xx_HAL_Driver/Inc/stm32f3xx_ll_rcc.h **** /**
 751:../../Drivers/STM32F3xx_HAL_Driver/Inc/stm32f3xx_ll_rcc.h ****   * @}
 752:../../Drivers/STM32F3xx_HAL_Driver/Inc/stm32f3xx_ll_rcc.h ****   */
 753:../../Drivers/STM32F3xx_HAL_Driver/Inc/stm32f3xx_ll_rcc.h **** 
 754:../../Drivers/STM32F3xx_HAL_Driver/Inc/stm32f3xx_ll_rcc.h **** #endif /* RCC_CFGR_SDPRE */
 755:../../Drivers/STM32F3xx_HAL_Driver/Inc/stm32f3xx_ll_rcc.h **** 
 756:../../Drivers/STM32F3xx_HAL_Driver/Inc/stm32f3xx_ll_rcc.h **** 
 757:../../Drivers/STM32F3xx_HAL_Driver/Inc/stm32f3xx_ll_rcc.h **** /** @defgroup RCC_LL_EC_RTC_CLKSOURCE  RTC clock source selection
 758:../../Drivers/STM32F3xx_HAL_Driver/Inc/stm32f3xx_ll_rcc.h ****   * @{
 759:../../Drivers/STM32F3xx_HAL_Driver/Inc/stm32f3xx_ll_rcc.h ****   */
 760:../../Drivers/STM32F3xx_HAL_Driver/Inc/stm32f3xx_ll_rcc.h **** #define LL_RCC_RTC_CLKSOURCE_NONE          0x00000000U                   /*!< No clock used as RTC 
 761:../../Drivers/STM32F3xx_HAL_Driver/Inc/stm32f3xx_ll_rcc.h **** #define LL_RCC_RTC_CLKSOURCE_LSE           RCC_BDCR_RTCSEL_0       /*!< LSE oscillator clock used a
 762:../../Drivers/STM32F3xx_HAL_Driver/Inc/stm32f3xx_ll_rcc.h **** #define LL_RCC_RTC_CLKSOURCE_LSI           RCC_BDCR_RTCSEL_1       /*!< LSI oscillator clock used a
 763:../../Drivers/STM32F3xx_HAL_Driver/Inc/stm32f3xx_ll_rcc.h **** #define LL_RCC_RTC_CLKSOURCE_HSE_DIV32     RCC_BDCR_RTCSEL         /*!< HSE oscillator clock divide
 764:../../Drivers/STM32F3xx_HAL_Driver/Inc/stm32f3xx_ll_rcc.h **** /**
 765:../../Drivers/STM32F3xx_HAL_Driver/Inc/stm32f3xx_ll_rcc.h ****   * @}
 766:../../Drivers/STM32F3xx_HAL_Driver/Inc/stm32f3xx_ll_rcc.h ****   */
 767:../../Drivers/STM32F3xx_HAL_Driver/Inc/stm32f3xx_ll_rcc.h **** 
 768:../../Drivers/STM32F3xx_HAL_Driver/Inc/stm32f3xx_ll_rcc.h **** /** @defgroup RCC_LL_EC_PLL_MUL PLL Multiplicator factor
 769:../../Drivers/STM32F3xx_HAL_Driver/Inc/stm32f3xx_ll_rcc.h ****   * @{
 770:../../Drivers/STM32F3xx_HAL_Driver/Inc/stm32f3xx_ll_rcc.h ****   */
 771:../../Drivers/STM32F3xx_HAL_Driver/Inc/stm32f3xx_ll_rcc.h **** #define LL_RCC_PLL_MUL_2                   RCC_CFGR_PLLMUL2  /*!< PLL input clock*2 */
 772:../../Drivers/STM32F3xx_HAL_Driver/Inc/stm32f3xx_ll_rcc.h **** #define LL_RCC_PLL_MUL_3                   RCC_CFGR_PLLMUL3  /*!< PLL input clock*3 */
 773:../../Drivers/STM32F3xx_HAL_Driver/Inc/stm32f3xx_ll_rcc.h **** #define LL_RCC_PLL_MUL_4                   RCC_CFGR_PLLMUL4  /*!< PLL input clock*4 */
 774:../../Drivers/STM32F3xx_HAL_Driver/Inc/stm32f3xx_ll_rcc.h **** #define LL_RCC_PLL_MUL_5                   RCC_CFGR_PLLMUL5  /*!< PLL input clock*5 */
 775:../../Drivers/STM32F3xx_HAL_Driver/Inc/stm32f3xx_ll_rcc.h **** #define LL_RCC_PLL_MUL_6                   RCC_CFGR_PLLMUL6  /*!< PLL input clock*6 */
 776:../../Drivers/STM32F3xx_HAL_Driver/Inc/stm32f3xx_ll_rcc.h **** #define LL_RCC_PLL_MUL_7                   RCC_CFGR_PLLMUL7  /*!< PLL input clock*7 */
 777:../../Drivers/STM32F3xx_HAL_Driver/Inc/stm32f3xx_ll_rcc.h **** #define LL_RCC_PLL_MUL_8                   RCC_CFGR_PLLMUL8  /*!< PLL input clock*8 */
 778:../../Drivers/STM32F3xx_HAL_Driver/Inc/stm32f3xx_ll_rcc.h **** #define LL_RCC_PLL_MUL_9                   RCC_CFGR_PLLMUL9  /*!< PLL input clock*9 */
 779:../../Drivers/STM32F3xx_HAL_Driver/Inc/stm32f3xx_ll_rcc.h **** #define LL_RCC_PLL_MUL_10                  RCC_CFGR_PLLMUL10  /*!< PLL input clock*10 */
 780:../../Drivers/STM32F3xx_HAL_Driver/Inc/stm32f3xx_ll_rcc.h **** #define LL_RCC_PLL_MUL_11                  RCC_CFGR_PLLMUL11  /*!< PLL input clock*11 */
 781:../../Drivers/STM32F3xx_HAL_Driver/Inc/stm32f3xx_ll_rcc.h **** #define LL_RCC_PLL_MUL_12                  RCC_CFGR_PLLMUL12  /*!< PLL input clock*12 */
 782:../../Drivers/STM32F3xx_HAL_Driver/Inc/stm32f3xx_ll_rcc.h **** #define LL_RCC_PLL_MUL_13                  RCC_CFGR_PLLMUL13  /*!< PLL input clock*13 */
 783:../../Drivers/STM32F3xx_HAL_Driver/Inc/stm32f3xx_ll_rcc.h **** #define LL_RCC_PLL_MUL_14                  RCC_CFGR_PLLMUL14  /*!< PLL input clock*14 */
 784:../../Drivers/STM32F3xx_HAL_Driver/Inc/stm32f3xx_ll_rcc.h **** #define LL_RCC_PLL_MUL_15                  RCC_CFGR_PLLMUL15  /*!< PLL input clock*15 */
 785:../../Drivers/STM32F3xx_HAL_Driver/Inc/stm32f3xx_ll_rcc.h **** #define LL_RCC_PLL_MUL_16                  RCC_CFGR_PLLMUL16  /*!< PLL input clock*16 */
 786:../../Drivers/STM32F3xx_HAL_Driver/Inc/stm32f3xx_ll_rcc.h **** /**
 787:../../Drivers/STM32F3xx_HAL_Driver/Inc/stm32f3xx_ll_rcc.h ****   * @}
 788:../../Drivers/STM32F3xx_HAL_Driver/Inc/stm32f3xx_ll_rcc.h ****   */
 789:../../Drivers/STM32F3xx_HAL_Driver/Inc/stm32f3xx_ll_rcc.h **** 
 790:../../Drivers/STM32F3xx_HAL_Driver/Inc/stm32f3xx_ll_rcc.h **** /** @defgroup RCC_LL_EC_PLLSOURCE PLL SOURCE
 791:../../Drivers/STM32F3xx_HAL_Driver/Inc/stm32f3xx_ll_rcc.h ****   * @{
 792:../../Drivers/STM32F3xx_HAL_Driver/Inc/stm32f3xx_ll_rcc.h ****   */
 793:../../Drivers/STM32F3xx_HAL_Driver/Inc/stm32f3xx_ll_rcc.h **** #define LL_RCC_PLLSOURCE_HSE               RCC_CFGR_PLLSRC_HSE_PREDIV                    /*!< HSE/P
 794:../../Drivers/STM32F3xx_HAL_Driver/Inc/stm32f3xx_ll_rcc.h **** #if defined(RCC_PLLSRC_PREDIV1_SUPPORT)
 795:../../Drivers/STM32F3xx_HAL_Driver/Inc/stm32f3xx_ll_rcc.h **** #define LL_RCC_PLLSOURCE_HSI               RCC_CFGR_PLLSRC_HSI_PREDIV                    /*!< HSI/P
 796:../../Drivers/STM32F3xx_HAL_Driver/Inc/stm32f3xx_ll_rcc.h **** #else
 797:../../Drivers/STM32F3xx_HAL_Driver/Inc/stm32f3xx_ll_rcc.h **** #define LL_RCC_PLLSOURCE_HSI_DIV_2         RCC_CFGR_PLLSRC_HSI_DIV2                      /*!< HSI c
 798:../../Drivers/STM32F3xx_HAL_Driver/Inc/stm32f3xx_ll_rcc.h **** #define LL_RCC_PLLSOURCE_HSE_DIV_1         (RCC_CFGR_PLLSRC_HSE_PREDIV | RCC_CFGR2_PREDIV_DIV1)    
 799:../../Drivers/STM32F3xx_HAL_Driver/Inc/stm32f3xx_ll_rcc.h **** #define LL_RCC_PLLSOURCE_HSE_DIV_2         (RCC_CFGR_PLLSRC_HSE_PREDIV | RCC_CFGR2_PREDIV_DIV2)    
 800:../../Drivers/STM32F3xx_HAL_Driver/Inc/stm32f3xx_ll_rcc.h **** #define LL_RCC_PLLSOURCE_HSE_DIV_3         (RCC_CFGR_PLLSRC_HSE_PREDIV | RCC_CFGR2_PREDIV_DIV3)    
 801:../../Drivers/STM32F3xx_HAL_Driver/Inc/stm32f3xx_ll_rcc.h **** #define LL_RCC_PLLSOURCE_HSE_DIV_4         (RCC_CFGR_PLLSRC_HSE_PREDIV | RCC_CFGR2_PREDIV_DIV4)    
 802:../../Drivers/STM32F3xx_HAL_Driver/Inc/stm32f3xx_ll_rcc.h **** #define LL_RCC_PLLSOURCE_HSE_DIV_5         (RCC_CFGR_PLLSRC_HSE_PREDIV | RCC_CFGR2_PREDIV_DIV5)    
 803:../../Drivers/STM32F3xx_HAL_Driver/Inc/stm32f3xx_ll_rcc.h **** #define LL_RCC_PLLSOURCE_HSE_DIV_6         (RCC_CFGR_PLLSRC_HSE_PREDIV | RCC_CFGR2_PREDIV_DIV6)    
 804:../../Drivers/STM32F3xx_HAL_Driver/Inc/stm32f3xx_ll_rcc.h **** #define LL_RCC_PLLSOURCE_HSE_DIV_7         (RCC_CFGR_PLLSRC_HSE_PREDIV | RCC_CFGR2_PREDIV_DIV7)    
ARM GAS  /tmp/ccBBHnuc.s 			page 22


 805:../../Drivers/STM32F3xx_HAL_Driver/Inc/stm32f3xx_ll_rcc.h **** #define LL_RCC_PLLSOURCE_HSE_DIV_8         (RCC_CFGR_PLLSRC_HSE_PREDIV | RCC_CFGR2_PREDIV_DIV8)    
 806:../../Drivers/STM32F3xx_HAL_Driver/Inc/stm32f3xx_ll_rcc.h **** #define LL_RCC_PLLSOURCE_HSE_DIV_9         (RCC_CFGR_PLLSRC_HSE_PREDIV | RCC_CFGR2_PREDIV_DIV9)    
 807:../../Drivers/STM32F3xx_HAL_Driver/Inc/stm32f3xx_ll_rcc.h **** #define LL_RCC_PLLSOURCE_HSE_DIV_10        (RCC_CFGR_PLLSRC_HSE_PREDIV | RCC_CFGR2_PREDIV_DIV10)   
 808:../../Drivers/STM32F3xx_HAL_Driver/Inc/stm32f3xx_ll_rcc.h **** #define LL_RCC_PLLSOURCE_HSE_DIV_11        (RCC_CFGR_PLLSRC_HSE_PREDIV | RCC_CFGR2_PREDIV_DIV11)   
 809:../../Drivers/STM32F3xx_HAL_Driver/Inc/stm32f3xx_ll_rcc.h **** #define LL_RCC_PLLSOURCE_HSE_DIV_12        (RCC_CFGR_PLLSRC_HSE_PREDIV | RCC_CFGR2_PREDIV_DIV12)   
 810:../../Drivers/STM32F3xx_HAL_Driver/Inc/stm32f3xx_ll_rcc.h **** #define LL_RCC_PLLSOURCE_HSE_DIV_13        (RCC_CFGR_PLLSRC_HSE_PREDIV | RCC_CFGR2_PREDIV_DIV13)   
 811:../../Drivers/STM32F3xx_HAL_Driver/Inc/stm32f3xx_ll_rcc.h **** #define LL_RCC_PLLSOURCE_HSE_DIV_14        (RCC_CFGR_PLLSRC_HSE_PREDIV | RCC_CFGR2_PREDIV_DIV14)   
 812:../../Drivers/STM32F3xx_HAL_Driver/Inc/stm32f3xx_ll_rcc.h **** #define LL_RCC_PLLSOURCE_HSE_DIV_15        (RCC_CFGR_PLLSRC_HSE_PREDIV | RCC_CFGR2_PREDIV_DIV15)   
 813:../../Drivers/STM32F3xx_HAL_Driver/Inc/stm32f3xx_ll_rcc.h **** #define LL_RCC_PLLSOURCE_HSE_DIV_16        (RCC_CFGR_PLLSRC_HSE_PREDIV | RCC_CFGR2_PREDIV_DIV16)   
 814:../../Drivers/STM32F3xx_HAL_Driver/Inc/stm32f3xx_ll_rcc.h **** #endif /* RCC_PLLSRC_PREDIV1_SUPPORT */
 815:../../Drivers/STM32F3xx_HAL_Driver/Inc/stm32f3xx_ll_rcc.h **** /**
 816:../../Drivers/STM32F3xx_HAL_Driver/Inc/stm32f3xx_ll_rcc.h ****   * @}
 817:../../Drivers/STM32F3xx_HAL_Driver/Inc/stm32f3xx_ll_rcc.h ****   */
 818:../../Drivers/STM32F3xx_HAL_Driver/Inc/stm32f3xx_ll_rcc.h **** 
 819:../../Drivers/STM32F3xx_HAL_Driver/Inc/stm32f3xx_ll_rcc.h **** /** @defgroup RCC_LL_EC_PREDIV_DIV PREDIV Division factor
 820:../../Drivers/STM32F3xx_HAL_Driver/Inc/stm32f3xx_ll_rcc.h ****   * @{
 821:../../Drivers/STM32F3xx_HAL_Driver/Inc/stm32f3xx_ll_rcc.h ****   */
 822:../../Drivers/STM32F3xx_HAL_Driver/Inc/stm32f3xx_ll_rcc.h **** #define LL_RCC_PREDIV_DIV_1                RCC_CFGR2_PREDIV_DIV1   /*!< PREDIV input clock not divi
 823:../../Drivers/STM32F3xx_HAL_Driver/Inc/stm32f3xx_ll_rcc.h **** #define LL_RCC_PREDIV_DIV_2                RCC_CFGR2_PREDIV_DIV2   /*!< PREDIV input clock divided 
 824:../../Drivers/STM32F3xx_HAL_Driver/Inc/stm32f3xx_ll_rcc.h **** #define LL_RCC_PREDIV_DIV_3                RCC_CFGR2_PREDIV_DIV3   /*!< PREDIV input clock divided 
 825:../../Drivers/STM32F3xx_HAL_Driver/Inc/stm32f3xx_ll_rcc.h **** #define LL_RCC_PREDIV_DIV_4                RCC_CFGR2_PREDIV_DIV4   /*!< PREDIV input clock divided 
 826:../../Drivers/STM32F3xx_HAL_Driver/Inc/stm32f3xx_ll_rcc.h **** #define LL_RCC_PREDIV_DIV_5                RCC_CFGR2_PREDIV_DIV5   /*!< PREDIV input clock divided 
 827:../../Drivers/STM32F3xx_HAL_Driver/Inc/stm32f3xx_ll_rcc.h **** #define LL_RCC_PREDIV_DIV_6                RCC_CFGR2_PREDIV_DIV6   /*!< PREDIV input clock divided 
 828:../../Drivers/STM32F3xx_HAL_Driver/Inc/stm32f3xx_ll_rcc.h **** #define LL_RCC_PREDIV_DIV_7                RCC_CFGR2_PREDIV_DIV7   /*!< PREDIV input clock divided 
 829:../../Drivers/STM32F3xx_HAL_Driver/Inc/stm32f3xx_ll_rcc.h **** #define LL_RCC_PREDIV_DIV_8                RCC_CFGR2_PREDIV_DIV8   /*!< PREDIV input clock divided 
 830:../../Drivers/STM32F3xx_HAL_Driver/Inc/stm32f3xx_ll_rcc.h **** #define LL_RCC_PREDIV_DIV_9                RCC_CFGR2_PREDIV_DIV9   /*!< PREDIV input clock divided 
 831:../../Drivers/STM32F3xx_HAL_Driver/Inc/stm32f3xx_ll_rcc.h **** #define LL_RCC_PREDIV_DIV_10               RCC_CFGR2_PREDIV_DIV10  /*!< PREDIV input clock divided 
 832:../../Drivers/STM32F3xx_HAL_Driver/Inc/stm32f3xx_ll_rcc.h **** #define LL_RCC_PREDIV_DIV_11               RCC_CFGR2_PREDIV_DIV11  /*!< PREDIV input clock divided 
 833:../../Drivers/STM32F3xx_HAL_Driver/Inc/stm32f3xx_ll_rcc.h **** #define LL_RCC_PREDIV_DIV_12               RCC_CFGR2_PREDIV_DIV12  /*!< PREDIV input clock divided 
 834:../../Drivers/STM32F3xx_HAL_Driver/Inc/stm32f3xx_ll_rcc.h **** #define LL_RCC_PREDIV_DIV_13               RCC_CFGR2_PREDIV_DIV13  /*!< PREDIV input clock divided 
 835:../../Drivers/STM32F3xx_HAL_Driver/Inc/stm32f3xx_ll_rcc.h **** #define LL_RCC_PREDIV_DIV_14               RCC_CFGR2_PREDIV_DIV14  /*!< PREDIV input clock divided 
 836:../../Drivers/STM32F3xx_HAL_Driver/Inc/stm32f3xx_ll_rcc.h **** #define LL_RCC_PREDIV_DIV_15               RCC_CFGR2_PREDIV_DIV15  /*!< PREDIV input clock divided 
 837:../../Drivers/STM32F3xx_HAL_Driver/Inc/stm32f3xx_ll_rcc.h **** #define LL_RCC_PREDIV_DIV_16               RCC_CFGR2_PREDIV_DIV16  /*!< PREDIV input clock divided 
 838:../../Drivers/STM32F3xx_HAL_Driver/Inc/stm32f3xx_ll_rcc.h **** /**
 839:../../Drivers/STM32F3xx_HAL_Driver/Inc/stm32f3xx_ll_rcc.h ****   * @}
 840:../../Drivers/STM32F3xx_HAL_Driver/Inc/stm32f3xx_ll_rcc.h ****   */
 841:../../Drivers/STM32F3xx_HAL_Driver/Inc/stm32f3xx_ll_rcc.h **** 
 842:../../Drivers/STM32F3xx_HAL_Driver/Inc/stm32f3xx_ll_rcc.h **** /**
 843:../../Drivers/STM32F3xx_HAL_Driver/Inc/stm32f3xx_ll_rcc.h ****   * @}
 844:../../Drivers/STM32F3xx_HAL_Driver/Inc/stm32f3xx_ll_rcc.h ****   */
 845:../../Drivers/STM32F3xx_HAL_Driver/Inc/stm32f3xx_ll_rcc.h **** 
 846:../../Drivers/STM32F3xx_HAL_Driver/Inc/stm32f3xx_ll_rcc.h **** /* Exported macro ------------------------------------------------------------*/
 847:../../Drivers/STM32F3xx_HAL_Driver/Inc/stm32f3xx_ll_rcc.h **** /** @defgroup RCC_LL_Exported_Macros RCC Exported Macros
 848:../../Drivers/STM32F3xx_HAL_Driver/Inc/stm32f3xx_ll_rcc.h ****   * @{
 849:../../Drivers/STM32F3xx_HAL_Driver/Inc/stm32f3xx_ll_rcc.h ****   */
 850:../../Drivers/STM32F3xx_HAL_Driver/Inc/stm32f3xx_ll_rcc.h **** 
 851:../../Drivers/STM32F3xx_HAL_Driver/Inc/stm32f3xx_ll_rcc.h **** /** @defgroup RCC_LL_EM_WRITE_READ Common Write and read registers Macros
 852:../../Drivers/STM32F3xx_HAL_Driver/Inc/stm32f3xx_ll_rcc.h ****   * @{
 853:../../Drivers/STM32F3xx_HAL_Driver/Inc/stm32f3xx_ll_rcc.h ****   */
 854:../../Drivers/STM32F3xx_HAL_Driver/Inc/stm32f3xx_ll_rcc.h **** 
 855:../../Drivers/STM32F3xx_HAL_Driver/Inc/stm32f3xx_ll_rcc.h **** /**
 856:../../Drivers/STM32F3xx_HAL_Driver/Inc/stm32f3xx_ll_rcc.h ****   * @brief  Write a value in RCC register
 857:../../Drivers/STM32F3xx_HAL_Driver/Inc/stm32f3xx_ll_rcc.h ****   * @param  __REG__ Register to be written
 858:../../Drivers/STM32F3xx_HAL_Driver/Inc/stm32f3xx_ll_rcc.h ****   * @param  __VALUE__ Value to be written in the register
 859:../../Drivers/STM32F3xx_HAL_Driver/Inc/stm32f3xx_ll_rcc.h ****   * @retval None
 860:../../Drivers/STM32F3xx_HAL_Driver/Inc/stm32f3xx_ll_rcc.h ****   */
 861:../../Drivers/STM32F3xx_HAL_Driver/Inc/stm32f3xx_ll_rcc.h **** #define LL_RCC_WriteReg(__REG__, __VALUE__) WRITE_REG(RCC->__REG__, (__VALUE__))
ARM GAS  /tmp/ccBBHnuc.s 			page 23


 862:../../Drivers/STM32F3xx_HAL_Driver/Inc/stm32f3xx_ll_rcc.h **** 
 863:../../Drivers/STM32F3xx_HAL_Driver/Inc/stm32f3xx_ll_rcc.h **** /**
 864:../../Drivers/STM32F3xx_HAL_Driver/Inc/stm32f3xx_ll_rcc.h ****   * @brief  Read a value in RCC register
 865:../../Drivers/STM32F3xx_HAL_Driver/Inc/stm32f3xx_ll_rcc.h ****   * @param  __REG__ Register to be read
 866:../../Drivers/STM32F3xx_HAL_Driver/Inc/stm32f3xx_ll_rcc.h ****   * @retval Register value
 867:../../Drivers/STM32F3xx_HAL_Driver/Inc/stm32f3xx_ll_rcc.h ****   */
 868:../../Drivers/STM32F3xx_HAL_Driver/Inc/stm32f3xx_ll_rcc.h **** #define LL_RCC_ReadReg(__REG__) READ_REG(RCC->__REG__)
 869:../../Drivers/STM32F3xx_HAL_Driver/Inc/stm32f3xx_ll_rcc.h **** /**
 870:../../Drivers/STM32F3xx_HAL_Driver/Inc/stm32f3xx_ll_rcc.h ****   * @}
 871:../../Drivers/STM32F3xx_HAL_Driver/Inc/stm32f3xx_ll_rcc.h ****   */
 872:../../Drivers/STM32F3xx_HAL_Driver/Inc/stm32f3xx_ll_rcc.h **** 
 873:../../Drivers/STM32F3xx_HAL_Driver/Inc/stm32f3xx_ll_rcc.h **** /** @defgroup RCC_LL_EM_CALC_FREQ Calculate frequencies
 874:../../Drivers/STM32F3xx_HAL_Driver/Inc/stm32f3xx_ll_rcc.h ****   * @{
 875:../../Drivers/STM32F3xx_HAL_Driver/Inc/stm32f3xx_ll_rcc.h ****   */
 876:../../Drivers/STM32F3xx_HAL_Driver/Inc/stm32f3xx_ll_rcc.h **** 
 877:../../Drivers/STM32F3xx_HAL_Driver/Inc/stm32f3xx_ll_rcc.h **** #if defined(RCC_PLLSRC_PREDIV1_SUPPORT)
 878:../../Drivers/STM32F3xx_HAL_Driver/Inc/stm32f3xx_ll_rcc.h **** /**
 879:../../Drivers/STM32F3xx_HAL_Driver/Inc/stm32f3xx_ll_rcc.h ****   * @brief  Helper macro to calculate the PLLCLK frequency
 880:../../Drivers/STM32F3xx_HAL_Driver/Inc/stm32f3xx_ll_rcc.h ****   * @note ex: @ref __LL_RCC_CALC_PLLCLK_FREQ (HSE_VALUE, @ref LL_RCC_PLL_GetMultiplicator()
 881:../../Drivers/STM32F3xx_HAL_Driver/Inc/stm32f3xx_ll_rcc.h ****   *             , @ref LL_RCC_PLL_GetPrediv());
 882:../../Drivers/STM32F3xx_HAL_Driver/Inc/stm32f3xx_ll_rcc.h ****   * @param  __INPUTFREQ__ PLL Input frequency (based on HSE/HSI)
 883:../../Drivers/STM32F3xx_HAL_Driver/Inc/stm32f3xx_ll_rcc.h ****   * @param  __PLLMUL__ This parameter can be one of the following values:
 884:../../Drivers/STM32F3xx_HAL_Driver/Inc/stm32f3xx_ll_rcc.h ****   *         @arg @ref LL_RCC_PLL_MUL_2
 885:../../Drivers/STM32F3xx_HAL_Driver/Inc/stm32f3xx_ll_rcc.h ****   *         @arg @ref LL_RCC_PLL_MUL_3
 886:../../Drivers/STM32F3xx_HAL_Driver/Inc/stm32f3xx_ll_rcc.h ****   *         @arg @ref LL_RCC_PLL_MUL_4
 887:../../Drivers/STM32F3xx_HAL_Driver/Inc/stm32f3xx_ll_rcc.h ****   *         @arg @ref LL_RCC_PLL_MUL_5
 888:../../Drivers/STM32F3xx_HAL_Driver/Inc/stm32f3xx_ll_rcc.h ****   *         @arg @ref LL_RCC_PLL_MUL_6
 889:../../Drivers/STM32F3xx_HAL_Driver/Inc/stm32f3xx_ll_rcc.h ****   *         @arg @ref LL_RCC_PLL_MUL_7
 890:../../Drivers/STM32F3xx_HAL_Driver/Inc/stm32f3xx_ll_rcc.h ****   *         @arg @ref LL_RCC_PLL_MUL_8
 891:../../Drivers/STM32F3xx_HAL_Driver/Inc/stm32f3xx_ll_rcc.h ****   *         @arg @ref LL_RCC_PLL_MUL_9
 892:../../Drivers/STM32F3xx_HAL_Driver/Inc/stm32f3xx_ll_rcc.h ****   *         @arg @ref LL_RCC_PLL_MUL_10
 893:../../Drivers/STM32F3xx_HAL_Driver/Inc/stm32f3xx_ll_rcc.h ****   *         @arg @ref LL_RCC_PLL_MUL_11
 894:../../Drivers/STM32F3xx_HAL_Driver/Inc/stm32f3xx_ll_rcc.h ****   *         @arg @ref LL_RCC_PLL_MUL_12
 895:../../Drivers/STM32F3xx_HAL_Driver/Inc/stm32f3xx_ll_rcc.h ****   *         @arg @ref LL_RCC_PLL_MUL_13
 896:../../Drivers/STM32F3xx_HAL_Driver/Inc/stm32f3xx_ll_rcc.h ****   *         @arg @ref LL_RCC_PLL_MUL_14
 897:../../Drivers/STM32F3xx_HAL_Driver/Inc/stm32f3xx_ll_rcc.h ****   *         @arg @ref LL_RCC_PLL_MUL_15
 898:../../Drivers/STM32F3xx_HAL_Driver/Inc/stm32f3xx_ll_rcc.h ****   *         @arg @ref LL_RCC_PLL_MUL_16
 899:../../Drivers/STM32F3xx_HAL_Driver/Inc/stm32f3xx_ll_rcc.h ****   * @param  __PLLPREDIV__ This parameter can be one of the following values:
 900:../../Drivers/STM32F3xx_HAL_Driver/Inc/stm32f3xx_ll_rcc.h ****   *         @arg @ref LL_RCC_PREDIV_DIV_1
 901:../../Drivers/STM32F3xx_HAL_Driver/Inc/stm32f3xx_ll_rcc.h ****   *         @arg @ref LL_RCC_PREDIV_DIV_2
 902:../../Drivers/STM32F3xx_HAL_Driver/Inc/stm32f3xx_ll_rcc.h ****   *         @arg @ref LL_RCC_PREDIV_DIV_3
 903:../../Drivers/STM32F3xx_HAL_Driver/Inc/stm32f3xx_ll_rcc.h ****   *         @arg @ref LL_RCC_PREDIV_DIV_4
 904:../../Drivers/STM32F3xx_HAL_Driver/Inc/stm32f3xx_ll_rcc.h ****   *         @arg @ref LL_RCC_PREDIV_DIV_5
 905:../../Drivers/STM32F3xx_HAL_Driver/Inc/stm32f3xx_ll_rcc.h ****   *         @arg @ref LL_RCC_PREDIV_DIV_6
 906:../../Drivers/STM32F3xx_HAL_Driver/Inc/stm32f3xx_ll_rcc.h ****   *         @arg @ref LL_RCC_PREDIV_DIV_7
 907:../../Drivers/STM32F3xx_HAL_Driver/Inc/stm32f3xx_ll_rcc.h ****   *         @arg @ref LL_RCC_PREDIV_DIV_8
 908:../../Drivers/STM32F3xx_HAL_Driver/Inc/stm32f3xx_ll_rcc.h ****   *         @arg @ref LL_RCC_PREDIV_DIV_9
 909:../../Drivers/STM32F3xx_HAL_Driver/Inc/stm32f3xx_ll_rcc.h ****   *         @arg @ref LL_RCC_PREDIV_DIV_10
 910:../../Drivers/STM32F3xx_HAL_Driver/Inc/stm32f3xx_ll_rcc.h ****   *         @arg @ref LL_RCC_PREDIV_DIV_11
 911:../../Drivers/STM32F3xx_HAL_Driver/Inc/stm32f3xx_ll_rcc.h ****   *         @arg @ref LL_RCC_PREDIV_DIV_12
 912:../../Drivers/STM32F3xx_HAL_Driver/Inc/stm32f3xx_ll_rcc.h ****   *         @arg @ref LL_RCC_PREDIV_DIV_13
 913:../../Drivers/STM32F3xx_HAL_Driver/Inc/stm32f3xx_ll_rcc.h ****   *         @arg @ref LL_RCC_PREDIV_DIV_14
 914:../../Drivers/STM32F3xx_HAL_Driver/Inc/stm32f3xx_ll_rcc.h ****   *         @arg @ref LL_RCC_PREDIV_DIV_15
 915:../../Drivers/STM32F3xx_HAL_Driver/Inc/stm32f3xx_ll_rcc.h ****   *         @arg @ref LL_RCC_PREDIV_DIV_16
 916:../../Drivers/STM32F3xx_HAL_Driver/Inc/stm32f3xx_ll_rcc.h ****   * @retval PLL clock frequency (in Hz)
 917:../../Drivers/STM32F3xx_HAL_Driver/Inc/stm32f3xx_ll_rcc.h ****   */
 918:../../Drivers/STM32F3xx_HAL_Driver/Inc/stm32f3xx_ll_rcc.h **** #define __LL_RCC_CALC_PLLCLK_FREQ(__INPUTFREQ__, __PLLMUL__, __PLLPREDIV__) \
ARM GAS  /tmp/ccBBHnuc.s 			page 24


 919:../../Drivers/STM32F3xx_HAL_Driver/Inc/stm32f3xx_ll_rcc.h ****           (((__INPUTFREQ__) / ((((__PLLPREDIV__) & RCC_CFGR2_PREDIV) + 1U))) * ((((__PLLMUL__) & RC
 920:../../Drivers/STM32F3xx_HAL_Driver/Inc/stm32f3xx_ll_rcc.h **** 
 921:../../Drivers/STM32F3xx_HAL_Driver/Inc/stm32f3xx_ll_rcc.h **** #else
 922:../../Drivers/STM32F3xx_HAL_Driver/Inc/stm32f3xx_ll_rcc.h **** /**
 923:../../Drivers/STM32F3xx_HAL_Driver/Inc/stm32f3xx_ll_rcc.h ****   * @brief  Helper macro to calculate the PLLCLK frequency
 924:../../Drivers/STM32F3xx_HAL_Driver/Inc/stm32f3xx_ll_rcc.h ****   * @note ex: @ref __LL_RCC_CALC_PLLCLK_FREQ (HSE_VALUE / (@ref LL_RCC_PLL_GetPrediv () + 1), @ref 
 925:../../Drivers/STM32F3xx_HAL_Driver/Inc/stm32f3xx_ll_rcc.h ****   * @param  __INPUTFREQ__ PLL Input frequency (based on HSE div Prediv / HSI div 2)
 926:../../Drivers/STM32F3xx_HAL_Driver/Inc/stm32f3xx_ll_rcc.h ****   * @param  __PLLMUL__ This parameter can be one of the following values:
 927:../../Drivers/STM32F3xx_HAL_Driver/Inc/stm32f3xx_ll_rcc.h ****   *         @arg @ref LL_RCC_PLL_MUL_2
 928:../../Drivers/STM32F3xx_HAL_Driver/Inc/stm32f3xx_ll_rcc.h ****   *         @arg @ref LL_RCC_PLL_MUL_3
 929:../../Drivers/STM32F3xx_HAL_Driver/Inc/stm32f3xx_ll_rcc.h ****   *         @arg @ref LL_RCC_PLL_MUL_4
 930:../../Drivers/STM32F3xx_HAL_Driver/Inc/stm32f3xx_ll_rcc.h ****   *         @arg @ref LL_RCC_PLL_MUL_5
 931:../../Drivers/STM32F3xx_HAL_Driver/Inc/stm32f3xx_ll_rcc.h ****   *         @arg @ref LL_RCC_PLL_MUL_6
 932:../../Drivers/STM32F3xx_HAL_Driver/Inc/stm32f3xx_ll_rcc.h ****   *         @arg @ref LL_RCC_PLL_MUL_7
 933:../../Drivers/STM32F3xx_HAL_Driver/Inc/stm32f3xx_ll_rcc.h ****   *         @arg @ref LL_RCC_PLL_MUL_8
 934:../../Drivers/STM32F3xx_HAL_Driver/Inc/stm32f3xx_ll_rcc.h ****   *         @arg @ref LL_RCC_PLL_MUL_9
 935:../../Drivers/STM32F3xx_HAL_Driver/Inc/stm32f3xx_ll_rcc.h ****   *         @arg @ref LL_RCC_PLL_MUL_10
 936:../../Drivers/STM32F3xx_HAL_Driver/Inc/stm32f3xx_ll_rcc.h ****   *         @arg @ref LL_RCC_PLL_MUL_11
 937:../../Drivers/STM32F3xx_HAL_Driver/Inc/stm32f3xx_ll_rcc.h ****   *         @arg @ref LL_RCC_PLL_MUL_12
 938:../../Drivers/STM32F3xx_HAL_Driver/Inc/stm32f3xx_ll_rcc.h ****   *         @arg @ref LL_RCC_PLL_MUL_13
 939:../../Drivers/STM32F3xx_HAL_Driver/Inc/stm32f3xx_ll_rcc.h ****   *         @arg @ref LL_RCC_PLL_MUL_14
 940:../../Drivers/STM32F3xx_HAL_Driver/Inc/stm32f3xx_ll_rcc.h ****   *         @arg @ref LL_RCC_PLL_MUL_15
 941:../../Drivers/STM32F3xx_HAL_Driver/Inc/stm32f3xx_ll_rcc.h ****   *         @arg @ref LL_RCC_PLL_MUL_16
 942:../../Drivers/STM32F3xx_HAL_Driver/Inc/stm32f3xx_ll_rcc.h ****   * @retval PLL clock frequency (in Hz)
 943:../../Drivers/STM32F3xx_HAL_Driver/Inc/stm32f3xx_ll_rcc.h ****   */
 944:../../Drivers/STM32F3xx_HAL_Driver/Inc/stm32f3xx_ll_rcc.h **** #define __LL_RCC_CALC_PLLCLK_FREQ(__INPUTFREQ__, __PLLMUL__) \
 945:../../Drivers/STM32F3xx_HAL_Driver/Inc/stm32f3xx_ll_rcc.h ****           ((__INPUTFREQ__) * ((((__PLLMUL__) & RCC_CFGR_PLLMUL) >> RCC_POSITION_PLLMUL) + 2U))
 946:../../Drivers/STM32F3xx_HAL_Driver/Inc/stm32f3xx_ll_rcc.h **** #endif /* RCC_PLLSRC_PREDIV1_SUPPORT */
 947:../../Drivers/STM32F3xx_HAL_Driver/Inc/stm32f3xx_ll_rcc.h **** /**
 948:../../Drivers/STM32F3xx_HAL_Driver/Inc/stm32f3xx_ll_rcc.h ****   * @brief  Helper macro to calculate the HCLK frequency
 949:../../Drivers/STM32F3xx_HAL_Driver/Inc/stm32f3xx_ll_rcc.h ****   * @note: __AHBPRESCALER__ be retrieved by @ref LL_RCC_GetAHBPrescaler
 950:../../Drivers/STM32F3xx_HAL_Driver/Inc/stm32f3xx_ll_rcc.h ****   *        ex: __LL_RCC_CALC_HCLK_FREQ(LL_RCC_GetAHBPrescaler())
 951:../../Drivers/STM32F3xx_HAL_Driver/Inc/stm32f3xx_ll_rcc.h ****   * @param  __SYSCLKFREQ__ SYSCLK frequency (based on HSE/HSI/PLLCLK)
 952:../../Drivers/STM32F3xx_HAL_Driver/Inc/stm32f3xx_ll_rcc.h ****   * @param  __AHBPRESCALER__ This parameter can be one of the following values:
 953:../../Drivers/STM32F3xx_HAL_Driver/Inc/stm32f3xx_ll_rcc.h ****   *         @arg @ref LL_RCC_SYSCLK_DIV_1
 954:../../Drivers/STM32F3xx_HAL_Driver/Inc/stm32f3xx_ll_rcc.h ****   *         @arg @ref LL_RCC_SYSCLK_DIV_2
 955:../../Drivers/STM32F3xx_HAL_Driver/Inc/stm32f3xx_ll_rcc.h ****   *         @arg @ref LL_RCC_SYSCLK_DIV_4
 956:../../Drivers/STM32F3xx_HAL_Driver/Inc/stm32f3xx_ll_rcc.h ****   *         @arg @ref LL_RCC_SYSCLK_DIV_8
 957:../../Drivers/STM32F3xx_HAL_Driver/Inc/stm32f3xx_ll_rcc.h ****   *         @arg @ref LL_RCC_SYSCLK_DIV_16
 958:../../Drivers/STM32F3xx_HAL_Driver/Inc/stm32f3xx_ll_rcc.h ****   *         @arg @ref LL_RCC_SYSCLK_DIV_64
 959:../../Drivers/STM32F3xx_HAL_Driver/Inc/stm32f3xx_ll_rcc.h ****   *         @arg @ref LL_RCC_SYSCLK_DIV_128
 960:../../Drivers/STM32F3xx_HAL_Driver/Inc/stm32f3xx_ll_rcc.h ****   *         @arg @ref LL_RCC_SYSCLK_DIV_256
 961:../../Drivers/STM32F3xx_HAL_Driver/Inc/stm32f3xx_ll_rcc.h ****   *         @arg @ref LL_RCC_SYSCLK_DIV_512
 962:../../Drivers/STM32F3xx_HAL_Driver/Inc/stm32f3xx_ll_rcc.h ****   * @retval HCLK clock frequency (in Hz)
 963:../../Drivers/STM32F3xx_HAL_Driver/Inc/stm32f3xx_ll_rcc.h ****   */
 964:../../Drivers/STM32F3xx_HAL_Driver/Inc/stm32f3xx_ll_rcc.h **** #define __LL_RCC_CALC_HCLK_FREQ(__SYSCLKFREQ__, __AHBPRESCALER__) ((__SYSCLKFREQ__) >> AHBPrescTabl
 965:../../Drivers/STM32F3xx_HAL_Driver/Inc/stm32f3xx_ll_rcc.h **** 
 966:../../Drivers/STM32F3xx_HAL_Driver/Inc/stm32f3xx_ll_rcc.h **** /**
 967:../../Drivers/STM32F3xx_HAL_Driver/Inc/stm32f3xx_ll_rcc.h ****   * @brief  Helper macro to calculate the PCLK1 frequency (ABP1)
 968:../../Drivers/STM32F3xx_HAL_Driver/Inc/stm32f3xx_ll_rcc.h ****   * @note: __APB1PRESCALER__ be retrieved by @ref LL_RCC_GetAPB1Prescaler
 969:../../Drivers/STM32F3xx_HAL_Driver/Inc/stm32f3xx_ll_rcc.h ****   *        ex: __LL_RCC_CALC_PCLK1_FREQ(LL_RCC_GetAPB1Prescaler())
 970:../../Drivers/STM32F3xx_HAL_Driver/Inc/stm32f3xx_ll_rcc.h ****   * @param  __HCLKFREQ__ HCLK frequency
 971:../../Drivers/STM32F3xx_HAL_Driver/Inc/stm32f3xx_ll_rcc.h ****   * @param  __APB1PRESCALER__: This parameter can be one of the following values:
 972:../../Drivers/STM32F3xx_HAL_Driver/Inc/stm32f3xx_ll_rcc.h ****   *         @arg @ref LL_RCC_APB1_DIV_1
 973:../../Drivers/STM32F3xx_HAL_Driver/Inc/stm32f3xx_ll_rcc.h ****   *         @arg @ref LL_RCC_APB1_DIV_2
 974:../../Drivers/STM32F3xx_HAL_Driver/Inc/stm32f3xx_ll_rcc.h ****   *         @arg @ref LL_RCC_APB1_DIV_4
 975:../../Drivers/STM32F3xx_HAL_Driver/Inc/stm32f3xx_ll_rcc.h ****   *         @arg @ref LL_RCC_APB1_DIV_8
ARM GAS  /tmp/ccBBHnuc.s 			page 25


 976:../../Drivers/STM32F3xx_HAL_Driver/Inc/stm32f3xx_ll_rcc.h ****   *         @arg @ref LL_RCC_APB1_DIV_16
 977:../../Drivers/STM32F3xx_HAL_Driver/Inc/stm32f3xx_ll_rcc.h ****   * @retval PCLK1 clock frequency (in Hz)
 978:../../Drivers/STM32F3xx_HAL_Driver/Inc/stm32f3xx_ll_rcc.h ****   */
 979:../../Drivers/STM32F3xx_HAL_Driver/Inc/stm32f3xx_ll_rcc.h **** #define __LL_RCC_CALC_PCLK1_FREQ(__HCLKFREQ__, __APB1PRESCALER__) ((__HCLKFREQ__) >> APBPrescTable[
 980:../../Drivers/STM32F3xx_HAL_Driver/Inc/stm32f3xx_ll_rcc.h **** 
 981:../../Drivers/STM32F3xx_HAL_Driver/Inc/stm32f3xx_ll_rcc.h **** /**
 982:../../Drivers/STM32F3xx_HAL_Driver/Inc/stm32f3xx_ll_rcc.h ****   * @brief  Helper macro to calculate the PCLK2 frequency (ABP2)
 983:../../Drivers/STM32F3xx_HAL_Driver/Inc/stm32f3xx_ll_rcc.h ****   * @note: __APB2PRESCALER__ be retrieved by @ref LL_RCC_GetAPB2Prescaler
 984:../../Drivers/STM32F3xx_HAL_Driver/Inc/stm32f3xx_ll_rcc.h ****   *        ex: __LL_RCC_CALC_PCLK2_FREQ(LL_RCC_GetAPB2Prescaler())
 985:../../Drivers/STM32F3xx_HAL_Driver/Inc/stm32f3xx_ll_rcc.h ****   * @param  __HCLKFREQ__ HCLK frequency
 986:../../Drivers/STM32F3xx_HAL_Driver/Inc/stm32f3xx_ll_rcc.h ****   * @param  __APB2PRESCALER__: This parameter can be one of the following values:
 987:../../Drivers/STM32F3xx_HAL_Driver/Inc/stm32f3xx_ll_rcc.h ****   *         @arg @ref LL_RCC_APB2_DIV_1
 988:../../Drivers/STM32F3xx_HAL_Driver/Inc/stm32f3xx_ll_rcc.h ****   *         @arg @ref LL_RCC_APB2_DIV_2
 989:../../Drivers/STM32F3xx_HAL_Driver/Inc/stm32f3xx_ll_rcc.h ****   *         @arg @ref LL_RCC_APB2_DIV_4
 990:../../Drivers/STM32F3xx_HAL_Driver/Inc/stm32f3xx_ll_rcc.h ****   *         @arg @ref LL_RCC_APB2_DIV_8
 991:../../Drivers/STM32F3xx_HAL_Driver/Inc/stm32f3xx_ll_rcc.h ****   *         @arg @ref LL_RCC_APB2_DIV_16
 992:../../Drivers/STM32F3xx_HAL_Driver/Inc/stm32f3xx_ll_rcc.h ****   * @retval PCLK2 clock frequency (in Hz)
 993:../../Drivers/STM32F3xx_HAL_Driver/Inc/stm32f3xx_ll_rcc.h ****   */
 994:../../Drivers/STM32F3xx_HAL_Driver/Inc/stm32f3xx_ll_rcc.h **** #define __LL_RCC_CALC_PCLK2_FREQ(__HCLKFREQ__, __APB2PRESCALER__) ((__HCLKFREQ__) >> APBPrescTable[
 995:../../Drivers/STM32F3xx_HAL_Driver/Inc/stm32f3xx_ll_rcc.h **** 
 996:../../Drivers/STM32F3xx_HAL_Driver/Inc/stm32f3xx_ll_rcc.h **** /**
 997:../../Drivers/STM32F3xx_HAL_Driver/Inc/stm32f3xx_ll_rcc.h ****   * @}
 998:../../Drivers/STM32F3xx_HAL_Driver/Inc/stm32f3xx_ll_rcc.h ****   */
 999:../../Drivers/STM32F3xx_HAL_Driver/Inc/stm32f3xx_ll_rcc.h **** 
1000:../../Drivers/STM32F3xx_HAL_Driver/Inc/stm32f3xx_ll_rcc.h **** /**
1001:../../Drivers/STM32F3xx_HAL_Driver/Inc/stm32f3xx_ll_rcc.h ****   * @}
1002:../../Drivers/STM32F3xx_HAL_Driver/Inc/stm32f3xx_ll_rcc.h ****   */
1003:../../Drivers/STM32F3xx_HAL_Driver/Inc/stm32f3xx_ll_rcc.h **** 
1004:../../Drivers/STM32F3xx_HAL_Driver/Inc/stm32f3xx_ll_rcc.h **** /* Exported functions --------------------------------------------------------*/
1005:../../Drivers/STM32F3xx_HAL_Driver/Inc/stm32f3xx_ll_rcc.h **** /** @defgroup RCC_LL_Exported_Functions RCC Exported Functions
1006:../../Drivers/STM32F3xx_HAL_Driver/Inc/stm32f3xx_ll_rcc.h ****   * @{
1007:../../Drivers/STM32F3xx_HAL_Driver/Inc/stm32f3xx_ll_rcc.h ****   */
1008:../../Drivers/STM32F3xx_HAL_Driver/Inc/stm32f3xx_ll_rcc.h **** 
1009:../../Drivers/STM32F3xx_HAL_Driver/Inc/stm32f3xx_ll_rcc.h **** /** @defgroup RCC_LL_EF_HSE HSE
1010:../../Drivers/STM32F3xx_HAL_Driver/Inc/stm32f3xx_ll_rcc.h ****   * @{
1011:../../Drivers/STM32F3xx_HAL_Driver/Inc/stm32f3xx_ll_rcc.h ****   */
1012:../../Drivers/STM32F3xx_HAL_Driver/Inc/stm32f3xx_ll_rcc.h **** 
1013:../../Drivers/STM32F3xx_HAL_Driver/Inc/stm32f3xx_ll_rcc.h **** /**
1014:../../Drivers/STM32F3xx_HAL_Driver/Inc/stm32f3xx_ll_rcc.h ****   * @brief  Enable the Clock Security System.
1015:../../Drivers/STM32F3xx_HAL_Driver/Inc/stm32f3xx_ll_rcc.h ****   * @rmtoll CR           CSSON         LL_RCC_HSE_EnableCSS
1016:../../Drivers/STM32F3xx_HAL_Driver/Inc/stm32f3xx_ll_rcc.h ****   * @retval None
1017:../../Drivers/STM32F3xx_HAL_Driver/Inc/stm32f3xx_ll_rcc.h ****   */
1018:../../Drivers/STM32F3xx_HAL_Driver/Inc/stm32f3xx_ll_rcc.h **** __STATIC_INLINE void LL_RCC_HSE_EnableCSS(void)
1019:../../Drivers/STM32F3xx_HAL_Driver/Inc/stm32f3xx_ll_rcc.h **** {
1020:../../Drivers/STM32F3xx_HAL_Driver/Inc/stm32f3xx_ll_rcc.h ****   SET_BIT(RCC->CR, RCC_CR_CSSON);
1021:../../Drivers/STM32F3xx_HAL_Driver/Inc/stm32f3xx_ll_rcc.h **** }
1022:../../Drivers/STM32F3xx_HAL_Driver/Inc/stm32f3xx_ll_rcc.h **** 
1023:../../Drivers/STM32F3xx_HAL_Driver/Inc/stm32f3xx_ll_rcc.h **** /**
1024:../../Drivers/STM32F3xx_HAL_Driver/Inc/stm32f3xx_ll_rcc.h ****   * @brief  Disable the Clock Security System.
1025:../../Drivers/STM32F3xx_HAL_Driver/Inc/stm32f3xx_ll_rcc.h ****   * @note Cannot be disabled in HSE is ready (only by hardware)
1026:../../Drivers/STM32F3xx_HAL_Driver/Inc/stm32f3xx_ll_rcc.h ****   * @rmtoll CR           CSSON         LL_RCC_HSE_DisableCSS
1027:../../Drivers/STM32F3xx_HAL_Driver/Inc/stm32f3xx_ll_rcc.h ****   * @retval None
1028:../../Drivers/STM32F3xx_HAL_Driver/Inc/stm32f3xx_ll_rcc.h ****   */
1029:../../Drivers/STM32F3xx_HAL_Driver/Inc/stm32f3xx_ll_rcc.h **** __STATIC_INLINE void LL_RCC_HSE_DisableCSS(void)
1030:../../Drivers/STM32F3xx_HAL_Driver/Inc/stm32f3xx_ll_rcc.h **** {
1031:../../Drivers/STM32F3xx_HAL_Driver/Inc/stm32f3xx_ll_rcc.h ****   CLEAR_BIT(RCC->CR, RCC_CR_CSSON);
1032:../../Drivers/STM32F3xx_HAL_Driver/Inc/stm32f3xx_ll_rcc.h **** }
ARM GAS  /tmp/ccBBHnuc.s 			page 26


1033:../../Drivers/STM32F3xx_HAL_Driver/Inc/stm32f3xx_ll_rcc.h **** 
1034:../../Drivers/STM32F3xx_HAL_Driver/Inc/stm32f3xx_ll_rcc.h **** /**
1035:../../Drivers/STM32F3xx_HAL_Driver/Inc/stm32f3xx_ll_rcc.h ****   * @brief  Enable HSE external oscillator (HSE Bypass)
1036:../../Drivers/STM32F3xx_HAL_Driver/Inc/stm32f3xx_ll_rcc.h ****   * @rmtoll CR           HSEBYP        LL_RCC_HSE_EnableBypass
1037:../../Drivers/STM32F3xx_HAL_Driver/Inc/stm32f3xx_ll_rcc.h ****   * @retval None
1038:../../Drivers/STM32F3xx_HAL_Driver/Inc/stm32f3xx_ll_rcc.h ****   */
1039:../../Drivers/STM32F3xx_HAL_Driver/Inc/stm32f3xx_ll_rcc.h **** __STATIC_INLINE void LL_RCC_HSE_EnableBypass(void)
1040:../../Drivers/STM32F3xx_HAL_Driver/Inc/stm32f3xx_ll_rcc.h **** {
1041:../../Drivers/STM32F3xx_HAL_Driver/Inc/stm32f3xx_ll_rcc.h ****   SET_BIT(RCC->CR, RCC_CR_HSEBYP);
1042:../../Drivers/STM32F3xx_HAL_Driver/Inc/stm32f3xx_ll_rcc.h **** }
1043:../../Drivers/STM32F3xx_HAL_Driver/Inc/stm32f3xx_ll_rcc.h **** 
1044:../../Drivers/STM32F3xx_HAL_Driver/Inc/stm32f3xx_ll_rcc.h **** /**
1045:../../Drivers/STM32F3xx_HAL_Driver/Inc/stm32f3xx_ll_rcc.h ****   * @brief  Disable HSE external oscillator (HSE Bypass)
1046:../../Drivers/STM32F3xx_HAL_Driver/Inc/stm32f3xx_ll_rcc.h ****   * @rmtoll CR           HSEBYP        LL_RCC_HSE_DisableBypass
1047:../../Drivers/STM32F3xx_HAL_Driver/Inc/stm32f3xx_ll_rcc.h ****   * @retval None
1048:../../Drivers/STM32F3xx_HAL_Driver/Inc/stm32f3xx_ll_rcc.h ****   */
1049:../../Drivers/STM32F3xx_HAL_Driver/Inc/stm32f3xx_ll_rcc.h **** __STATIC_INLINE void LL_RCC_HSE_DisableBypass(void)
1050:../../Drivers/STM32F3xx_HAL_Driver/Inc/stm32f3xx_ll_rcc.h **** {
1051:../../Drivers/STM32F3xx_HAL_Driver/Inc/stm32f3xx_ll_rcc.h ****   CLEAR_BIT(RCC->CR, RCC_CR_HSEBYP);
1052:../../Drivers/STM32F3xx_HAL_Driver/Inc/stm32f3xx_ll_rcc.h **** }
1053:../../Drivers/STM32F3xx_HAL_Driver/Inc/stm32f3xx_ll_rcc.h **** 
1054:../../Drivers/STM32F3xx_HAL_Driver/Inc/stm32f3xx_ll_rcc.h **** /**
1055:../../Drivers/STM32F3xx_HAL_Driver/Inc/stm32f3xx_ll_rcc.h ****   * @brief  Enable HSE crystal oscillator (HSE ON)
1056:../../Drivers/STM32F3xx_HAL_Driver/Inc/stm32f3xx_ll_rcc.h ****   * @rmtoll CR           HSEON         LL_RCC_HSE_Enable
1057:../../Drivers/STM32F3xx_HAL_Driver/Inc/stm32f3xx_ll_rcc.h ****   * @retval None
1058:../../Drivers/STM32F3xx_HAL_Driver/Inc/stm32f3xx_ll_rcc.h ****   */
1059:../../Drivers/STM32F3xx_HAL_Driver/Inc/stm32f3xx_ll_rcc.h **** __STATIC_INLINE void LL_RCC_HSE_Enable(void)
1060:../../Drivers/STM32F3xx_HAL_Driver/Inc/stm32f3xx_ll_rcc.h **** {
1061:../../Drivers/STM32F3xx_HAL_Driver/Inc/stm32f3xx_ll_rcc.h ****   SET_BIT(RCC->CR, RCC_CR_HSEON);
1062:../../Drivers/STM32F3xx_HAL_Driver/Inc/stm32f3xx_ll_rcc.h **** }
1063:../../Drivers/STM32F3xx_HAL_Driver/Inc/stm32f3xx_ll_rcc.h **** 
1064:../../Drivers/STM32F3xx_HAL_Driver/Inc/stm32f3xx_ll_rcc.h **** /**
1065:../../Drivers/STM32F3xx_HAL_Driver/Inc/stm32f3xx_ll_rcc.h ****   * @brief  Disable HSE crystal oscillator (HSE ON)
1066:../../Drivers/STM32F3xx_HAL_Driver/Inc/stm32f3xx_ll_rcc.h ****   * @rmtoll CR           HSEON         LL_RCC_HSE_Disable
1067:../../Drivers/STM32F3xx_HAL_Driver/Inc/stm32f3xx_ll_rcc.h ****   * @retval None
1068:../../Drivers/STM32F3xx_HAL_Driver/Inc/stm32f3xx_ll_rcc.h ****   */
1069:../../Drivers/STM32F3xx_HAL_Driver/Inc/stm32f3xx_ll_rcc.h **** __STATIC_INLINE void LL_RCC_HSE_Disable(void)
1070:../../Drivers/STM32F3xx_HAL_Driver/Inc/stm32f3xx_ll_rcc.h **** {
1071:../../Drivers/STM32F3xx_HAL_Driver/Inc/stm32f3xx_ll_rcc.h ****   CLEAR_BIT(RCC->CR, RCC_CR_HSEON);
1072:../../Drivers/STM32F3xx_HAL_Driver/Inc/stm32f3xx_ll_rcc.h **** }
1073:../../Drivers/STM32F3xx_HAL_Driver/Inc/stm32f3xx_ll_rcc.h **** 
1074:../../Drivers/STM32F3xx_HAL_Driver/Inc/stm32f3xx_ll_rcc.h **** /**
1075:../../Drivers/STM32F3xx_HAL_Driver/Inc/stm32f3xx_ll_rcc.h ****   * @brief  Check if HSE oscillator Ready
1076:../../Drivers/STM32F3xx_HAL_Driver/Inc/stm32f3xx_ll_rcc.h ****   * @rmtoll CR           HSERDY        LL_RCC_HSE_IsReady
1077:../../Drivers/STM32F3xx_HAL_Driver/Inc/stm32f3xx_ll_rcc.h ****   * @retval State of bit (1 or 0).
1078:../../Drivers/STM32F3xx_HAL_Driver/Inc/stm32f3xx_ll_rcc.h ****   */
1079:../../Drivers/STM32F3xx_HAL_Driver/Inc/stm32f3xx_ll_rcc.h **** __STATIC_INLINE uint32_t LL_RCC_HSE_IsReady(void)
1080:../../Drivers/STM32F3xx_HAL_Driver/Inc/stm32f3xx_ll_rcc.h **** {
1081:../../Drivers/STM32F3xx_HAL_Driver/Inc/stm32f3xx_ll_rcc.h ****   return (READ_BIT(RCC->CR, RCC_CR_HSERDY) == (RCC_CR_HSERDY));
1082:../../Drivers/STM32F3xx_HAL_Driver/Inc/stm32f3xx_ll_rcc.h **** }
1083:../../Drivers/STM32F3xx_HAL_Driver/Inc/stm32f3xx_ll_rcc.h **** 
1084:../../Drivers/STM32F3xx_HAL_Driver/Inc/stm32f3xx_ll_rcc.h **** /**
1085:../../Drivers/STM32F3xx_HAL_Driver/Inc/stm32f3xx_ll_rcc.h ****   * @}
1086:../../Drivers/STM32F3xx_HAL_Driver/Inc/stm32f3xx_ll_rcc.h ****   */
1087:../../Drivers/STM32F3xx_HAL_Driver/Inc/stm32f3xx_ll_rcc.h **** 
1088:../../Drivers/STM32F3xx_HAL_Driver/Inc/stm32f3xx_ll_rcc.h **** /** @defgroup RCC_LL_EF_HSI HSI
1089:../../Drivers/STM32F3xx_HAL_Driver/Inc/stm32f3xx_ll_rcc.h ****   * @{
ARM GAS  /tmp/ccBBHnuc.s 			page 27


1090:../../Drivers/STM32F3xx_HAL_Driver/Inc/stm32f3xx_ll_rcc.h ****   */
1091:../../Drivers/STM32F3xx_HAL_Driver/Inc/stm32f3xx_ll_rcc.h **** 
1092:../../Drivers/STM32F3xx_HAL_Driver/Inc/stm32f3xx_ll_rcc.h **** /**
1093:../../Drivers/STM32F3xx_HAL_Driver/Inc/stm32f3xx_ll_rcc.h ****   * @brief  Enable HSI oscillator
1094:../../Drivers/STM32F3xx_HAL_Driver/Inc/stm32f3xx_ll_rcc.h ****   * @rmtoll CR           HSION         LL_RCC_HSI_Enable
1095:../../Drivers/STM32F3xx_HAL_Driver/Inc/stm32f3xx_ll_rcc.h ****   * @retval None
1096:../../Drivers/STM32F3xx_HAL_Driver/Inc/stm32f3xx_ll_rcc.h ****   */
1097:../../Drivers/STM32F3xx_HAL_Driver/Inc/stm32f3xx_ll_rcc.h **** __STATIC_INLINE void LL_RCC_HSI_Enable(void)
1098:../../Drivers/STM32F3xx_HAL_Driver/Inc/stm32f3xx_ll_rcc.h **** {
1099:../../Drivers/STM32F3xx_HAL_Driver/Inc/stm32f3xx_ll_rcc.h ****   SET_BIT(RCC->CR, RCC_CR_HSION);
1100:../../Drivers/STM32F3xx_HAL_Driver/Inc/stm32f3xx_ll_rcc.h **** }
1101:../../Drivers/STM32F3xx_HAL_Driver/Inc/stm32f3xx_ll_rcc.h **** 
1102:../../Drivers/STM32F3xx_HAL_Driver/Inc/stm32f3xx_ll_rcc.h **** /**
1103:../../Drivers/STM32F3xx_HAL_Driver/Inc/stm32f3xx_ll_rcc.h ****   * @brief  Disable HSI oscillator
1104:../../Drivers/STM32F3xx_HAL_Driver/Inc/stm32f3xx_ll_rcc.h ****   * @rmtoll CR           HSION         LL_RCC_HSI_Disable
1105:../../Drivers/STM32F3xx_HAL_Driver/Inc/stm32f3xx_ll_rcc.h ****   * @retval None
1106:../../Drivers/STM32F3xx_HAL_Driver/Inc/stm32f3xx_ll_rcc.h ****   */
1107:../../Drivers/STM32F3xx_HAL_Driver/Inc/stm32f3xx_ll_rcc.h **** __STATIC_INLINE void LL_RCC_HSI_Disable(void)
1108:../../Drivers/STM32F3xx_HAL_Driver/Inc/stm32f3xx_ll_rcc.h **** {
1109:../../Drivers/STM32F3xx_HAL_Driver/Inc/stm32f3xx_ll_rcc.h ****   CLEAR_BIT(RCC->CR, RCC_CR_HSION);
1110:../../Drivers/STM32F3xx_HAL_Driver/Inc/stm32f3xx_ll_rcc.h **** }
1111:../../Drivers/STM32F3xx_HAL_Driver/Inc/stm32f3xx_ll_rcc.h **** 
1112:../../Drivers/STM32F3xx_HAL_Driver/Inc/stm32f3xx_ll_rcc.h **** /**
1113:../../Drivers/STM32F3xx_HAL_Driver/Inc/stm32f3xx_ll_rcc.h ****   * @brief  Check if HSI clock is ready
1114:../../Drivers/STM32F3xx_HAL_Driver/Inc/stm32f3xx_ll_rcc.h ****   * @rmtoll CR           HSIRDY        LL_RCC_HSI_IsReady
1115:../../Drivers/STM32F3xx_HAL_Driver/Inc/stm32f3xx_ll_rcc.h ****   * @retval State of bit (1 or 0).
1116:../../Drivers/STM32F3xx_HAL_Driver/Inc/stm32f3xx_ll_rcc.h ****   */
1117:../../Drivers/STM32F3xx_HAL_Driver/Inc/stm32f3xx_ll_rcc.h **** __STATIC_INLINE uint32_t LL_RCC_HSI_IsReady(void)
1118:../../Drivers/STM32F3xx_HAL_Driver/Inc/stm32f3xx_ll_rcc.h **** {
1119:../../Drivers/STM32F3xx_HAL_Driver/Inc/stm32f3xx_ll_rcc.h ****   return (READ_BIT(RCC->CR, RCC_CR_HSIRDY) == (RCC_CR_HSIRDY));
1120:../../Drivers/STM32F3xx_HAL_Driver/Inc/stm32f3xx_ll_rcc.h **** }
1121:../../Drivers/STM32F3xx_HAL_Driver/Inc/stm32f3xx_ll_rcc.h **** 
1122:../../Drivers/STM32F3xx_HAL_Driver/Inc/stm32f3xx_ll_rcc.h **** /**
1123:../../Drivers/STM32F3xx_HAL_Driver/Inc/stm32f3xx_ll_rcc.h ****   * @brief  Get HSI Calibration value
1124:../../Drivers/STM32F3xx_HAL_Driver/Inc/stm32f3xx_ll_rcc.h ****   * @note When HSITRIM is written, HSICAL is updated with the sum of
1125:../../Drivers/STM32F3xx_HAL_Driver/Inc/stm32f3xx_ll_rcc.h ****   *       HSITRIM and the factory trim value
1126:../../Drivers/STM32F3xx_HAL_Driver/Inc/stm32f3xx_ll_rcc.h ****   * @rmtoll CR        HSICAL        LL_RCC_HSI_GetCalibration
1127:../../Drivers/STM32F3xx_HAL_Driver/Inc/stm32f3xx_ll_rcc.h ****   * @retval Between Min_Data = 0x00 and Max_Data = 0xFF
1128:../../Drivers/STM32F3xx_HAL_Driver/Inc/stm32f3xx_ll_rcc.h ****   */
1129:../../Drivers/STM32F3xx_HAL_Driver/Inc/stm32f3xx_ll_rcc.h **** __STATIC_INLINE uint32_t LL_RCC_HSI_GetCalibration(void)
1130:../../Drivers/STM32F3xx_HAL_Driver/Inc/stm32f3xx_ll_rcc.h **** {
1131:../../Drivers/STM32F3xx_HAL_Driver/Inc/stm32f3xx_ll_rcc.h ****   return (uint32_t)(READ_BIT(RCC->CR, RCC_CR_HSICAL) >> RCC_CR_HSICAL_Pos);
1132:../../Drivers/STM32F3xx_HAL_Driver/Inc/stm32f3xx_ll_rcc.h **** }
1133:../../Drivers/STM32F3xx_HAL_Driver/Inc/stm32f3xx_ll_rcc.h **** 
1134:../../Drivers/STM32F3xx_HAL_Driver/Inc/stm32f3xx_ll_rcc.h **** /**
1135:../../Drivers/STM32F3xx_HAL_Driver/Inc/stm32f3xx_ll_rcc.h ****   * @brief  Set HSI Calibration trimming
1136:../../Drivers/STM32F3xx_HAL_Driver/Inc/stm32f3xx_ll_rcc.h ****   * @note user-programmable trimming value that is added to the HSICAL
1137:../../Drivers/STM32F3xx_HAL_Driver/Inc/stm32f3xx_ll_rcc.h ****   * @note Default value is 16, which, when added to the HSICAL value,
1138:../../Drivers/STM32F3xx_HAL_Driver/Inc/stm32f3xx_ll_rcc.h ****   *       should trim the HSI to 16 MHz +/- 1 %
1139:../../Drivers/STM32F3xx_HAL_Driver/Inc/stm32f3xx_ll_rcc.h ****   * @rmtoll CR        HSITRIM       LL_RCC_HSI_SetCalibTrimming
1140:../../Drivers/STM32F3xx_HAL_Driver/Inc/stm32f3xx_ll_rcc.h ****   * @param  Value between Min_Data = 0x00 and Max_Data = 0x1F
1141:../../Drivers/STM32F3xx_HAL_Driver/Inc/stm32f3xx_ll_rcc.h ****   * @retval None
1142:../../Drivers/STM32F3xx_HAL_Driver/Inc/stm32f3xx_ll_rcc.h ****   */
1143:../../Drivers/STM32F3xx_HAL_Driver/Inc/stm32f3xx_ll_rcc.h **** __STATIC_INLINE void LL_RCC_HSI_SetCalibTrimming(uint32_t Value)
1144:../../Drivers/STM32F3xx_HAL_Driver/Inc/stm32f3xx_ll_rcc.h **** {
1145:../../Drivers/STM32F3xx_HAL_Driver/Inc/stm32f3xx_ll_rcc.h ****   MODIFY_REG(RCC->CR, RCC_CR_HSITRIM, Value << RCC_CR_HSITRIM_Pos);
1146:../../Drivers/STM32F3xx_HAL_Driver/Inc/stm32f3xx_ll_rcc.h **** }
ARM GAS  /tmp/ccBBHnuc.s 			page 28


1147:../../Drivers/STM32F3xx_HAL_Driver/Inc/stm32f3xx_ll_rcc.h **** 
1148:../../Drivers/STM32F3xx_HAL_Driver/Inc/stm32f3xx_ll_rcc.h **** /**
1149:../../Drivers/STM32F3xx_HAL_Driver/Inc/stm32f3xx_ll_rcc.h ****   * @brief  Get HSI Calibration trimming
1150:../../Drivers/STM32F3xx_HAL_Driver/Inc/stm32f3xx_ll_rcc.h ****   * @rmtoll CR        HSITRIM       LL_RCC_HSI_GetCalibTrimming
1151:../../Drivers/STM32F3xx_HAL_Driver/Inc/stm32f3xx_ll_rcc.h ****   * @retval Between Min_Data = 0x00 and Max_Data = 0x1F
1152:../../Drivers/STM32F3xx_HAL_Driver/Inc/stm32f3xx_ll_rcc.h ****   */
1153:../../Drivers/STM32F3xx_HAL_Driver/Inc/stm32f3xx_ll_rcc.h **** __STATIC_INLINE uint32_t LL_RCC_HSI_GetCalibTrimming(void)
1154:../../Drivers/STM32F3xx_HAL_Driver/Inc/stm32f3xx_ll_rcc.h **** {
1155:../../Drivers/STM32F3xx_HAL_Driver/Inc/stm32f3xx_ll_rcc.h ****   return (uint32_t)(READ_BIT(RCC->CR, RCC_CR_HSITRIM) >> RCC_CR_HSITRIM_Pos);
1156:../../Drivers/STM32F3xx_HAL_Driver/Inc/stm32f3xx_ll_rcc.h **** }
1157:../../Drivers/STM32F3xx_HAL_Driver/Inc/stm32f3xx_ll_rcc.h **** 
1158:../../Drivers/STM32F3xx_HAL_Driver/Inc/stm32f3xx_ll_rcc.h **** /**
1159:../../Drivers/STM32F3xx_HAL_Driver/Inc/stm32f3xx_ll_rcc.h ****   * @}
1160:../../Drivers/STM32F3xx_HAL_Driver/Inc/stm32f3xx_ll_rcc.h ****   */
1161:../../Drivers/STM32F3xx_HAL_Driver/Inc/stm32f3xx_ll_rcc.h **** 
1162:../../Drivers/STM32F3xx_HAL_Driver/Inc/stm32f3xx_ll_rcc.h **** /** @defgroup RCC_LL_EF_LSE LSE
1163:../../Drivers/STM32F3xx_HAL_Driver/Inc/stm32f3xx_ll_rcc.h ****   * @{
1164:../../Drivers/STM32F3xx_HAL_Driver/Inc/stm32f3xx_ll_rcc.h ****   */
1165:../../Drivers/STM32F3xx_HAL_Driver/Inc/stm32f3xx_ll_rcc.h **** 
1166:../../Drivers/STM32F3xx_HAL_Driver/Inc/stm32f3xx_ll_rcc.h **** /**
1167:../../Drivers/STM32F3xx_HAL_Driver/Inc/stm32f3xx_ll_rcc.h ****   * @brief  Enable  Low Speed External (LSE) crystal.
1168:../../Drivers/STM32F3xx_HAL_Driver/Inc/stm32f3xx_ll_rcc.h ****   * @rmtoll BDCR         LSEON         LL_RCC_LSE_Enable
1169:../../Drivers/STM32F3xx_HAL_Driver/Inc/stm32f3xx_ll_rcc.h ****   * @retval None
1170:../../Drivers/STM32F3xx_HAL_Driver/Inc/stm32f3xx_ll_rcc.h ****   */
1171:../../Drivers/STM32F3xx_HAL_Driver/Inc/stm32f3xx_ll_rcc.h **** __STATIC_INLINE void LL_RCC_LSE_Enable(void)
1172:../../Drivers/STM32F3xx_HAL_Driver/Inc/stm32f3xx_ll_rcc.h **** {
1173:../../Drivers/STM32F3xx_HAL_Driver/Inc/stm32f3xx_ll_rcc.h ****   SET_BIT(RCC->BDCR, RCC_BDCR_LSEON);
1174:../../Drivers/STM32F3xx_HAL_Driver/Inc/stm32f3xx_ll_rcc.h **** }
1175:../../Drivers/STM32F3xx_HAL_Driver/Inc/stm32f3xx_ll_rcc.h **** 
1176:../../Drivers/STM32F3xx_HAL_Driver/Inc/stm32f3xx_ll_rcc.h **** /**
1177:../../Drivers/STM32F3xx_HAL_Driver/Inc/stm32f3xx_ll_rcc.h ****   * @brief  Disable  Low Speed External (LSE) crystal.
1178:../../Drivers/STM32F3xx_HAL_Driver/Inc/stm32f3xx_ll_rcc.h ****   * @rmtoll BDCR         LSEON         LL_RCC_LSE_Disable
1179:../../Drivers/STM32F3xx_HAL_Driver/Inc/stm32f3xx_ll_rcc.h ****   * @retval None
1180:../../Drivers/STM32F3xx_HAL_Driver/Inc/stm32f3xx_ll_rcc.h ****   */
1181:../../Drivers/STM32F3xx_HAL_Driver/Inc/stm32f3xx_ll_rcc.h **** __STATIC_INLINE void LL_RCC_LSE_Disable(void)
1182:../../Drivers/STM32F3xx_HAL_Driver/Inc/stm32f3xx_ll_rcc.h **** {
1183:../../Drivers/STM32F3xx_HAL_Driver/Inc/stm32f3xx_ll_rcc.h ****   CLEAR_BIT(RCC->BDCR, RCC_BDCR_LSEON);
1184:../../Drivers/STM32F3xx_HAL_Driver/Inc/stm32f3xx_ll_rcc.h **** }
1185:../../Drivers/STM32F3xx_HAL_Driver/Inc/stm32f3xx_ll_rcc.h **** 
1186:../../Drivers/STM32F3xx_HAL_Driver/Inc/stm32f3xx_ll_rcc.h **** /**
1187:../../Drivers/STM32F3xx_HAL_Driver/Inc/stm32f3xx_ll_rcc.h ****   * @brief  Enable external clock source (LSE bypass).
1188:../../Drivers/STM32F3xx_HAL_Driver/Inc/stm32f3xx_ll_rcc.h ****   * @rmtoll BDCR         LSEBYP        LL_RCC_LSE_EnableBypass
1189:../../Drivers/STM32F3xx_HAL_Driver/Inc/stm32f3xx_ll_rcc.h ****   * @retval None
1190:../../Drivers/STM32F3xx_HAL_Driver/Inc/stm32f3xx_ll_rcc.h ****   */
1191:../../Drivers/STM32F3xx_HAL_Driver/Inc/stm32f3xx_ll_rcc.h **** __STATIC_INLINE void LL_RCC_LSE_EnableBypass(void)
1192:../../Drivers/STM32F3xx_HAL_Driver/Inc/stm32f3xx_ll_rcc.h **** {
1193:../../Drivers/STM32F3xx_HAL_Driver/Inc/stm32f3xx_ll_rcc.h ****   SET_BIT(RCC->BDCR, RCC_BDCR_LSEBYP);
1194:../../Drivers/STM32F3xx_HAL_Driver/Inc/stm32f3xx_ll_rcc.h **** }
1195:../../Drivers/STM32F3xx_HAL_Driver/Inc/stm32f3xx_ll_rcc.h **** 
1196:../../Drivers/STM32F3xx_HAL_Driver/Inc/stm32f3xx_ll_rcc.h **** /**
1197:../../Drivers/STM32F3xx_HAL_Driver/Inc/stm32f3xx_ll_rcc.h ****   * @brief  Disable external clock source (LSE bypass).
1198:../../Drivers/STM32F3xx_HAL_Driver/Inc/stm32f3xx_ll_rcc.h ****   * @rmtoll BDCR         LSEBYP        LL_RCC_LSE_DisableBypass
1199:../../Drivers/STM32F3xx_HAL_Driver/Inc/stm32f3xx_ll_rcc.h ****   * @retval None
1200:../../Drivers/STM32F3xx_HAL_Driver/Inc/stm32f3xx_ll_rcc.h ****   */
1201:../../Drivers/STM32F3xx_HAL_Driver/Inc/stm32f3xx_ll_rcc.h **** __STATIC_INLINE void LL_RCC_LSE_DisableBypass(void)
1202:../../Drivers/STM32F3xx_HAL_Driver/Inc/stm32f3xx_ll_rcc.h **** {
1203:../../Drivers/STM32F3xx_HAL_Driver/Inc/stm32f3xx_ll_rcc.h ****   CLEAR_BIT(RCC->BDCR, RCC_BDCR_LSEBYP);
ARM GAS  /tmp/ccBBHnuc.s 			page 29


1204:../../Drivers/STM32F3xx_HAL_Driver/Inc/stm32f3xx_ll_rcc.h **** }
1205:../../Drivers/STM32F3xx_HAL_Driver/Inc/stm32f3xx_ll_rcc.h **** 
1206:../../Drivers/STM32F3xx_HAL_Driver/Inc/stm32f3xx_ll_rcc.h **** /**
1207:../../Drivers/STM32F3xx_HAL_Driver/Inc/stm32f3xx_ll_rcc.h ****   * @brief  Set LSE oscillator drive capability
1208:../../Drivers/STM32F3xx_HAL_Driver/Inc/stm32f3xx_ll_rcc.h ****   * @note The oscillator is in Xtal mode when it is not in bypass mode.
1209:../../Drivers/STM32F3xx_HAL_Driver/Inc/stm32f3xx_ll_rcc.h ****   * @rmtoll BDCR         LSEDRV        LL_RCC_LSE_SetDriveCapability
1210:../../Drivers/STM32F3xx_HAL_Driver/Inc/stm32f3xx_ll_rcc.h ****   * @param  LSEDrive This parameter can be one of the following values:
1211:../../Drivers/STM32F3xx_HAL_Driver/Inc/stm32f3xx_ll_rcc.h ****   *         @arg @ref LL_RCC_LSEDRIVE_LOW
1212:../../Drivers/STM32F3xx_HAL_Driver/Inc/stm32f3xx_ll_rcc.h ****   *         @arg @ref LL_RCC_LSEDRIVE_MEDIUMLOW
1213:../../Drivers/STM32F3xx_HAL_Driver/Inc/stm32f3xx_ll_rcc.h ****   *         @arg @ref LL_RCC_LSEDRIVE_MEDIUMHIGH
1214:../../Drivers/STM32F3xx_HAL_Driver/Inc/stm32f3xx_ll_rcc.h ****   *         @arg @ref LL_RCC_LSEDRIVE_HIGH
1215:../../Drivers/STM32F3xx_HAL_Driver/Inc/stm32f3xx_ll_rcc.h ****   * @retval None
1216:../../Drivers/STM32F3xx_HAL_Driver/Inc/stm32f3xx_ll_rcc.h ****   */
1217:../../Drivers/STM32F3xx_HAL_Driver/Inc/stm32f3xx_ll_rcc.h **** __STATIC_INLINE void LL_RCC_LSE_SetDriveCapability(uint32_t LSEDrive)
1218:../../Drivers/STM32F3xx_HAL_Driver/Inc/stm32f3xx_ll_rcc.h **** {
1219:../../Drivers/STM32F3xx_HAL_Driver/Inc/stm32f3xx_ll_rcc.h ****   MODIFY_REG(RCC->BDCR, RCC_BDCR_LSEDRV, LSEDrive);
1220:../../Drivers/STM32F3xx_HAL_Driver/Inc/stm32f3xx_ll_rcc.h **** }
1221:../../Drivers/STM32F3xx_HAL_Driver/Inc/stm32f3xx_ll_rcc.h **** 
1222:../../Drivers/STM32F3xx_HAL_Driver/Inc/stm32f3xx_ll_rcc.h **** /**
1223:../../Drivers/STM32F3xx_HAL_Driver/Inc/stm32f3xx_ll_rcc.h ****   * @brief  Get LSE oscillator drive capability
1224:../../Drivers/STM32F3xx_HAL_Driver/Inc/stm32f3xx_ll_rcc.h ****   * @rmtoll BDCR         LSEDRV        LL_RCC_LSE_GetDriveCapability
1225:../../Drivers/STM32F3xx_HAL_Driver/Inc/stm32f3xx_ll_rcc.h ****   * @retval Returned value can be one of the following values:
1226:../../Drivers/STM32F3xx_HAL_Driver/Inc/stm32f3xx_ll_rcc.h ****   *         @arg @ref LL_RCC_LSEDRIVE_LOW
1227:../../Drivers/STM32F3xx_HAL_Driver/Inc/stm32f3xx_ll_rcc.h ****   *         @arg @ref LL_RCC_LSEDRIVE_MEDIUMLOW
1228:../../Drivers/STM32F3xx_HAL_Driver/Inc/stm32f3xx_ll_rcc.h ****   *         @arg @ref LL_RCC_LSEDRIVE_MEDIUMHIGH
1229:../../Drivers/STM32F3xx_HAL_Driver/Inc/stm32f3xx_ll_rcc.h ****   *         @arg @ref LL_RCC_LSEDRIVE_HIGH
1230:../../Drivers/STM32F3xx_HAL_Driver/Inc/stm32f3xx_ll_rcc.h ****   */
1231:../../Drivers/STM32F3xx_HAL_Driver/Inc/stm32f3xx_ll_rcc.h **** __STATIC_INLINE uint32_t LL_RCC_LSE_GetDriveCapability(void)
1232:../../Drivers/STM32F3xx_HAL_Driver/Inc/stm32f3xx_ll_rcc.h **** {
1233:../../Drivers/STM32F3xx_HAL_Driver/Inc/stm32f3xx_ll_rcc.h ****   return (uint32_t)(READ_BIT(RCC->BDCR, RCC_BDCR_LSEDRV));
1234:../../Drivers/STM32F3xx_HAL_Driver/Inc/stm32f3xx_ll_rcc.h **** }
1235:../../Drivers/STM32F3xx_HAL_Driver/Inc/stm32f3xx_ll_rcc.h **** 
1236:../../Drivers/STM32F3xx_HAL_Driver/Inc/stm32f3xx_ll_rcc.h **** /**
1237:../../Drivers/STM32F3xx_HAL_Driver/Inc/stm32f3xx_ll_rcc.h ****   * @brief  Check if LSE oscillator Ready
1238:../../Drivers/STM32F3xx_HAL_Driver/Inc/stm32f3xx_ll_rcc.h ****   * @rmtoll BDCR         LSERDY        LL_RCC_LSE_IsReady
1239:../../Drivers/STM32F3xx_HAL_Driver/Inc/stm32f3xx_ll_rcc.h ****   * @retval State of bit (1 or 0).
1240:../../Drivers/STM32F3xx_HAL_Driver/Inc/stm32f3xx_ll_rcc.h ****   */
1241:../../Drivers/STM32F3xx_HAL_Driver/Inc/stm32f3xx_ll_rcc.h **** __STATIC_INLINE uint32_t LL_RCC_LSE_IsReady(void)
1242:../../Drivers/STM32F3xx_HAL_Driver/Inc/stm32f3xx_ll_rcc.h **** {
1243:../../Drivers/STM32F3xx_HAL_Driver/Inc/stm32f3xx_ll_rcc.h ****   return (READ_BIT(RCC->BDCR, RCC_BDCR_LSERDY) == (RCC_BDCR_LSERDY));
1244:../../Drivers/STM32F3xx_HAL_Driver/Inc/stm32f3xx_ll_rcc.h **** }
1245:../../Drivers/STM32F3xx_HAL_Driver/Inc/stm32f3xx_ll_rcc.h **** 
1246:../../Drivers/STM32F3xx_HAL_Driver/Inc/stm32f3xx_ll_rcc.h **** /**
1247:../../Drivers/STM32F3xx_HAL_Driver/Inc/stm32f3xx_ll_rcc.h ****   * @}
1248:../../Drivers/STM32F3xx_HAL_Driver/Inc/stm32f3xx_ll_rcc.h ****   */
1249:../../Drivers/STM32F3xx_HAL_Driver/Inc/stm32f3xx_ll_rcc.h **** 
1250:../../Drivers/STM32F3xx_HAL_Driver/Inc/stm32f3xx_ll_rcc.h **** /** @defgroup RCC_LL_EF_LSI LSI
1251:../../Drivers/STM32F3xx_HAL_Driver/Inc/stm32f3xx_ll_rcc.h ****   * @{
1252:../../Drivers/STM32F3xx_HAL_Driver/Inc/stm32f3xx_ll_rcc.h ****   */
1253:../../Drivers/STM32F3xx_HAL_Driver/Inc/stm32f3xx_ll_rcc.h **** 
1254:../../Drivers/STM32F3xx_HAL_Driver/Inc/stm32f3xx_ll_rcc.h **** /**
1255:../../Drivers/STM32F3xx_HAL_Driver/Inc/stm32f3xx_ll_rcc.h ****   * @brief  Enable LSI Oscillator
1256:../../Drivers/STM32F3xx_HAL_Driver/Inc/stm32f3xx_ll_rcc.h ****   * @rmtoll CSR          LSION         LL_RCC_LSI_Enable
1257:../../Drivers/STM32F3xx_HAL_Driver/Inc/stm32f3xx_ll_rcc.h ****   * @retval None
1258:../../Drivers/STM32F3xx_HAL_Driver/Inc/stm32f3xx_ll_rcc.h ****   */
1259:../../Drivers/STM32F3xx_HAL_Driver/Inc/stm32f3xx_ll_rcc.h **** __STATIC_INLINE void LL_RCC_LSI_Enable(void)
1260:../../Drivers/STM32F3xx_HAL_Driver/Inc/stm32f3xx_ll_rcc.h **** {
ARM GAS  /tmp/ccBBHnuc.s 			page 30


1261:../../Drivers/STM32F3xx_HAL_Driver/Inc/stm32f3xx_ll_rcc.h ****   SET_BIT(RCC->CSR, RCC_CSR_LSION);
1262:../../Drivers/STM32F3xx_HAL_Driver/Inc/stm32f3xx_ll_rcc.h **** }
1263:../../Drivers/STM32F3xx_HAL_Driver/Inc/stm32f3xx_ll_rcc.h **** 
1264:../../Drivers/STM32F3xx_HAL_Driver/Inc/stm32f3xx_ll_rcc.h **** /**
1265:../../Drivers/STM32F3xx_HAL_Driver/Inc/stm32f3xx_ll_rcc.h ****   * @brief  Disable LSI Oscillator
1266:../../Drivers/STM32F3xx_HAL_Driver/Inc/stm32f3xx_ll_rcc.h ****   * @rmtoll CSR          LSION         LL_RCC_LSI_Disable
1267:../../Drivers/STM32F3xx_HAL_Driver/Inc/stm32f3xx_ll_rcc.h ****   * @retval None
1268:../../Drivers/STM32F3xx_HAL_Driver/Inc/stm32f3xx_ll_rcc.h ****   */
1269:../../Drivers/STM32F3xx_HAL_Driver/Inc/stm32f3xx_ll_rcc.h **** __STATIC_INLINE void LL_RCC_LSI_Disable(void)
1270:../../Drivers/STM32F3xx_HAL_Driver/Inc/stm32f3xx_ll_rcc.h **** {
1271:../../Drivers/STM32F3xx_HAL_Driver/Inc/stm32f3xx_ll_rcc.h ****   CLEAR_BIT(RCC->CSR, RCC_CSR_LSION);
1272:../../Drivers/STM32F3xx_HAL_Driver/Inc/stm32f3xx_ll_rcc.h **** }
1273:../../Drivers/STM32F3xx_HAL_Driver/Inc/stm32f3xx_ll_rcc.h **** 
1274:../../Drivers/STM32F3xx_HAL_Driver/Inc/stm32f3xx_ll_rcc.h **** /**
1275:../../Drivers/STM32F3xx_HAL_Driver/Inc/stm32f3xx_ll_rcc.h ****   * @brief  Check if LSI is Ready
1276:../../Drivers/STM32F3xx_HAL_Driver/Inc/stm32f3xx_ll_rcc.h ****   * @rmtoll CSR          LSIRDY        LL_RCC_LSI_IsReady
1277:../../Drivers/STM32F3xx_HAL_Driver/Inc/stm32f3xx_ll_rcc.h ****   * @retval State of bit (1 or 0).
1278:../../Drivers/STM32F3xx_HAL_Driver/Inc/stm32f3xx_ll_rcc.h ****   */
1279:../../Drivers/STM32F3xx_HAL_Driver/Inc/stm32f3xx_ll_rcc.h **** __STATIC_INLINE uint32_t LL_RCC_LSI_IsReady(void)
1280:../../Drivers/STM32F3xx_HAL_Driver/Inc/stm32f3xx_ll_rcc.h **** {
1281:../../Drivers/STM32F3xx_HAL_Driver/Inc/stm32f3xx_ll_rcc.h ****   return (READ_BIT(RCC->CSR, RCC_CSR_LSIRDY) == (RCC_CSR_LSIRDY));
1282:../../Drivers/STM32F3xx_HAL_Driver/Inc/stm32f3xx_ll_rcc.h **** }
1283:../../Drivers/STM32F3xx_HAL_Driver/Inc/stm32f3xx_ll_rcc.h **** 
1284:../../Drivers/STM32F3xx_HAL_Driver/Inc/stm32f3xx_ll_rcc.h **** /**
1285:../../Drivers/STM32F3xx_HAL_Driver/Inc/stm32f3xx_ll_rcc.h ****   * @}
1286:../../Drivers/STM32F3xx_HAL_Driver/Inc/stm32f3xx_ll_rcc.h ****   */
1287:../../Drivers/STM32F3xx_HAL_Driver/Inc/stm32f3xx_ll_rcc.h **** 
1288:../../Drivers/STM32F3xx_HAL_Driver/Inc/stm32f3xx_ll_rcc.h **** /** @defgroup RCC_LL_EF_System System
1289:../../Drivers/STM32F3xx_HAL_Driver/Inc/stm32f3xx_ll_rcc.h ****   * @{
1290:../../Drivers/STM32F3xx_HAL_Driver/Inc/stm32f3xx_ll_rcc.h ****   */
1291:../../Drivers/STM32F3xx_HAL_Driver/Inc/stm32f3xx_ll_rcc.h **** 
1292:../../Drivers/STM32F3xx_HAL_Driver/Inc/stm32f3xx_ll_rcc.h **** /**
1293:../../Drivers/STM32F3xx_HAL_Driver/Inc/stm32f3xx_ll_rcc.h ****   * @brief  Configure the system clock source
1294:../../Drivers/STM32F3xx_HAL_Driver/Inc/stm32f3xx_ll_rcc.h ****   * @rmtoll CFGR         SW            LL_RCC_SetSysClkSource
1295:../../Drivers/STM32F3xx_HAL_Driver/Inc/stm32f3xx_ll_rcc.h ****   * @param  Source This parameter can be one of the following values:
1296:../../Drivers/STM32F3xx_HAL_Driver/Inc/stm32f3xx_ll_rcc.h ****   *         @arg @ref LL_RCC_SYS_CLKSOURCE_HSI
1297:../../Drivers/STM32F3xx_HAL_Driver/Inc/stm32f3xx_ll_rcc.h ****   *         @arg @ref LL_RCC_SYS_CLKSOURCE_HSE
1298:../../Drivers/STM32F3xx_HAL_Driver/Inc/stm32f3xx_ll_rcc.h ****   *         @arg @ref LL_RCC_SYS_CLKSOURCE_PLL
1299:../../Drivers/STM32F3xx_HAL_Driver/Inc/stm32f3xx_ll_rcc.h ****   * @retval None
1300:../../Drivers/STM32F3xx_HAL_Driver/Inc/stm32f3xx_ll_rcc.h ****   */
1301:../../Drivers/STM32F3xx_HAL_Driver/Inc/stm32f3xx_ll_rcc.h **** __STATIC_INLINE void LL_RCC_SetSysClkSource(uint32_t Source)
1302:../../Drivers/STM32F3xx_HAL_Driver/Inc/stm32f3xx_ll_rcc.h **** {
1303:../../Drivers/STM32F3xx_HAL_Driver/Inc/stm32f3xx_ll_rcc.h ****   MODIFY_REG(RCC->CFGR, RCC_CFGR_SW, Source);
1304:../../Drivers/STM32F3xx_HAL_Driver/Inc/stm32f3xx_ll_rcc.h **** }
1305:../../Drivers/STM32F3xx_HAL_Driver/Inc/stm32f3xx_ll_rcc.h **** 
1306:../../Drivers/STM32F3xx_HAL_Driver/Inc/stm32f3xx_ll_rcc.h **** /**
1307:../../Drivers/STM32F3xx_HAL_Driver/Inc/stm32f3xx_ll_rcc.h ****   * @brief  Get the system clock source
1308:../../Drivers/STM32F3xx_HAL_Driver/Inc/stm32f3xx_ll_rcc.h ****   * @rmtoll CFGR         SWS           LL_RCC_GetSysClkSource
1309:../../Drivers/STM32F3xx_HAL_Driver/Inc/stm32f3xx_ll_rcc.h ****   * @retval Returned value can be one of the following values:
1310:../../Drivers/STM32F3xx_HAL_Driver/Inc/stm32f3xx_ll_rcc.h ****   *         @arg @ref LL_RCC_SYS_CLKSOURCE_STATUS_HSI
1311:../../Drivers/STM32F3xx_HAL_Driver/Inc/stm32f3xx_ll_rcc.h ****   *         @arg @ref LL_RCC_SYS_CLKSOURCE_STATUS_HSE
1312:../../Drivers/STM32F3xx_HAL_Driver/Inc/stm32f3xx_ll_rcc.h ****   *         @arg @ref LL_RCC_SYS_CLKSOURCE_STATUS_PLL
1313:../../Drivers/STM32F3xx_HAL_Driver/Inc/stm32f3xx_ll_rcc.h ****   */
1314:../../Drivers/STM32F3xx_HAL_Driver/Inc/stm32f3xx_ll_rcc.h **** __STATIC_INLINE uint32_t LL_RCC_GetSysClkSource(void)
1315:../../Drivers/STM32F3xx_HAL_Driver/Inc/stm32f3xx_ll_rcc.h **** {
1316:../../Drivers/STM32F3xx_HAL_Driver/Inc/stm32f3xx_ll_rcc.h ****   return (uint32_t)(READ_BIT(RCC->CFGR, RCC_CFGR_SWS));
1317:../../Drivers/STM32F3xx_HAL_Driver/Inc/stm32f3xx_ll_rcc.h **** }
ARM GAS  /tmp/ccBBHnuc.s 			page 31


1318:../../Drivers/STM32F3xx_HAL_Driver/Inc/stm32f3xx_ll_rcc.h **** 
1319:../../Drivers/STM32F3xx_HAL_Driver/Inc/stm32f3xx_ll_rcc.h **** /**
1320:../../Drivers/STM32F3xx_HAL_Driver/Inc/stm32f3xx_ll_rcc.h ****   * @brief  Set AHB prescaler
1321:../../Drivers/STM32F3xx_HAL_Driver/Inc/stm32f3xx_ll_rcc.h ****   * @rmtoll CFGR         HPRE          LL_RCC_SetAHBPrescaler
1322:../../Drivers/STM32F3xx_HAL_Driver/Inc/stm32f3xx_ll_rcc.h ****   * @param  Prescaler This parameter can be one of the following values:
1323:../../Drivers/STM32F3xx_HAL_Driver/Inc/stm32f3xx_ll_rcc.h ****   *         @arg @ref LL_RCC_SYSCLK_DIV_1
1324:../../Drivers/STM32F3xx_HAL_Driver/Inc/stm32f3xx_ll_rcc.h ****   *         @arg @ref LL_RCC_SYSCLK_DIV_2
1325:../../Drivers/STM32F3xx_HAL_Driver/Inc/stm32f3xx_ll_rcc.h ****   *         @arg @ref LL_RCC_SYSCLK_DIV_4
1326:../../Drivers/STM32F3xx_HAL_Driver/Inc/stm32f3xx_ll_rcc.h ****   *         @arg @ref LL_RCC_SYSCLK_DIV_8
1327:../../Drivers/STM32F3xx_HAL_Driver/Inc/stm32f3xx_ll_rcc.h ****   *         @arg @ref LL_RCC_SYSCLK_DIV_16
1328:../../Drivers/STM32F3xx_HAL_Driver/Inc/stm32f3xx_ll_rcc.h ****   *         @arg @ref LL_RCC_SYSCLK_DIV_64
1329:../../Drivers/STM32F3xx_HAL_Driver/Inc/stm32f3xx_ll_rcc.h ****   *         @arg @ref LL_RCC_SYSCLK_DIV_128
1330:../../Drivers/STM32F3xx_HAL_Driver/Inc/stm32f3xx_ll_rcc.h ****   *         @arg @ref LL_RCC_SYSCLK_DIV_256
1331:../../Drivers/STM32F3xx_HAL_Driver/Inc/stm32f3xx_ll_rcc.h ****   *         @arg @ref LL_RCC_SYSCLK_DIV_512
1332:../../Drivers/STM32F3xx_HAL_Driver/Inc/stm32f3xx_ll_rcc.h ****   * @retval None
1333:../../Drivers/STM32F3xx_HAL_Driver/Inc/stm32f3xx_ll_rcc.h ****   */
1334:../../Drivers/STM32F3xx_HAL_Driver/Inc/stm32f3xx_ll_rcc.h **** __STATIC_INLINE void LL_RCC_SetAHBPrescaler(uint32_t Prescaler)
1335:../../Drivers/STM32F3xx_HAL_Driver/Inc/stm32f3xx_ll_rcc.h **** {
1336:../../Drivers/STM32F3xx_HAL_Driver/Inc/stm32f3xx_ll_rcc.h ****   MODIFY_REG(RCC->CFGR, RCC_CFGR_HPRE, Prescaler);
1337:../../Drivers/STM32F3xx_HAL_Driver/Inc/stm32f3xx_ll_rcc.h **** }
1338:../../Drivers/STM32F3xx_HAL_Driver/Inc/stm32f3xx_ll_rcc.h **** 
1339:../../Drivers/STM32F3xx_HAL_Driver/Inc/stm32f3xx_ll_rcc.h **** /**
1340:../../Drivers/STM32F3xx_HAL_Driver/Inc/stm32f3xx_ll_rcc.h ****   * @brief  Set APB1 prescaler
1341:../../Drivers/STM32F3xx_HAL_Driver/Inc/stm32f3xx_ll_rcc.h ****   * @rmtoll CFGR         PPRE1         LL_RCC_SetAPB1Prescaler
1342:../../Drivers/STM32F3xx_HAL_Driver/Inc/stm32f3xx_ll_rcc.h ****   * @param  Prescaler This parameter can be one of the following values:
1343:../../Drivers/STM32F3xx_HAL_Driver/Inc/stm32f3xx_ll_rcc.h ****   *         @arg @ref LL_RCC_APB1_DIV_1
1344:../../Drivers/STM32F3xx_HAL_Driver/Inc/stm32f3xx_ll_rcc.h ****   *         @arg @ref LL_RCC_APB1_DIV_2
1345:../../Drivers/STM32F3xx_HAL_Driver/Inc/stm32f3xx_ll_rcc.h ****   *         @arg @ref LL_RCC_APB1_DIV_4
1346:../../Drivers/STM32F3xx_HAL_Driver/Inc/stm32f3xx_ll_rcc.h ****   *         @arg @ref LL_RCC_APB1_DIV_8
1347:../../Drivers/STM32F3xx_HAL_Driver/Inc/stm32f3xx_ll_rcc.h ****   *         @arg @ref LL_RCC_APB1_DIV_16
1348:../../Drivers/STM32F3xx_HAL_Driver/Inc/stm32f3xx_ll_rcc.h ****   * @retval None
1349:../../Drivers/STM32F3xx_HAL_Driver/Inc/stm32f3xx_ll_rcc.h ****   */
1350:../../Drivers/STM32F3xx_HAL_Driver/Inc/stm32f3xx_ll_rcc.h **** __STATIC_INLINE void LL_RCC_SetAPB1Prescaler(uint32_t Prescaler)
1351:../../Drivers/STM32F3xx_HAL_Driver/Inc/stm32f3xx_ll_rcc.h **** {
1352:../../Drivers/STM32F3xx_HAL_Driver/Inc/stm32f3xx_ll_rcc.h ****   MODIFY_REG(RCC->CFGR, RCC_CFGR_PPRE1, Prescaler);
1353:../../Drivers/STM32F3xx_HAL_Driver/Inc/stm32f3xx_ll_rcc.h **** }
1354:../../Drivers/STM32F3xx_HAL_Driver/Inc/stm32f3xx_ll_rcc.h **** 
1355:../../Drivers/STM32F3xx_HAL_Driver/Inc/stm32f3xx_ll_rcc.h **** /**
1356:../../Drivers/STM32F3xx_HAL_Driver/Inc/stm32f3xx_ll_rcc.h ****   * @brief  Set APB2 prescaler
1357:../../Drivers/STM32F3xx_HAL_Driver/Inc/stm32f3xx_ll_rcc.h ****   * @rmtoll CFGR         PPRE2         LL_RCC_SetAPB2Prescaler
1358:../../Drivers/STM32F3xx_HAL_Driver/Inc/stm32f3xx_ll_rcc.h ****   * @param  Prescaler This parameter can be one of the following values:
1359:../../Drivers/STM32F3xx_HAL_Driver/Inc/stm32f3xx_ll_rcc.h ****   *         @arg @ref LL_RCC_APB2_DIV_1
1360:../../Drivers/STM32F3xx_HAL_Driver/Inc/stm32f3xx_ll_rcc.h ****   *         @arg @ref LL_RCC_APB2_DIV_2
1361:../../Drivers/STM32F3xx_HAL_Driver/Inc/stm32f3xx_ll_rcc.h ****   *         @arg @ref LL_RCC_APB2_DIV_4
1362:../../Drivers/STM32F3xx_HAL_Driver/Inc/stm32f3xx_ll_rcc.h ****   *         @arg @ref LL_RCC_APB2_DIV_8
1363:../../Drivers/STM32F3xx_HAL_Driver/Inc/stm32f3xx_ll_rcc.h ****   *         @arg @ref LL_RCC_APB2_DIV_16
1364:../../Drivers/STM32F3xx_HAL_Driver/Inc/stm32f3xx_ll_rcc.h ****   * @retval None
1365:../../Drivers/STM32F3xx_HAL_Driver/Inc/stm32f3xx_ll_rcc.h ****   */
1366:../../Drivers/STM32F3xx_HAL_Driver/Inc/stm32f3xx_ll_rcc.h **** __STATIC_INLINE void LL_RCC_SetAPB2Prescaler(uint32_t Prescaler)
1367:../../Drivers/STM32F3xx_HAL_Driver/Inc/stm32f3xx_ll_rcc.h **** {
1368:../../Drivers/STM32F3xx_HAL_Driver/Inc/stm32f3xx_ll_rcc.h ****   MODIFY_REG(RCC->CFGR, RCC_CFGR_PPRE2, Prescaler);
1369:../../Drivers/STM32F3xx_HAL_Driver/Inc/stm32f3xx_ll_rcc.h **** }
1370:../../Drivers/STM32F3xx_HAL_Driver/Inc/stm32f3xx_ll_rcc.h **** 
1371:../../Drivers/STM32F3xx_HAL_Driver/Inc/stm32f3xx_ll_rcc.h **** /**
1372:../../Drivers/STM32F3xx_HAL_Driver/Inc/stm32f3xx_ll_rcc.h ****   * @brief  Get AHB prescaler
1373:../../Drivers/STM32F3xx_HAL_Driver/Inc/stm32f3xx_ll_rcc.h ****   * @rmtoll CFGR         HPRE          LL_RCC_GetAHBPrescaler
1374:../../Drivers/STM32F3xx_HAL_Driver/Inc/stm32f3xx_ll_rcc.h ****   * @retval Returned value can be one of the following values:
ARM GAS  /tmp/ccBBHnuc.s 			page 32


1375:../../Drivers/STM32F3xx_HAL_Driver/Inc/stm32f3xx_ll_rcc.h ****   *         @arg @ref LL_RCC_SYSCLK_DIV_1
1376:../../Drivers/STM32F3xx_HAL_Driver/Inc/stm32f3xx_ll_rcc.h ****   *         @arg @ref LL_RCC_SYSCLK_DIV_2
1377:../../Drivers/STM32F3xx_HAL_Driver/Inc/stm32f3xx_ll_rcc.h ****   *         @arg @ref LL_RCC_SYSCLK_DIV_4
1378:../../Drivers/STM32F3xx_HAL_Driver/Inc/stm32f3xx_ll_rcc.h ****   *         @arg @ref LL_RCC_SYSCLK_DIV_8
1379:../../Drivers/STM32F3xx_HAL_Driver/Inc/stm32f3xx_ll_rcc.h ****   *         @arg @ref LL_RCC_SYSCLK_DIV_16
1380:../../Drivers/STM32F3xx_HAL_Driver/Inc/stm32f3xx_ll_rcc.h ****   *         @arg @ref LL_RCC_SYSCLK_DIV_64
1381:../../Drivers/STM32F3xx_HAL_Driver/Inc/stm32f3xx_ll_rcc.h ****   *         @arg @ref LL_RCC_SYSCLK_DIV_128
1382:../../Drivers/STM32F3xx_HAL_Driver/Inc/stm32f3xx_ll_rcc.h ****   *         @arg @ref LL_RCC_SYSCLK_DIV_256
1383:../../Drivers/STM32F3xx_HAL_Driver/Inc/stm32f3xx_ll_rcc.h ****   *         @arg @ref LL_RCC_SYSCLK_DIV_512
1384:../../Drivers/STM32F3xx_HAL_Driver/Inc/stm32f3xx_ll_rcc.h ****   */
1385:../../Drivers/STM32F3xx_HAL_Driver/Inc/stm32f3xx_ll_rcc.h **** __STATIC_INLINE uint32_t LL_RCC_GetAHBPrescaler(void)
1386:../../Drivers/STM32F3xx_HAL_Driver/Inc/stm32f3xx_ll_rcc.h **** {
1387:../../Drivers/STM32F3xx_HAL_Driver/Inc/stm32f3xx_ll_rcc.h ****   return (uint32_t)(READ_BIT(RCC->CFGR, RCC_CFGR_HPRE));
1388:../../Drivers/STM32F3xx_HAL_Driver/Inc/stm32f3xx_ll_rcc.h **** }
1389:../../Drivers/STM32F3xx_HAL_Driver/Inc/stm32f3xx_ll_rcc.h **** 
1390:../../Drivers/STM32F3xx_HAL_Driver/Inc/stm32f3xx_ll_rcc.h **** /**
1391:../../Drivers/STM32F3xx_HAL_Driver/Inc/stm32f3xx_ll_rcc.h ****   * @brief  Get APB1 prescaler
1392:../../Drivers/STM32F3xx_HAL_Driver/Inc/stm32f3xx_ll_rcc.h ****   * @rmtoll CFGR         PPRE1         LL_RCC_GetAPB1Prescaler
1393:../../Drivers/STM32F3xx_HAL_Driver/Inc/stm32f3xx_ll_rcc.h ****   * @retval Returned value can be one of the following values:
1394:../../Drivers/STM32F3xx_HAL_Driver/Inc/stm32f3xx_ll_rcc.h ****   *         @arg @ref LL_RCC_APB1_DIV_1
1395:../../Drivers/STM32F3xx_HAL_Driver/Inc/stm32f3xx_ll_rcc.h ****   *         @arg @ref LL_RCC_APB1_DIV_2
1396:../../Drivers/STM32F3xx_HAL_Driver/Inc/stm32f3xx_ll_rcc.h ****   *         @arg @ref LL_RCC_APB1_DIV_4
1397:../../Drivers/STM32F3xx_HAL_Driver/Inc/stm32f3xx_ll_rcc.h ****   *         @arg @ref LL_RCC_APB1_DIV_8
1398:../../Drivers/STM32F3xx_HAL_Driver/Inc/stm32f3xx_ll_rcc.h ****   *         @arg @ref LL_RCC_APB1_DIV_16
1399:../../Drivers/STM32F3xx_HAL_Driver/Inc/stm32f3xx_ll_rcc.h ****   */
1400:../../Drivers/STM32F3xx_HAL_Driver/Inc/stm32f3xx_ll_rcc.h **** __STATIC_INLINE uint32_t LL_RCC_GetAPB1Prescaler(void)
1401:../../Drivers/STM32F3xx_HAL_Driver/Inc/stm32f3xx_ll_rcc.h **** {
1402:../../Drivers/STM32F3xx_HAL_Driver/Inc/stm32f3xx_ll_rcc.h ****   return (uint32_t)(READ_BIT(RCC->CFGR, RCC_CFGR_PPRE1));
1403:../../Drivers/STM32F3xx_HAL_Driver/Inc/stm32f3xx_ll_rcc.h **** }
1404:../../Drivers/STM32F3xx_HAL_Driver/Inc/stm32f3xx_ll_rcc.h **** 
1405:../../Drivers/STM32F3xx_HAL_Driver/Inc/stm32f3xx_ll_rcc.h **** /**
1406:../../Drivers/STM32F3xx_HAL_Driver/Inc/stm32f3xx_ll_rcc.h ****   * @brief  Get APB2 prescaler
1407:../../Drivers/STM32F3xx_HAL_Driver/Inc/stm32f3xx_ll_rcc.h ****   * @rmtoll CFGR         PPRE2         LL_RCC_GetAPB2Prescaler
1408:../../Drivers/STM32F3xx_HAL_Driver/Inc/stm32f3xx_ll_rcc.h ****   * @retval Returned value can be one of the following values:
1409:../../Drivers/STM32F3xx_HAL_Driver/Inc/stm32f3xx_ll_rcc.h ****   *         @arg @ref LL_RCC_APB2_DIV_1
1410:../../Drivers/STM32F3xx_HAL_Driver/Inc/stm32f3xx_ll_rcc.h ****   *         @arg @ref LL_RCC_APB2_DIV_2
1411:../../Drivers/STM32F3xx_HAL_Driver/Inc/stm32f3xx_ll_rcc.h ****   *         @arg @ref LL_RCC_APB2_DIV_4
1412:../../Drivers/STM32F3xx_HAL_Driver/Inc/stm32f3xx_ll_rcc.h ****   *         @arg @ref LL_RCC_APB2_DIV_8
1413:../../Drivers/STM32F3xx_HAL_Driver/Inc/stm32f3xx_ll_rcc.h ****   *         @arg @ref LL_RCC_APB2_DIV_16
1414:../../Drivers/STM32F3xx_HAL_Driver/Inc/stm32f3xx_ll_rcc.h ****   */
1415:../../Drivers/STM32F3xx_HAL_Driver/Inc/stm32f3xx_ll_rcc.h **** __STATIC_INLINE uint32_t LL_RCC_GetAPB2Prescaler(void)
1416:../../Drivers/STM32F3xx_HAL_Driver/Inc/stm32f3xx_ll_rcc.h **** {
1417:../../Drivers/STM32F3xx_HAL_Driver/Inc/stm32f3xx_ll_rcc.h ****   return (uint32_t)(READ_BIT(RCC->CFGR, RCC_CFGR_PPRE2));
1418:../../Drivers/STM32F3xx_HAL_Driver/Inc/stm32f3xx_ll_rcc.h **** }
1419:../../Drivers/STM32F3xx_HAL_Driver/Inc/stm32f3xx_ll_rcc.h **** 
1420:../../Drivers/STM32F3xx_HAL_Driver/Inc/stm32f3xx_ll_rcc.h **** /**
1421:../../Drivers/STM32F3xx_HAL_Driver/Inc/stm32f3xx_ll_rcc.h ****   * @}
1422:../../Drivers/STM32F3xx_HAL_Driver/Inc/stm32f3xx_ll_rcc.h ****   */
1423:../../Drivers/STM32F3xx_HAL_Driver/Inc/stm32f3xx_ll_rcc.h **** 
1424:../../Drivers/STM32F3xx_HAL_Driver/Inc/stm32f3xx_ll_rcc.h **** /** @defgroup RCC_LL_EF_MCO MCO
1425:../../Drivers/STM32F3xx_HAL_Driver/Inc/stm32f3xx_ll_rcc.h ****   * @{
1426:../../Drivers/STM32F3xx_HAL_Driver/Inc/stm32f3xx_ll_rcc.h ****   */
1427:../../Drivers/STM32F3xx_HAL_Driver/Inc/stm32f3xx_ll_rcc.h **** 
1428:../../Drivers/STM32F3xx_HAL_Driver/Inc/stm32f3xx_ll_rcc.h **** /**
1429:../../Drivers/STM32F3xx_HAL_Driver/Inc/stm32f3xx_ll_rcc.h ****   * @brief  Configure MCOx
1430:../../Drivers/STM32F3xx_HAL_Driver/Inc/stm32f3xx_ll_rcc.h ****   * @rmtoll CFGR         MCO           LL_RCC_ConfigMCO\n
1431:../../Drivers/STM32F3xx_HAL_Driver/Inc/stm32f3xx_ll_rcc.h ****   *         CFGR         MCOPRE        LL_RCC_ConfigMCO\n
ARM GAS  /tmp/ccBBHnuc.s 			page 33


1432:../../Drivers/STM32F3xx_HAL_Driver/Inc/stm32f3xx_ll_rcc.h ****   *         CFGR         PLLNODIV      LL_RCC_ConfigMCO
1433:../../Drivers/STM32F3xx_HAL_Driver/Inc/stm32f3xx_ll_rcc.h ****   * @param  MCOxSource This parameter can be one of the following values:
1434:../../Drivers/STM32F3xx_HAL_Driver/Inc/stm32f3xx_ll_rcc.h ****   *         @arg @ref LL_RCC_MCO1SOURCE_NOCLOCK
1435:../../Drivers/STM32F3xx_HAL_Driver/Inc/stm32f3xx_ll_rcc.h ****   *         @arg @ref LL_RCC_MCO1SOURCE_SYSCLK
1436:../../Drivers/STM32F3xx_HAL_Driver/Inc/stm32f3xx_ll_rcc.h ****   *         @arg @ref LL_RCC_MCO1SOURCE_HSI
1437:../../Drivers/STM32F3xx_HAL_Driver/Inc/stm32f3xx_ll_rcc.h ****   *         @arg @ref LL_RCC_MCO1SOURCE_HSE
1438:../../Drivers/STM32F3xx_HAL_Driver/Inc/stm32f3xx_ll_rcc.h ****   *         @arg @ref LL_RCC_MCO1SOURCE_LSI
1439:../../Drivers/STM32F3xx_HAL_Driver/Inc/stm32f3xx_ll_rcc.h ****   *         @arg @ref LL_RCC_MCO1SOURCE_LSE
1440:../../Drivers/STM32F3xx_HAL_Driver/Inc/stm32f3xx_ll_rcc.h ****   *         @arg @ref LL_RCC_MCO1SOURCE_PLLCLK (*)
1441:../../Drivers/STM32F3xx_HAL_Driver/Inc/stm32f3xx_ll_rcc.h ****   *         @arg @ref LL_RCC_MCO1SOURCE_PLLCLK_DIV_2
1442:../../Drivers/STM32F3xx_HAL_Driver/Inc/stm32f3xx_ll_rcc.h ****   *
1443:../../Drivers/STM32F3xx_HAL_Driver/Inc/stm32f3xx_ll_rcc.h ****   *         (*) value not defined in all devices
1444:../../Drivers/STM32F3xx_HAL_Driver/Inc/stm32f3xx_ll_rcc.h ****   * @param  MCOxPrescaler This parameter can be one of the following values:
1445:../../Drivers/STM32F3xx_HAL_Driver/Inc/stm32f3xx_ll_rcc.h ****   *         @arg @ref LL_RCC_MCO1_DIV_1
1446:../../Drivers/STM32F3xx_HAL_Driver/Inc/stm32f3xx_ll_rcc.h ****   *         @arg @ref LL_RCC_MCO1_DIV_2 (*)
1447:../../Drivers/STM32F3xx_HAL_Driver/Inc/stm32f3xx_ll_rcc.h ****   *         @arg @ref LL_RCC_MCO1_DIV_4 (*)
1448:../../Drivers/STM32F3xx_HAL_Driver/Inc/stm32f3xx_ll_rcc.h ****   *         @arg @ref LL_RCC_MCO1_DIV_8 (*)
1449:../../Drivers/STM32F3xx_HAL_Driver/Inc/stm32f3xx_ll_rcc.h ****   *         @arg @ref LL_RCC_MCO1_DIV_16 (*)
1450:../../Drivers/STM32F3xx_HAL_Driver/Inc/stm32f3xx_ll_rcc.h ****   *         @arg @ref LL_RCC_MCO1_DIV_32 (*)
1451:../../Drivers/STM32F3xx_HAL_Driver/Inc/stm32f3xx_ll_rcc.h ****   *         @arg @ref LL_RCC_MCO1_DIV_64 (*)
1452:../../Drivers/STM32F3xx_HAL_Driver/Inc/stm32f3xx_ll_rcc.h ****   *         @arg @ref LL_RCC_MCO1_DIV_128 (*)
1453:../../Drivers/STM32F3xx_HAL_Driver/Inc/stm32f3xx_ll_rcc.h ****   *
1454:../../Drivers/STM32F3xx_HAL_Driver/Inc/stm32f3xx_ll_rcc.h ****   *         (*) value not defined in all devices
1455:../../Drivers/STM32F3xx_HAL_Driver/Inc/stm32f3xx_ll_rcc.h ****   * @retval None
1456:../../Drivers/STM32F3xx_HAL_Driver/Inc/stm32f3xx_ll_rcc.h ****   */
1457:../../Drivers/STM32F3xx_HAL_Driver/Inc/stm32f3xx_ll_rcc.h **** __STATIC_INLINE void LL_RCC_ConfigMCO(uint32_t MCOxSource, uint32_t MCOxPrescaler)
1458:../../Drivers/STM32F3xx_HAL_Driver/Inc/stm32f3xx_ll_rcc.h **** {
  87              		.loc 2 1458 0
  88              		.cfi_startproc
  89              		@ args = 0, pretend = 0, frame = 8
  90              		@ frame_needed = 1, uses_anonymous_args = 0
  91              		@ link register save eliminated.
  92 0000 80B4     		push	{r7}
  93              	.LCFI6:
  94              		.cfi_def_cfa_offset 4
  95              		.cfi_offset 7, -4
  96 0002 83B0     		sub	sp, sp, #12
  97              	.LCFI7:
  98              		.cfi_def_cfa_offset 16
  99 0004 00AF     		add	r7, sp, #0
 100              	.LCFI8:
 101              		.cfi_def_cfa_register 7
 102 0006 7860     		str	r0, [r7, #4]
 103 0008 3960     		str	r1, [r7]
1459:../../Drivers/STM32F3xx_HAL_Driver/Inc/stm32f3xx_ll_rcc.h **** #if defined(RCC_CFGR_MCOPRE)
1460:../../Drivers/STM32F3xx_HAL_Driver/Inc/stm32f3xx_ll_rcc.h **** #if defined(RCC_CFGR_PLLNODIV)
1461:../../Drivers/STM32F3xx_HAL_Driver/Inc/stm32f3xx_ll_rcc.h ****   MODIFY_REG(RCC->CFGR, RCC_CFGR_MCOSEL | RCC_CFGR_MCOPRE | RCC_CFGR_PLLNODIV, MCOxSource | MCOxPre
 104              		.loc 2 1461 0
 105 000a 0748     		ldr	r0, .L5
 106 000c 064B     		ldr	r3, .L5
 107 000e 5B68     		ldr	r3, [r3, #4]
 108 0010 23F07742 		bic	r2, r3, #-150994944
 109 0014 7968     		ldr	r1, [r7, #4]
 110 0016 3B68     		ldr	r3, [r7]
 111 0018 0B43     		orrs	r3, r3, r1
 112 001a 1343     		orrs	r3, r3, r2
 113 001c 4360     		str	r3, [r0, #4]
ARM GAS  /tmp/ccBBHnuc.s 			page 34


1462:../../Drivers/STM32F3xx_HAL_Driver/Inc/stm32f3xx_ll_rcc.h **** #else
1463:../../Drivers/STM32F3xx_HAL_Driver/Inc/stm32f3xx_ll_rcc.h ****   MODIFY_REG(RCC->CFGR, RCC_CFGR_MCOSEL | RCC_CFGR_MCOPRE, MCOxSource | MCOxPrescaler);
1464:../../Drivers/STM32F3xx_HAL_Driver/Inc/stm32f3xx_ll_rcc.h **** #endif /* RCC_CFGR_PLLNODIV */
1465:../../Drivers/STM32F3xx_HAL_Driver/Inc/stm32f3xx_ll_rcc.h **** #else
1466:../../Drivers/STM32F3xx_HAL_Driver/Inc/stm32f3xx_ll_rcc.h ****   MODIFY_REG(RCC->CFGR, RCC_CFGR_MCOSEL, MCOxSource);
1467:../../Drivers/STM32F3xx_HAL_Driver/Inc/stm32f3xx_ll_rcc.h **** #endif /* RCC_CFGR_MCOPRE */
1468:../../Drivers/STM32F3xx_HAL_Driver/Inc/stm32f3xx_ll_rcc.h **** }
 114              		.loc 2 1468 0
 115 001e 0C37     		adds	r7, r7, #12
 116              	.LCFI9:
 117              		.cfi_def_cfa_offset 4
 118 0020 BD46     		mov	sp, r7
 119              	.LCFI10:
 120              		.cfi_def_cfa_register 13
 121              		@ sp needed
 122 0022 5DF8047B 		ldr	r7, [sp], #4
 123              	.LCFI11:
 124              		.cfi_restore 7
 125              		.cfi_def_cfa_offset 0
 126 0026 7047     		bx	lr
 127              	.L6:
 128              		.align	2
 129              	.L5:
 130 0028 00100240 		.word	1073876992
 131              		.cfi_endproc
 132              	.LFE169:
 134              		.section	.text.LL_GPIO_SetPinMode,"ax",%progbits
 135              		.align	2
 136              		.thumb
 137              		.thumb_func
 139              	LL_GPIO_SetPinMode:
 140              	.LFB232:
 141              		.file 3 "../../Drivers/STM32F3xx_HAL_Driver/Inc/stm32f3xx_ll_gpio.h"
   1:../../Drivers/STM32F3xx_HAL_Driver/Inc/stm32f3xx_ll_gpio.h **** /**
   2:../../Drivers/STM32F3xx_HAL_Driver/Inc/stm32f3xx_ll_gpio.h ****   ******************************************************************************
   3:../../Drivers/STM32F3xx_HAL_Driver/Inc/stm32f3xx_ll_gpio.h ****   * @file    stm32f3xx_ll_gpio.h
   4:../../Drivers/STM32F3xx_HAL_Driver/Inc/stm32f3xx_ll_gpio.h ****   * @author  MCD Application Team
   5:../../Drivers/STM32F3xx_HAL_Driver/Inc/stm32f3xx_ll_gpio.h ****   * @brief   Header file of GPIO LL module.
   6:../../Drivers/STM32F3xx_HAL_Driver/Inc/stm32f3xx_ll_gpio.h ****   ******************************************************************************
   7:../../Drivers/STM32F3xx_HAL_Driver/Inc/stm32f3xx_ll_gpio.h ****   * @attention
   8:../../Drivers/STM32F3xx_HAL_Driver/Inc/stm32f3xx_ll_gpio.h ****   *
   9:../../Drivers/STM32F3xx_HAL_Driver/Inc/stm32f3xx_ll_gpio.h ****   * <h2><center>&copy; COPYRIGHT(c) 2016 STMicroelectronics</center></h2>
  10:../../Drivers/STM32F3xx_HAL_Driver/Inc/stm32f3xx_ll_gpio.h ****   *
  11:../../Drivers/STM32F3xx_HAL_Driver/Inc/stm32f3xx_ll_gpio.h ****   * Redistribution and use in source and binary forms, with or without modification,
  12:../../Drivers/STM32F3xx_HAL_Driver/Inc/stm32f3xx_ll_gpio.h ****   * are permitted provided that the following conditions are met:
  13:../../Drivers/STM32F3xx_HAL_Driver/Inc/stm32f3xx_ll_gpio.h ****   *   1. Redistributions of source code must retain the above copyright notice,
  14:../../Drivers/STM32F3xx_HAL_Driver/Inc/stm32f3xx_ll_gpio.h ****   *      this list of conditions and the following disclaimer.
  15:../../Drivers/STM32F3xx_HAL_Driver/Inc/stm32f3xx_ll_gpio.h ****   *   2. Redistributions in binary form must reproduce the above copyright notice,
  16:../../Drivers/STM32F3xx_HAL_Driver/Inc/stm32f3xx_ll_gpio.h ****   *      this list of conditions and the following disclaimer in the documentation
  17:../../Drivers/STM32F3xx_HAL_Driver/Inc/stm32f3xx_ll_gpio.h ****   *      and/or other materials provided with the distribution.
  18:../../Drivers/STM32F3xx_HAL_Driver/Inc/stm32f3xx_ll_gpio.h ****   *   3. Neither the name of STMicroelectronics nor the names of its contributors
  19:../../Drivers/STM32F3xx_HAL_Driver/Inc/stm32f3xx_ll_gpio.h ****   *      may be used to endorse or promote products derived from this software
  20:../../Drivers/STM32F3xx_HAL_Driver/Inc/stm32f3xx_ll_gpio.h ****   *      without specific prior written permission.
  21:../../Drivers/STM32F3xx_HAL_Driver/Inc/stm32f3xx_ll_gpio.h ****   *
  22:../../Drivers/STM32F3xx_HAL_Driver/Inc/stm32f3xx_ll_gpio.h ****   * THIS SOFTWARE IS PROVIDED BY THE COPYRIGHT HOLDERS AND CONTRIBUTORS "AS IS"
  23:../../Drivers/STM32F3xx_HAL_Driver/Inc/stm32f3xx_ll_gpio.h ****   * AND ANY EXPRESS OR IMPLIED WARRANTIES, INCLUDING, BUT NOT LIMITED TO, THE
  24:../../Drivers/STM32F3xx_HAL_Driver/Inc/stm32f3xx_ll_gpio.h ****   * IMPLIED WARRANTIES OF MERCHANTABILITY AND FITNESS FOR A PARTICULAR PURPOSE ARE
ARM GAS  /tmp/ccBBHnuc.s 			page 35


  25:../../Drivers/STM32F3xx_HAL_Driver/Inc/stm32f3xx_ll_gpio.h ****   * DISCLAIMED. IN NO EVENT SHALL THE COPYRIGHT HOLDER OR CONTRIBUTORS BE LIABLE
  26:../../Drivers/STM32F3xx_HAL_Driver/Inc/stm32f3xx_ll_gpio.h ****   * FOR ANY DIRECT, INDIRECT, INCIDENTAL, SPECIAL, EXEMPLARY, OR CONSEQUENTIAL
  27:../../Drivers/STM32F3xx_HAL_Driver/Inc/stm32f3xx_ll_gpio.h ****   * DAMAGES (INCLUDING, BUT NOT LIMITED TO, PROCUREMENT OF SUBSTITUTE GOODS OR
  28:../../Drivers/STM32F3xx_HAL_Driver/Inc/stm32f3xx_ll_gpio.h ****   * SERVICES; LOSS OF USE, DATA, OR PROFITS; OR BUSINESS INTERRUPTION) HOWEVER
  29:../../Drivers/STM32F3xx_HAL_Driver/Inc/stm32f3xx_ll_gpio.h ****   * CAUSED AND ON ANY THEORY OF LIABILITY, WHETHER IN CONTRACT, STRICT LIABILITY,
  30:../../Drivers/STM32F3xx_HAL_Driver/Inc/stm32f3xx_ll_gpio.h ****   * OR TORT (INCLUDING NEGLIGENCE OR OTHERWISE) ARISING IN ANY WAY OUT OF THE USE
  31:../../Drivers/STM32F3xx_HAL_Driver/Inc/stm32f3xx_ll_gpio.h ****   * OF THIS SOFTWARE, EVEN IF ADVISED OF THE POSSIBILITY OF SUCH DAMAGE.
  32:../../Drivers/STM32F3xx_HAL_Driver/Inc/stm32f3xx_ll_gpio.h ****   *
  33:../../Drivers/STM32F3xx_HAL_Driver/Inc/stm32f3xx_ll_gpio.h ****   ******************************************************************************
  34:../../Drivers/STM32F3xx_HAL_Driver/Inc/stm32f3xx_ll_gpio.h ****   */
  35:../../Drivers/STM32F3xx_HAL_Driver/Inc/stm32f3xx_ll_gpio.h **** 
  36:../../Drivers/STM32F3xx_HAL_Driver/Inc/stm32f3xx_ll_gpio.h **** /* Define to prevent recursive inclusion -------------------------------------*/
  37:../../Drivers/STM32F3xx_HAL_Driver/Inc/stm32f3xx_ll_gpio.h **** #ifndef __STM32F3xx_LL_GPIO_H
  38:../../Drivers/STM32F3xx_HAL_Driver/Inc/stm32f3xx_ll_gpio.h **** #define __STM32F3xx_LL_GPIO_H
  39:../../Drivers/STM32F3xx_HAL_Driver/Inc/stm32f3xx_ll_gpio.h **** 
  40:../../Drivers/STM32F3xx_HAL_Driver/Inc/stm32f3xx_ll_gpio.h **** #ifdef __cplusplus
  41:../../Drivers/STM32F3xx_HAL_Driver/Inc/stm32f3xx_ll_gpio.h **** extern "C" {
  42:../../Drivers/STM32F3xx_HAL_Driver/Inc/stm32f3xx_ll_gpio.h **** #endif
  43:../../Drivers/STM32F3xx_HAL_Driver/Inc/stm32f3xx_ll_gpio.h **** 
  44:../../Drivers/STM32F3xx_HAL_Driver/Inc/stm32f3xx_ll_gpio.h **** /* Includes ------------------------------------------------------------------*/
  45:../../Drivers/STM32F3xx_HAL_Driver/Inc/stm32f3xx_ll_gpio.h **** #include "stm32f3xx.h"
  46:../../Drivers/STM32F3xx_HAL_Driver/Inc/stm32f3xx_ll_gpio.h **** 
  47:../../Drivers/STM32F3xx_HAL_Driver/Inc/stm32f3xx_ll_gpio.h **** /** @addtogroup STM32F3xx_LL_Driver
  48:../../Drivers/STM32F3xx_HAL_Driver/Inc/stm32f3xx_ll_gpio.h ****   * @{
  49:../../Drivers/STM32F3xx_HAL_Driver/Inc/stm32f3xx_ll_gpio.h ****   */
  50:../../Drivers/STM32F3xx_HAL_Driver/Inc/stm32f3xx_ll_gpio.h **** 
  51:../../Drivers/STM32F3xx_HAL_Driver/Inc/stm32f3xx_ll_gpio.h **** #if defined (GPIOA) || defined (GPIOB) || defined (GPIOC) || defined (GPIOD) || defined (GPIOE) || 
  52:../../Drivers/STM32F3xx_HAL_Driver/Inc/stm32f3xx_ll_gpio.h **** 
  53:../../Drivers/STM32F3xx_HAL_Driver/Inc/stm32f3xx_ll_gpio.h **** /** @defgroup GPIO_LL GPIO
  54:../../Drivers/STM32F3xx_HAL_Driver/Inc/stm32f3xx_ll_gpio.h ****   * @{
  55:../../Drivers/STM32F3xx_HAL_Driver/Inc/stm32f3xx_ll_gpio.h ****   */
  56:../../Drivers/STM32F3xx_HAL_Driver/Inc/stm32f3xx_ll_gpio.h **** 
  57:../../Drivers/STM32F3xx_HAL_Driver/Inc/stm32f3xx_ll_gpio.h **** /* Private types -------------------------------------------------------------*/
  58:../../Drivers/STM32F3xx_HAL_Driver/Inc/stm32f3xx_ll_gpio.h **** /* Private variables ---------------------------------------------------------*/
  59:../../Drivers/STM32F3xx_HAL_Driver/Inc/stm32f3xx_ll_gpio.h **** /* Private constants ---------------------------------------------------------*/
  60:../../Drivers/STM32F3xx_HAL_Driver/Inc/stm32f3xx_ll_gpio.h **** /* Private macros ------------------------------------------------------------*/
  61:../../Drivers/STM32F3xx_HAL_Driver/Inc/stm32f3xx_ll_gpio.h **** #if defined(USE_FULL_LL_DRIVER)
  62:../../Drivers/STM32F3xx_HAL_Driver/Inc/stm32f3xx_ll_gpio.h **** /** @defgroup GPIO_LL_Private_Macros GPIO Private Macros
  63:../../Drivers/STM32F3xx_HAL_Driver/Inc/stm32f3xx_ll_gpio.h ****   * @{
  64:../../Drivers/STM32F3xx_HAL_Driver/Inc/stm32f3xx_ll_gpio.h ****   */
  65:../../Drivers/STM32F3xx_HAL_Driver/Inc/stm32f3xx_ll_gpio.h **** 
  66:../../Drivers/STM32F3xx_HAL_Driver/Inc/stm32f3xx_ll_gpio.h **** /**
  67:../../Drivers/STM32F3xx_HAL_Driver/Inc/stm32f3xx_ll_gpio.h ****   * @}
  68:../../Drivers/STM32F3xx_HAL_Driver/Inc/stm32f3xx_ll_gpio.h ****   */
  69:../../Drivers/STM32F3xx_HAL_Driver/Inc/stm32f3xx_ll_gpio.h **** #endif /*USE_FULL_LL_DRIVER*/
  70:../../Drivers/STM32F3xx_HAL_Driver/Inc/stm32f3xx_ll_gpio.h **** 
  71:../../Drivers/STM32F3xx_HAL_Driver/Inc/stm32f3xx_ll_gpio.h **** /* Exported types ------------------------------------------------------------*/
  72:../../Drivers/STM32F3xx_HAL_Driver/Inc/stm32f3xx_ll_gpio.h **** #if defined(USE_FULL_LL_DRIVER)
  73:../../Drivers/STM32F3xx_HAL_Driver/Inc/stm32f3xx_ll_gpio.h **** /** @defgroup GPIO_LL_ES_INIT GPIO Exported Init structures
  74:../../Drivers/STM32F3xx_HAL_Driver/Inc/stm32f3xx_ll_gpio.h ****   * @{
  75:../../Drivers/STM32F3xx_HAL_Driver/Inc/stm32f3xx_ll_gpio.h ****   */
  76:../../Drivers/STM32F3xx_HAL_Driver/Inc/stm32f3xx_ll_gpio.h **** 
  77:../../Drivers/STM32F3xx_HAL_Driver/Inc/stm32f3xx_ll_gpio.h **** /**
  78:../../Drivers/STM32F3xx_HAL_Driver/Inc/stm32f3xx_ll_gpio.h ****   * @brief LL GPIO Init Structure definition
  79:../../Drivers/STM32F3xx_HAL_Driver/Inc/stm32f3xx_ll_gpio.h ****   */
  80:../../Drivers/STM32F3xx_HAL_Driver/Inc/stm32f3xx_ll_gpio.h **** typedef struct
  81:../../Drivers/STM32F3xx_HAL_Driver/Inc/stm32f3xx_ll_gpio.h **** {
ARM GAS  /tmp/ccBBHnuc.s 			page 36


  82:../../Drivers/STM32F3xx_HAL_Driver/Inc/stm32f3xx_ll_gpio.h ****   uint32_t Pin;          /*!< Specifies the GPIO pins to be configured.
  83:../../Drivers/STM32F3xx_HAL_Driver/Inc/stm32f3xx_ll_gpio.h ****                               This parameter can be any value of @ref GPIO_LL_EC_PIN */
  84:../../Drivers/STM32F3xx_HAL_Driver/Inc/stm32f3xx_ll_gpio.h **** 
  85:../../Drivers/STM32F3xx_HAL_Driver/Inc/stm32f3xx_ll_gpio.h ****   uint32_t Mode;         /*!< Specifies the operating mode for the selected pins.
  86:../../Drivers/STM32F3xx_HAL_Driver/Inc/stm32f3xx_ll_gpio.h ****                               This parameter can be a value of @ref GPIO_LL_EC_MODE.
  87:../../Drivers/STM32F3xx_HAL_Driver/Inc/stm32f3xx_ll_gpio.h **** 
  88:../../Drivers/STM32F3xx_HAL_Driver/Inc/stm32f3xx_ll_gpio.h ****                               GPIO HW configuration can be modified afterwards using unitary functi
  89:../../Drivers/STM32F3xx_HAL_Driver/Inc/stm32f3xx_ll_gpio.h **** 
  90:../../Drivers/STM32F3xx_HAL_Driver/Inc/stm32f3xx_ll_gpio.h ****   uint32_t Speed;        /*!< Specifies the speed for the selected pins.
  91:../../Drivers/STM32F3xx_HAL_Driver/Inc/stm32f3xx_ll_gpio.h ****                               This parameter can be a value of @ref GPIO_LL_EC_SPEED.
  92:../../Drivers/STM32F3xx_HAL_Driver/Inc/stm32f3xx_ll_gpio.h **** 
  93:../../Drivers/STM32F3xx_HAL_Driver/Inc/stm32f3xx_ll_gpio.h ****                               GPIO HW configuration can be modified afterwards using unitary functi
  94:../../Drivers/STM32F3xx_HAL_Driver/Inc/stm32f3xx_ll_gpio.h **** 
  95:../../Drivers/STM32F3xx_HAL_Driver/Inc/stm32f3xx_ll_gpio.h ****   uint32_t OutputType;   /*!< Specifies the operating output type for the selected pins.
  96:../../Drivers/STM32F3xx_HAL_Driver/Inc/stm32f3xx_ll_gpio.h ****                               This parameter can be a value of @ref GPIO_LL_EC_OUTPUT.
  97:../../Drivers/STM32F3xx_HAL_Driver/Inc/stm32f3xx_ll_gpio.h **** 
  98:../../Drivers/STM32F3xx_HAL_Driver/Inc/stm32f3xx_ll_gpio.h ****                               GPIO HW configuration can be modified afterwards using unitary functi
  99:../../Drivers/STM32F3xx_HAL_Driver/Inc/stm32f3xx_ll_gpio.h **** 
 100:../../Drivers/STM32F3xx_HAL_Driver/Inc/stm32f3xx_ll_gpio.h ****   uint32_t Pull;         /*!< Specifies the operating Pull-up/Pull down for the selected pins.
 101:../../Drivers/STM32F3xx_HAL_Driver/Inc/stm32f3xx_ll_gpio.h ****                               This parameter can be a value of @ref GPIO_LL_EC_PULL.
 102:../../Drivers/STM32F3xx_HAL_Driver/Inc/stm32f3xx_ll_gpio.h **** 
 103:../../Drivers/STM32F3xx_HAL_Driver/Inc/stm32f3xx_ll_gpio.h ****                               GPIO HW configuration can be modified afterwards using unitary functi
 104:../../Drivers/STM32F3xx_HAL_Driver/Inc/stm32f3xx_ll_gpio.h **** 
 105:../../Drivers/STM32F3xx_HAL_Driver/Inc/stm32f3xx_ll_gpio.h ****   uint32_t Alternate;    /*!< Specifies the Peripheral to be connected to the selected pins.
 106:../../Drivers/STM32F3xx_HAL_Driver/Inc/stm32f3xx_ll_gpio.h ****                               This parameter can be a value of @ref GPIO_LL_EC_AF.
 107:../../Drivers/STM32F3xx_HAL_Driver/Inc/stm32f3xx_ll_gpio.h **** 
 108:../../Drivers/STM32F3xx_HAL_Driver/Inc/stm32f3xx_ll_gpio.h ****                               GPIO HW configuration can be modified afterwards using unitary functi
 109:../../Drivers/STM32F3xx_HAL_Driver/Inc/stm32f3xx_ll_gpio.h **** } LL_GPIO_InitTypeDef;
 110:../../Drivers/STM32F3xx_HAL_Driver/Inc/stm32f3xx_ll_gpio.h **** 
 111:../../Drivers/STM32F3xx_HAL_Driver/Inc/stm32f3xx_ll_gpio.h **** /**
 112:../../Drivers/STM32F3xx_HAL_Driver/Inc/stm32f3xx_ll_gpio.h ****   * @}
 113:../../Drivers/STM32F3xx_HAL_Driver/Inc/stm32f3xx_ll_gpio.h ****   */
 114:../../Drivers/STM32F3xx_HAL_Driver/Inc/stm32f3xx_ll_gpio.h **** #endif /* USE_FULL_LL_DRIVER */
 115:../../Drivers/STM32F3xx_HAL_Driver/Inc/stm32f3xx_ll_gpio.h **** 
 116:../../Drivers/STM32F3xx_HAL_Driver/Inc/stm32f3xx_ll_gpio.h **** /* Exported constants --------------------------------------------------------*/
 117:../../Drivers/STM32F3xx_HAL_Driver/Inc/stm32f3xx_ll_gpio.h **** /** @defgroup GPIO_LL_Exported_Constants GPIO Exported Constants
 118:../../Drivers/STM32F3xx_HAL_Driver/Inc/stm32f3xx_ll_gpio.h ****   * @{
 119:../../Drivers/STM32F3xx_HAL_Driver/Inc/stm32f3xx_ll_gpio.h ****   */
 120:../../Drivers/STM32F3xx_HAL_Driver/Inc/stm32f3xx_ll_gpio.h **** 
 121:../../Drivers/STM32F3xx_HAL_Driver/Inc/stm32f3xx_ll_gpio.h **** /** @defgroup GPIO_LL_EC_PIN PIN
 122:../../Drivers/STM32F3xx_HAL_Driver/Inc/stm32f3xx_ll_gpio.h ****   * @{
 123:../../Drivers/STM32F3xx_HAL_Driver/Inc/stm32f3xx_ll_gpio.h ****   */
 124:../../Drivers/STM32F3xx_HAL_Driver/Inc/stm32f3xx_ll_gpio.h **** #define LL_GPIO_PIN_0                      GPIO_BSRR_BS_0 /*!< Select pin 0 */
 125:../../Drivers/STM32F3xx_HAL_Driver/Inc/stm32f3xx_ll_gpio.h **** #define LL_GPIO_PIN_1                      GPIO_BSRR_BS_1 /*!< Select pin 1 */
 126:../../Drivers/STM32F3xx_HAL_Driver/Inc/stm32f3xx_ll_gpio.h **** #define LL_GPIO_PIN_2                      GPIO_BSRR_BS_2 /*!< Select pin 2 */
 127:../../Drivers/STM32F3xx_HAL_Driver/Inc/stm32f3xx_ll_gpio.h **** #define LL_GPIO_PIN_3                      GPIO_BSRR_BS_3 /*!< Select pin 3 */
 128:../../Drivers/STM32F3xx_HAL_Driver/Inc/stm32f3xx_ll_gpio.h **** #define LL_GPIO_PIN_4                      GPIO_BSRR_BS_4 /*!< Select pin 4 */
 129:../../Drivers/STM32F3xx_HAL_Driver/Inc/stm32f3xx_ll_gpio.h **** #define LL_GPIO_PIN_5                      GPIO_BSRR_BS_5 /*!< Select pin 5 */
 130:../../Drivers/STM32F3xx_HAL_Driver/Inc/stm32f3xx_ll_gpio.h **** #define LL_GPIO_PIN_6                      GPIO_BSRR_BS_6 /*!< Select pin 6 */
 131:../../Drivers/STM32F3xx_HAL_Driver/Inc/stm32f3xx_ll_gpio.h **** #define LL_GPIO_PIN_7                      GPIO_BSRR_BS_7 /*!< Select pin 7 */
 132:../../Drivers/STM32F3xx_HAL_Driver/Inc/stm32f3xx_ll_gpio.h **** #define LL_GPIO_PIN_8                      GPIO_BSRR_BS_8 /*!< Select pin 8 */
 133:../../Drivers/STM32F3xx_HAL_Driver/Inc/stm32f3xx_ll_gpio.h **** #define LL_GPIO_PIN_9                      GPIO_BSRR_BS_9 /*!< Select pin 9 */
 134:../../Drivers/STM32F3xx_HAL_Driver/Inc/stm32f3xx_ll_gpio.h **** #define LL_GPIO_PIN_10                     GPIO_BSRR_BS_10 /*!< Select pin 10 */
 135:../../Drivers/STM32F3xx_HAL_Driver/Inc/stm32f3xx_ll_gpio.h **** #define LL_GPIO_PIN_11                     GPIO_BSRR_BS_11 /*!< Select pin 11 */
 136:../../Drivers/STM32F3xx_HAL_Driver/Inc/stm32f3xx_ll_gpio.h **** #define LL_GPIO_PIN_12                     GPIO_BSRR_BS_12 /*!< Select pin 12 */
 137:../../Drivers/STM32F3xx_HAL_Driver/Inc/stm32f3xx_ll_gpio.h **** #define LL_GPIO_PIN_13                     GPIO_BSRR_BS_13 /*!< Select pin 13 */
 138:../../Drivers/STM32F3xx_HAL_Driver/Inc/stm32f3xx_ll_gpio.h **** #define LL_GPIO_PIN_14                     GPIO_BSRR_BS_14 /*!< Select pin 14 */
ARM GAS  /tmp/ccBBHnuc.s 			page 37


 139:../../Drivers/STM32F3xx_HAL_Driver/Inc/stm32f3xx_ll_gpio.h **** #define LL_GPIO_PIN_15                     GPIO_BSRR_BS_15 /*!< Select pin 15 */
 140:../../Drivers/STM32F3xx_HAL_Driver/Inc/stm32f3xx_ll_gpio.h **** #define LL_GPIO_PIN_ALL                    (GPIO_BSRR_BS_0 | GPIO_BSRR_BS_1  | GPIO_BSRR_BS_2  | \
 141:../../Drivers/STM32F3xx_HAL_Driver/Inc/stm32f3xx_ll_gpio.h ****                                            GPIO_BSRR_BS_3  | GPIO_BSRR_BS_4  | GPIO_BSRR_BS_5  | \
 142:../../Drivers/STM32F3xx_HAL_Driver/Inc/stm32f3xx_ll_gpio.h ****                                            GPIO_BSRR_BS_6  | GPIO_BSRR_BS_7  | GPIO_BSRR_BS_8  | \
 143:../../Drivers/STM32F3xx_HAL_Driver/Inc/stm32f3xx_ll_gpio.h ****                                            GPIO_BSRR_BS_9  | GPIO_BSRR_BS_10 | GPIO_BSRR_BS_11 | \
 144:../../Drivers/STM32F3xx_HAL_Driver/Inc/stm32f3xx_ll_gpio.h ****                                            GPIO_BSRR_BS_12 | GPIO_BSRR_BS_13 | GPIO_BSRR_BS_14 | \
 145:../../Drivers/STM32F3xx_HAL_Driver/Inc/stm32f3xx_ll_gpio.h ****                                            GPIO_BSRR_BS_15) /*!< Select all pins */
 146:../../Drivers/STM32F3xx_HAL_Driver/Inc/stm32f3xx_ll_gpio.h **** /**
 147:../../Drivers/STM32F3xx_HAL_Driver/Inc/stm32f3xx_ll_gpio.h ****   * @}
 148:../../Drivers/STM32F3xx_HAL_Driver/Inc/stm32f3xx_ll_gpio.h ****   */
 149:../../Drivers/STM32F3xx_HAL_Driver/Inc/stm32f3xx_ll_gpio.h **** 
 150:../../Drivers/STM32F3xx_HAL_Driver/Inc/stm32f3xx_ll_gpio.h **** /** @defgroup GPIO_LL_EC_MODE Mode
 151:../../Drivers/STM32F3xx_HAL_Driver/Inc/stm32f3xx_ll_gpio.h ****   * @{
 152:../../Drivers/STM32F3xx_HAL_Driver/Inc/stm32f3xx_ll_gpio.h ****   */
 153:../../Drivers/STM32F3xx_HAL_Driver/Inc/stm32f3xx_ll_gpio.h **** #define LL_GPIO_MODE_INPUT                 (0x00000000U) /*!< Select input mode */
 154:../../Drivers/STM32F3xx_HAL_Driver/Inc/stm32f3xx_ll_gpio.h **** #define LL_GPIO_MODE_OUTPUT                GPIO_MODER_MODER0_0  /*!< Select output mode */
 155:../../Drivers/STM32F3xx_HAL_Driver/Inc/stm32f3xx_ll_gpio.h **** #define LL_GPIO_MODE_ALTERNATE             GPIO_MODER_MODER0_1  /*!< Select alternate function mode
 156:../../Drivers/STM32F3xx_HAL_Driver/Inc/stm32f3xx_ll_gpio.h **** #define LL_GPIO_MODE_ANALOG                GPIO_MODER_MODER0    /*!< Select analog mode */
 157:../../Drivers/STM32F3xx_HAL_Driver/Inc/stm32f3xx_ll_gpio.h **** /**
 158:../../Drivers/STM32F3xx_HAL_Driver/Inc/stm32f3xx_ll_gpio.h ****   * @}
 159:../../Drivers/STM32F3xx_HAL_Driver/Inc/stm32f3xx_ll_gpio.h ****   */
 160:../../Drivers/STM32F3xx_HAL_Driver/Inc/stm32f3xx_ll_gpio.h **** 
 161:../../Drivers/STM32F3xx_HAL_Driver/Inc/stm32f3xx_ll_gpio.h **** /** @defgroup GPIO_LL_EC_OUTPUT Output Type
 162:../../Drivers/STM32F3xx_HAL_Driver/Inc/stm32f3xx_ll_gpio.h ****   * @{
 163:../../Drivers/STM32F3xx_HAL_Driver/Inc/stm32f3xx_ll_gpio.h ****   */
 164:../../Drivers/STM32F3xx_HAL_Driver/Inc/stm32f3xx_ll_gpio.h **** #define LL_GPIO_OUTPUT_PUSHPULL            (0x00000000U) /*!< Select push-pull as output type */
 165:../../Drivers/STM32F3xx_HAL_Driver/Inc/stm32f3xx_ll_gpio.h **** #define LL_GPIO_OUTPUT_OPENDRAIN           GPIO_OTYPER_OT_0 /*!< Select open-drain as output type *
 166:../../Drivers/STM32F3xx_HAL_Driver/Inc/stm32f3xx_ll_gpio.h **** /**
 167:../../Drivers/STM32F3xx_HAL_Driver/Inc/stm32f3xx_ll_gpio.h ****   * @}
 168:../../Drivers/STM32F3xx_HAL_Driver/Inc/stm32f3xx_ll_gpio.h ****   */
 169:../../Drivers/STM32F3xx_HAL_Driver/Inc/stm32f3xx_ll_gpio.h **** 
 170:../../Drivers/STM32F3xx_HAL_Driver/Inc/stm32f3xx_ll_gpio.h **** /** @defgroup GPIO_LL_EC_SPEED Output Speed
 171:../../Drivers/STM32F3xx_HAL_Driver/Inc/stm32f3xx_ll_gpio.h ****   * @{
 172:../../Drivers/STM32F3xx_HAL_Driver/Inc/stm32f3xx_ll_gpio.h ****   */
 173:../../Drivers/STM32F3xx_HAL_Driver/Inc/stm32f3xx_ll_gpio.h **** #define LL_GPIO_SPEED_FREQ_LOW             (0x00000000U) /*!< Select I/O low output speed    */
 174:../../Drivers/STM32F3xx_HAL_Driver/Inc/stm32f3xx_ll_gpio.h **** #define LL_GPIO_SPEED_FREQ_MEDIUM          GPIO_OSPEEDER_OSPEEDR0_0 /*!< Select I/O medium output s
 175:../../Drivers/STM32F3xx_HAL_Driver/Inc/stm32f3xx_ll_gpio.h **** #define LL_GPIO_SPEED_FREQ_HIGH            GPIO_OSPEEDER_OSPEEDR0   /*!< Select I/O high output spe
 176:../../Drivers/STM32F3xx_HAL_Driver/Inc/stm32f3xx_ll_gpio.h **** /**
 177:../../Drivers/STM32F3xx_HAL_Driver/Inc/stm32f3xx_ll_gpio.h ****   * @}
 178:../../Drivers/STM32F3xx_HAL_Driver/Inc/stm32f3xx_ll_gpio.h ****   */
 179:../../Drivers/STM32F3xx_HAL_Driver/Inc/stm32f3xx_ll_gpio.h **** 
 180:../../Drivers/STM32F3xx_HAL_Driver/Inc/stm32f3xx_ll_gpio.h **** /** @defgroup GPIO_LL_EC_PULL Pull Up Pull Down
 181:../../Drivers/STM32F3xx_HAL_Driver/Inc/stm32f3xx_ll_gpio.h ****   * @{
 182:../../Drivers/STM32F3xx_HAL_Driver/Inc/stm32f3xx_ll_gpio.h ****   */
 183:../../Drivers/STM32F3xx_HAL_Driver/Inc/stm32f3xx_ll_gpio.h **** #define LL_GPIO_PULL_NO                    (0x00000000U) /*!< Select I/O no pull */
 184:../../Drivers/STM32F3xx_HAL_Driver/Inc/stm32f3xx_ll_gpio.h **** #define LL_GPIO_PULL_UP                    GPIO_PUPDR_PUPDR0_0 /*!< Select I/O pull up */
 185:../../Drivers/STM32F3xx_HAL_Driver/Inc/stm32f3xx_ll_gpio.h **** #define LL_GPIO_PULL_DOWN                  GPIO_PUPDR_PUPDR0_1 /*!< Select I/O pull down */
 186:../../Drivers/STM32F3xx_HAL_Driver/Inc/stm32f3xx_ll_gpio.h **** /**
 187:../../Drivers/STM32F3xx_HAL_Driver/Inc/stm32f3xx_ll_gpio.h ****   * @}
 188:../../Drivers/STM32F3xx_HAL_Driver/Inc/stm32f3xx_ll_gpio.h ****   */
 189:../../Drivers/STM32F3xx_HAL_Driver/Inc/stm32f3xx_ll_gpio.h **** 
 190:../../Drivers/STM32F3xx_HAL_Driver/Inc/stm32f3xx_ll_gpio.h **** /** @defgroup GPIO_LL_EC_AF Alternate Function
 191:../../Drivers/STM32F3xx_HAL_Driver/Inc/stm32f3xx_ll_gpio.h ****   * @{
 192:../../Drivers/STM32F3xx_HAL_Driver/Inc/stm32f3xx_ll_gpio.h ****   */
 193:../../Drivers/STM32F3xx_HAL_Driver/Inc/stm32f3xx_ll_gpio.h **** #define LL_GPIO_AF_0                       (0x0000000U) /*!< Select alternate function 0 */
 194:../../Drivers/STM32F3xx_HAL_Driver/Inc/stm32f3xx_ll_gpio.h **** #define LL_GPIO_AF_1                       (0x0000001U) /*!< Select alternate function 1 */
 195:../../Drivers/STM32F3xx_HAL_Driver/Inc/stm32f3xx_ll_gpio.h **** #define LL_GPIO_AF_2                       (0x0000002U) /*!< Select alternate function 2 */
ARM GAS  /tmp/ccBBHnuc.s 			page 38


 196:../../Drivers/STM32F3xx_HAL_Driver/Inc/stm32f3xx_ll_gpio.h **** #define LL_GPIO_AF_3                       (0x0000003U) /*!< Select alternate function 3 */
 197:../../Drivers/STM32F3xx_HAL_Driver/Inc/stm32f3xx_ll_gpio.h **** #define LL_GPIO_AF_4                       (0x0000004U) /*!< Select alternate function 4 */
 198:../../Drivers/STM32F3xx_HAL_Driver/Inc/stm32f3xx_ll_gpio.h **** #define LL_GPIO_AF_5                       (0x0000005U) /*!< Select alternate function 5 */
 199:../../Drivers/STM32F3xx_HAL_Driver/Inc/stm32f3xx_ll_gpio.h **** #define LL_GPIO_AF_6                       (0x0000006U) /*!< Select alternate function 6 */
 200:../../Drivers/STM32F3xx_HAL_Driver/Inc/stm32f3xx_ll_gpio.h **** #define LL_GPIO_AF_7                       (0x0000007U) /*!< Select alternate function 7 */
 201:../../Drivers/STM32F3xx_HAL_Driver/Inc/stm32f3xx_ll_gpio.h **** #define LL_GPIO_AF_8                       (0x0000008U) /*!< Select alternate function 8 */
 202:../../Drivers/STM32F3xx_HAL_Driver/Inc/stm32f3xx_ll_gpio.h **** #define LL_GPIO_AF_9                       (0x0000009U) /*!< Select alternate function 9 */
 203:../../Drivers/STM32F3xx_HAL_Driver/Inc/stm32f3xx_ll_gpio.h **** #define LL_GPIO_AF_10                      (0x000000AU) /*!< Select alternate function 10 */
 204:../../Drivers/STM32F3xx_HAL_Driver/Inc/stm32f3xx_ll_gpio.h **** #define LL_GPIO_AF_11                      (0x000000BU) /*!< Select alternate function 11 */
 205:../../Drivers/STM32F3xx_HAL_Driver/Inc/stm32f3xx_ll_gpio.h **** #define LL_GPIO_AF_12                      (0x000000CU) /*!< Select alternate function 12 */
 206:../../Drivers/STM32F3xx_HAL_Driver/Inc/stm32f3xx_ll_gpio.h **** #define LL_GPIO_AF_13                      (0x000000DU) /*!< Select alternate function 13 */
 207:../../Drivers/STM32F3xx_HAL_Driver/Inc/stm32f3xx_ll_gpio.h **** #define LL_GPIO_AF_14                      (0x000000EU) /*!< Select alternate function 14 */
 208:../../Drivers/STM32F3xx_HAL_Driver/Inc/stm32f3xx_ll_gpio.h **** #define LL_GPIO_AF_15                      (0x000000FU) /*!< Select alternate function 15 */
 209:../../Drivers/STM32F3xx_HAL_Driver/Inc/stm32f3xx_ll_gpio.h **** /**
 210:../../Drivers/STM32F3xx_HAL_Driver/Inc/stm32f3xx_ll_gpio.h ****   * @}
 211:../../Drivers/STM32F3xx_HAL_Driver/Inc/stm32f3xx_ll_gpio.h ****   */
 212:../../Drivers/STM32F3xx_HAL_Driver/Inc/stm32f3xx_ll_gpio.h **** 
 213:../../Drivers/STM32F3xx_HAL_Driver/Inc/stm32f3xx_ll_gpio.h **** /**
 214:../../Drivers/STM32F3xx_HAL_Driver/Inc/stm32f3xx_ll_gpio.h ****   * @}
 215:../../Drivers/STM32F3xx_HAL_Driver/Inc/stm32f3xx_ll_gpio.h ****   */
 216:../../Drivers/STM32F3xx_HAL_Driver/Inc/stm32f3xx_ll_gpio.h **** 
 217:../../Drivers/STM32F3xx_HAL_Driver/Inc/stm32f3xx_ll_gpio.h **** /* Exported macro ------------------------------------------------------------*/
 218:../../Drivers/STM32F3xx_HAL_Driver/Inc/stm32f3xx_ll_gpio.h **** /** @defgroup GPIO_LL_Exported_Macros GPIO Exported Macros
 219:../../Drivers/STM32F3xx_HAL_Driver/Inc/stm32f3xx_ll_gpio.h ****   * @{
 220:../../Drivers/STM32F3xx_HAL_Driver/Inc/stm32f3xx_ll_gpio.h ****   */
 221:../../Drivers/STM32F3xx_HAL_Driver/Inc/stm32f3xx_ll_gpio.h **** 
 222:../../Drivers/STM32F3xx_HAL_Driver/Inc/stm32f3xx_ll_gpio.h **** /** @defgroup GPIO_LL_EM_WRITE_READ Common Write and read registers Macros
 223:../../Drivers/STM32F3xx_HAL_Driver/Inc/stm32f3xx_ll_gpio.h ****   * @{
 224:../../Drivers/STM32F3xx_HAL_Driver/Inc/stm32f3xx_ll_gpio.h ****   */
 225:../../Drivers/STM32F3xx_HAL_Driver/Inc/stm32f3xx_ll_gpio.h **** 
 226:../../Drivers/STM32F3xx_HAL_Driver/Inc/stm32f3xx_ll_gpio.h **** /**
 227:../../Drivers/STM32F3xx_HAL_Driver/Inc/stm32f3xx_ll_gpio.h ****   * @brief  Write a value in GPIO register
 228:../../Drivers/STM32F3xx_HAL_Driver/Inc/stm32f3xx_ll_gpio.h ****   * @param  __INSTANCE__ GPIO Instance
 229:../../Drivers/STM32F3xx_HAL_Driver/Inc/stm32f3xx_ll_gpio.h ****   * @param  __REG__ Register to be written
 230:../../Drivers/STM32F3xx_HAL_Driver/Inc/stm32f3xx_ll_gpio.h ****   * @param  __VALUE__ Value to be written in the register
 231:../../Drivers/STM32F3xx_HAL_Driver/Inc/stm32f3xx_ll_gpio.h ****   * @retval None
 232:../../Drivers/STM32F3xx_HAL_Driver/Inc/stm32f3xx_ll_gpio.h ****   */
 233:../../Drivers/STM32F3xx_HAL_Driver/Inc/stm32f3xx_ll_gpio.h **** #define LL_GPIO_WriteReg(__INSTANCE__, __REG__, __VALUE__) WRITE_REG(__INSTANCE__->__REG__, (__VALU
 234:../../Drivers/STM32F3xx_HAL_Driver/Inc/stm32f3xx_ll_gpio.h **** 
 235:../../Drivers/STM32F3xx_HAL_Driver/Inc/stm32f3xx_ll_gpio.h **** /**
 236:../../Drivers/STM32F3xx_HAL_Driver/Inc/stm32f3xx_ll_gpio.h ****   * @brief  Read a value in GPIO register
 237:../../Drivers/STM32F3xx_HAL_Driver/Inc/stm32f3xx_ll_gpio.h ****   * @param  __INSTANCE__ GPIO Instance
 238:../../Drivers/STM32F3xx_HAL_Driver/Inc/stm32f3xx_ll_gpio.h ****   * @param  __REG__ Register to be read
 239:../../Drivers/STM32F3xx_HAL_Driver/Inc/stm32f3xx_ll_gpio.h ****   * @retval Register value
 240:../../Drivers/STM32F3xx_HAL_Driver/Inc/stm32f3xx_ll_gpio.h ****   */
 241:../../Drivers/STM32F3xx_HAL_Driver/Inc/stm32f3xx_ll_gpio.h **** #define LL_GPIO_ReadReg(__INSTANCE__, __REG__) READ_REG(__INSTANCE__->__REG__)
 242:../../Drivers/STM32F3xx_HAL_Driver/Inc/stm32f3xx_ll_gpio.h **** /**
 243:../../Drivers/STM32F3xx_HAL_Driver/Inc/stm32f3xx_ll_gpio.h ****   * @}
 244:../../Drivers/STM32F3xx_HAL_Driver/Inc/stm32f3xx_ll_gpio.h ****   */
 245:../../Drivers/STM32F3xx_HAL_Driver/Inc/stm32f3xx_ll_gpio.h **** 
 246:../../Drivers/STM32F3xx_HAL_Driver/Inc/stm32f3xx_ll_gpio.h **** /**
 247:../../Drivers/STM32F3xx_HAL_Driver/Inc/stm32f3xx_ll_gpio.h ****   * @}
 248:../../Drivers/STM32F3xx_HAL_Driver/Inc/stm32f3xx_ll_gpio.h ****   */
 249:../../Drivers/STM32F3xx_HAL_Driver/Inc/stm32f3xx_ll_gpio.h **** 
 250:../../Drivers/STM32F3xx_HAL_Driver/Inc/stm32f3xx_ll_gpio.h **** /* Exported functions --------------------------------------------------------*/
 251:../../Drivers/STM32F3xx_HAL_Driver/Inc/stm32f3xx_ll_gpio.h **** /** @defgroup GPIO_LL_Exported_Functions GPIO Exported Functions
 252:../../Drivers/STM32F3xx_HAL_Driver/Inc/stm32f3xx_ll_gpio.h ****   * @{
ARM GAS  /tmp/ccBBHnuc.s 			page 39


 253:../../Drivers/STM32F3xx_HAL_Driver/Inc/stm32f3xx_ll_gpio.h ****   */
 254:../../Drivers/STM32F3xx_HAL_Driver/Inc/stm32f3xx_ll_gpio.h **** 
 255:../../Drivers/STM32F3xx_HAL_Driver/Inc/stm32f3xx_ll_gpio.h **** /** @defgroup GPIO_LL_EF_Port_Configuration Port Configuration
 256:../../Drivers/STM32F3xx_HAL_Driver/Inc/stm32f3xx_ll_gpio.h ****   * @{
 257:../../Drivers/STM32F3xx_HAL_Driver/Inc/stm32f3xx_ll_gpio.h ****   */
 258:../../Drivers/STM32F3xx_HAL_Driver/Inc/stm32f3xx_ll_gpio.h **** 
 259:../../Drivers/STM32F3xx_HAL_Driver/Inc/stm32f3xx_ll_gpio.h **** /**
 260:../../Drivers/STM32F3xx_HAL_Driver/Inc/stm32f3xx_ll_gpio.h ****   * @brief  Configure gpio mode for a dedicated pin on dedicated port.
 261:../../Drivers/STM32F3xx_HAL_Driver/Inc/stm32f3xx_ll_gpio.h ****   * @note   I/O mode can be Input mode, General purpose output, Alternate function mode or Analog.
 262:../../Drivers/STM32F3xx_HAL_Driver/Inc/stm32f3xx_ll_gpio.h ****   * @note   Warning: only one pin can be passed as parameter.
 263:../../Drivers/STM32F3xx_HAL_Driver/Inc/stm32f3xx_ll_gpio.h ****   * @rmtoll MODER        MODEy         LL_GPIO_SetPinMode
 264:../../Drivers/STM32F3xx_HAL_Driver/Inc/stm32f3xx_ll_gpio.h ****   * @param  GPIOx GPIO Port
 265:../../Drivers/STM32F3xx_HAL_Driver/Inc/stm32f3xx_ll_gpio.h ****   * @param  Pin This parameter can be one of the following values:
 266:../../Drivers/STM32F3xx_HAL_Driver/Inc/stm32f3xx_ll_gpio.h ****   *         @arg @ref LL_GPIO_PIN_0
 267:../../Drivers/STM32F3xx_HAL_Driver/Inc/stm32f3xx_ll_gpio.h ****   *         @arg @ref LL_GPIO_PIN_1
 268:../../Drivers/STM32F3xx_HAL_Driver/Inc/stm32f3xx_ll_gpio.h ****   *         @arg @ref LL_GPIO_PIN_2
 269:../../Drivers/STM32F3xx_HAL_Driver/Inc/stm32f3xx_ll_gpio.h ****   *         @arg @ref LL_GPIO_PIN_3
 270:../../Drivers/STM32F3xx_HAL_Driver/Inc/stm32f3xx_ll_gpio.h ****   *         @arg @ref LL_GPIO_PIN_4
 271:../../Drivers/STM32F3xx_HAL_Driver/Inc/stm32f3xx_ll_gpio.h ****   *         @arg @ref LL_GPIO_PIN_5
 272:../../Drivers/STM32F3xx_HAL_Driver/Inc/stm32f3xx_ll_gpio.h ****   *         @arg @ref LL_GPIO_PIN_6
 273:../../Drivers/STM32F3xx_HAL_Driver/Inc/stm32f3xx_ll_gpio.h ****   *         @arg @ref LL_GPIO_PIN_7
 274:../../Drivers/STM32F3xx_HAL_Driver/Inc/stm32f3xx_ll_gpio.h ****   *         @arg @ref LL_GPIO_PIN_8
 275:../../Drivers/STM32F3xx_HAL_Driver/Inc/stm32f3xx_ll_gpio.h ****   *         @arg @ref LL_GPIO_PIN_9
 276:../../Drivers/STM32F3xx_HAL_Driver/Inc/stm32f3xx_ll_gpio.h ****   *         @arg @ref LL_GPIO_PIN_10
 277:../../Drivers/STM32F3xx_HAL_Driver/Inc/stm32f3xx_ll_gpio.h ****   *         @arg @ref LL_GPIO_PIN_11
 278:../../Drivers/STM32F3xx_HAL_Driver/Inc/stm32f3xx_ll_gpio.h ****   *         @arg @ref LL_GPIO_PIN_12
 279:../../Drivers/STM32F3xx_HAL_Driver/Inc/stm32f3xx_ll_gpio.h ****   *         @arg @ref LL_GPIO_PIN_13
 280:../../Drivers/STM32F3xx_HAL_Driver/Inc/stm32f3xx_ll_gpio.h ****   *         @arg @ref LL_GPIO_PIN_14
 281:../../Drivers/STM32F3xx_HAL_Driver/Inc/stm32f3xx_ll_gpio.h ****   *         @arg @ref LL_GPIO_PIN_15
 282:../../Drivers/STM32F3xx_HAL_Driver/Inc/stm32f3xx_ll_gpio.h ****   * @param  Mode This parameter can be one of the following values:
 283:../../Drivers/STM32F3xx_HAL_Driver/Inc/stm32f3xx_ll_gpio.h ****   *         @arg @ref LL_GPIO_MODE_INPUT
 284:../../Drivers/STM32F3xx_HAL_Driver/Inc/stm32f3xx_ll_gpio.h ****   *         @arg @ref LL_GPIO_MODE_OUTPUT
 285:../../Drivers/STM32F3xx_HAL_Driver/Inc/stm32f3xx_ll_gpio.h ****   *         @arg @ref LL_GPIO_MODE_ALTERNATE
 286:../../Drivers/STM32F3xx_HAL_Driver/Inc/stm32f3xx_ll_gpio.h ****   *         @arg @ref LL_GPIO_MODE_ANALOG
 287:../../Drivers/STM32F3xx_HAL_Driver/Inc/stm32f3xx_ll_gpio.h ****   * @retval None
 288:../../Drivers/STM32F3xx_HAL_Driver/Inc/stm32f3xx_ll_gpio.h ****   */
 289:../../Drivers/STM32F3xx_HAL_Driver/Inc/stm32f3xx_ll_gpio.h **** __STATIC_INLINE void LL_GPIO_SetPinMode(GPIO_TypeDef *GPIOx, uint32_t Pin, uint32_t Mode)
 290:../../Drivers/STM32F3xx_HAL_Driver/Inc/stm32f3xx_ll_gpio.h **** {
 142              		.loc 3 290 0
 143              		.cfi_startproc
 144              		@ args = 0, pretend = 0, frame = 32
 145              		@ frame_needed = 1, uses_anonymous_args = 0
 146              		@ link register save eliminated.
 147 0000 80B4     		push	{r7}
 148              	.LCFI12:
 149              		.cfi_def_cfa_offset 4
 150              		.cfi_offset 7, -4
 151 0002 89B0     		sub	sp, sp, #36
 152              	.LCFI13:
 153              		.cfi_def_cfa_offset 40
 154 0004 00AF     		add	r7, sp, #0
 155              	.LCFI14:
 156              		.cfi_def_cfa_register 7
 157 0006 F860     		str	r0, [r7, #12]
 158 0008 B960     		str	r1, [r7, #8]
 159 000a 7A60     		str	r2, [r7, #4]
 291:../../Drivers/STM32F3xx_HAL_Driver/Inc/stm32f3xx_ll_gpio.h ****   MODIFY_REG(GPIOx->MODER, (GPIO_MODER_MODER0 << (POSITION_VAL(Pin) * 2U)), (Mode << (POSITION_VAL(
ARM GAS  /tmp/ccBBHnuc.s 			page 40


 160              		.loc 3 291 0
 161 000c FB68     		ldr	r3, [r7, #12]
 162 000e 1A68     		ldr	r2, [r3]
 163 0010 BB68     		ldr	r3, [r7, #8]
 164 0012 FB61     		str	r3, [r7, #28]
 165              	.LBB18:
 166              	.LBB19:
 167              		.file 4 "../../Drivers/CMSIS/Include/cmsis_gcc.h"
   1:../../Drivers/CMSIS/Include/cmsis_gcc.h **** /**************************************************************************//**
   2:../../Drivers/CMSIS/Include/cmsis_gcc.h ****  * @file     cmsis_gcc.h
   3:../../Drivers/CMSIS/Include/cmsis_gcc.h ****  * @brief    CMSIS Cortex-M Core Function/Instruction Header File
   4:../../Drivers/CMSIS/Include/cmsis_gcc.h ****  * @version  V4.30
   5:../../Drivers/CMSIS/Include/cmsis_gcc.h ****  * @date     20. October 2015
   6:../../Drivers/CMSIS/Include/cmsis_gcc.h ****  ******************************************************************************/
   7:../../Drivers/CMSIS/Include/cmsis_gcc.h **** /* Copyright (c) 2009 - 2015 ARM LIMITED
   8:../../Drivers/CMSIS/Include/cmsis_gcc.h **** 
   9:../../Drivers/CMSIS/Include/cmsis_gcc.h ****    All rights reserved.
  10:../../Drivers/CMSIS/Include/cmsis_gcc.h ****    Redistribution and use in source and binary forms, with or without
  11:../../Drivers/CMSIS/Include/cmsis_gcc.h ****    modification, are permitted provided that the following conditions are met:
  12:../../Drivers/CMSIS/Include/cmsis_gcc.h ****    - Redistributions of source code must retain the above copyright
  13:../../Drivers/CMSIS/Include/cmsis_gcc.h ****      notice, this list of conditions and the following disclaimer.
  14:../../Drivers/CMSIS/Include/cmsis_gcc.h ****    - Redistributions in binary form must reproduce the above copyright
  15:../../Drivers/CMSIS/Include/cmsis_gcc.h ****      notice, this list of conditions and the following disclaimer in the
  16:../../Drivers/CMSIS/Include/cmsis_gcc.h ****      documentation and/or other materials provided with the distribution.
  17:../../Drivers/CMSIS/Include/cmsis_gcc.h ****    - Neither the name of ARM nor the names of its contributors may be used
  18:../../Drivers/CMSIS/Include/cmsis_gcc.h ****      to endorse or promote products derived from this software without
  19:../../Drivers/CMSIS/Include/cmsis_gcc.h ****      specific prior written permission.
  20:../../Drivers/CMSIS/Include/cmsis_gcc.h ****    *
  21:../../Drivers/CMSIS/Include/cmsis_gcc.h ****    THIS SOFTWARE IS PROVIDED BY THE COPYRIGHT HOLDERS AND CONTRIBUTORS "AS IS"
  22:../../Drivers/CMSIS/Include/cmsis_gcc.h ****    AND ANY EXPRESS OR IMPLIED WARRANTIES, INCLUDING, BUT NOT LIMITED TO, THE
  23:../../Drivers/CMSIS/Include/cmsis_gcc.h ****    IMPLIED WARRANTIES OF MERCHANTABILITY AND FITNESS FOR A PARTICULAR PURPOSE
  24:../../Drivers/CMSIS/Include/cmsis_gcc.h ****    ARE DISCLAIMED. IN NO EVENT SHALL COPYRIGHT HOLDERS AND CONTRIBUTORS BE
  25:../../Drivers/CMSIS/Include/cmsis_gcc.h ****    LIABLE FOR ANY DIRECT, INDIRECT, INCIDENTAL, SPECIAL, EXEMPLARY, OR
  26:../../Drivers/CMSIS/Include/cmsis_gcc.h ****    CONSEQUENTIAL DAMAGES (INCLUDING, BUT NOT LIMITED TO, PROCUREMENT OF
  27:../../Drivers/CMSIS/Include/cmsis_gcc.h ****    SUBSTITUTE GOODS OR SERVICES; LOSS OF USE, DATA, OR PROFITS; OR BUSINESS
  28:../../Drivers/CMSIS/Include/cmsis_gcc.h ****    INTERRUPTION) HOWEVER CAUSED AND ON ANY THEORY OF LIABILITY, WHETHER IN
  29:../../Drivers/CMSIS/Include/cmsis_gcc.h ****    CONTRACT, STRICT LIABILITY, OR TORT (INCLUDING NEGLIGENCE OR OTHERWISE)
  30:../../Drivers/CMSIS/Include/cmsis_gcc.h ****    ARISING IN ANY WAY OUT OF THE USE OF THIS SOFTWARE, EVEN IF ADVISED OF THE
  31:../../Drivers/CMSIS/Include/cmsis_gcc.h ****    POSSIBILITY OF SUCH DAMAGE.
  32:../../Drivers/CMSIS/Include/cmsis_gcc.h ****    ---------------------------------------------------------------------------*/
  33:../../Drivers/CMSIS/Include/cmsis_gcc.h **** 
  34:../../Drivers/CMSIS/Include/cmsis_gcc.h **** 
  35:../../Drivers/CMSIS/Include/cmsis_gcc.h **** #ifndef __CMSIS_GCC_H
  36:../../Drivers/CMSIS/Include/cmsis_gcc.h **** #define __CMSIS_GCC_H
  37:../../Drivers/CMSIS/Include/cmsis_gcc.h **** 
  38:../../Drivers/CMSIS/Include/cmsis_gcc.h **** /* ignore some GCC warnings */
  39:../../Drivers/CMSIS/Include/cmsis_gcc.h **** #if defined ( __GNUC__ )
  40:../../Drivers/CMSIS/Include/cmsis_gcc.h **** #pragma GCC diagnostic push
  41:../../Drivers/CMSIS/Include/cmsis_gcc.h **** #pragma GCC diagnostic ignored "-Wsign-conversion"
  42:../../Drivers/CMSIS/Include/cmsis_gcc.h **** #pragma GCC diagnostic ignored "-Wconversion"
  43:../../Drivers/CMSIS/Include/cmsis_gcc.h **** #pragma GCC diagnostic ignored "-Wunused-parameter"
  44:../../Drivers/CMSIS/Include/cmsis_gcc.h **** #endif
  45:../../Drivers/CMSIS/Include/cmsis_gcc.h **** 
  46:../../Drivers/CMSIS/Include/cmsis_gcc.h **** 
  47:../../Drivers/CMSIS/Include/cmsis_gcc.h **** /* ###########################  Core Function Access  ########################### */
  48:../../Drivers/CMSIS/Include/cmsis_gcc.h **** /** \ingroup  CMSIS_Core_FunctionInterface
  49:../../Drivers/CMSIS/Include/cmsis_gcc.h ****     \defgroup CMSIS_Core_RegAccFunctions CMSIS Core Register Access Functions
ARM GAS  /tmp/ccBBHnuc.s 			page 41


  50:../../Drivers/CMSIS/Include/cmsis_gcc.h ****   @{
  51:../../Drivers/CMSIS/Include/cmsis_gcc.h ****  */
  52:../../Drivers/CMSIS/Include/cmsis_gcc.h **** 
  53:../../Drivers/CMSIS/Include/cmsis_gcc.h **** /**
  54:../../Drivers/CMSIS/Include/cmsis_gcc.h ****   \brief   Enable IRQ Interrupts
  55:../../Drivers/CMSIS/Include/cmsis_gcc.h ****   \details Enables IRQ interrupts by clearing the I-bit in the CPSR.
  56:../../Drivers/CMSIS/Include/cmsis_gcc.h ****            Can only be executed in Privileged modes.
  57:../../Drivers/CMSIS/Include/cmsis_gcc.h ****  */
  58:../../Drivers/CMSIS/Include/cmsis_gcc.h **** __attribute__( ( always_inline ) ) __STATIC_INLINE void __enable_irq(void)
  59:../../Drivers/CMSIS/Include/cmsis_gcc.h **** {
  60:../../Drivers/CMSIS/Include/cmsis_gcc.h ****   __ASM volatile ("cpsie i" : : : "memory");
  61:../../Drivers/CMSIS/Include/cmsis_gcc.h **** }
  62:../../Drivers/CMSIS/Include/cmsis_gcc.h **** 
  63:../../Drivers/CMSIS/Include/cmsis_gcc.h **** 
  64:../../Drivers/CMSIS/Include/cmsis_gcc.h **** /**
  65:../../Drivers/CMSIS/Include/cmsis_gcc.h ****   \brief   Disable IRQ Interrupts
  66:../../Drivers/CMSIS/Include/cmsis_gcc.h ****   \details Disables IRQ interrupts by setting the I-bit in the CPSR.
  67:../../Drivers/CMSIS/Include/cmsis_gcc.h ****   Can only be executed in Privileged modes.
  68:../../Drivers/CMSIS/Include/cmsis_gcc.h ****  */
  69:../../Drivers/CMSIS/Include/cmsis_gcc.h **** __attribute__( ( always_inline ) ) __STATIC_INLINE void __disable_irq(void)
  70:../../Drivers/CMSIS/Include/cmsis_gcc.h **** {
  71:../../Drivers/CMSIS/Include/cmsis_gcc.h ****   __ASM volatile ("cpsid i" : : : "memory");
  72:../../Drivers/CMSIS/Include/cmsis_gcc.h **** }
  73:../../Drivers/CMSIS/Include/cmsis_gcc.h **** 
  74:../../Drivers/CMSIS/Include/cmsis_gcc.h **** 
  75:../../Drivers/CMSIS/Include/cmsis_gcc.h **** /**
  76:../../Drivers/CMSIS/Include/cmsis_gcc.h ****   \brief   Get Control Register
  77:../../Drivers/CMSIS/Include/cmsis_gcc.h ****   \details Returns the content of the Control Register.
  78:../../Drivers/CMSIS/Include/cmsis_gcc.h ****   \return               Control Register value
  79:../../Drivers/CMSIS/Include/cmsis_gcc.h ****  */
  80:../../Drivers/CMSIS/Include/cmsis_gcc.h **** __attribute__( ( always_inline ) ) __STATIC_INLINE uint32_t __get_CONTROL(void)
  81:../../Drivers/CMSIS/Include/cmsis_gcc.h **** {
  82:../../Drivers/CMSIS/Include/cmsis_gcc.h ****   uint32_t result;
  83:../../Drivers/CMSIS/Include/cmsis_gcc.h **** 
  84:../../Drivers/CMSIS/Include/cmsis_gcc.h ****   __ASM volatile ("MRS %0, control" : "=r" (result) );
  85:../../Drivers/CMSIS/Include/cmsis_gcc.h ****   return(result);
  86:../../Drivers/CMSIS/Include/cmsis_gcc.h **** }
  87:../../Drivers/CMSIS/Include/cmsis_gcc.h **** 
  88:../../Drivers/CMSIS/Include/cmsis_gcc.h **** 
  89:../../Drivers/CMSIS/Include/cmsis_gcc.h **** /**
  90:../../Drivers/CMSIS/Include/cmsis_gcc.h ****   \brief   Set Control Register
  91:../../Drivers/CMSIS/Include/cmsis_gcc.h ****   \details Writes the given value to the Control Register.
  92:../../Drivers/CMSIS/Include/cmsis_gcc.h ****   \param [in]    control  Control Register value to set
  93:../../Drivers/CMSIS/Include/cmsis_gcc.h ****  */
  94:../../Drivers/CMSIS/Include/cmsis_gcc.h **** __attribute__( ( always_inline ) ) __STATIC_INLINE void __set_CONTROL(uint32_t control)
  95:../../Drivers/CMSIS/Include/cmsis_gcc.h **** {
  96:../../Drivers/CMSIS/Include/cmsis_gcc.h ****   __ASM volatile ("MSR control, %0" : : "r" (control) : "memory");
  97:../../Drivers/CMSIS/Include/cmsis_gcc.h **** }
  98:../../Drivers/CMSIS/Include/cmsis_gcc.h **** 
  99:../../Drivers/CMSIS/Include/cmsis_gcc.h **** 
 100:../../Drivers/CMSIS/Include/cmsis_gcc.h **** /**
 101:../../Drivers/CMSIS/Include/cmsis_gcc.h ****   \brief   Get IPSR Register
 102:../../Drivers/CMSIS/Include/cmsis_gcc.h ****   \details Returns the content of the IPSR Register.
 103:../../Drivers/CMSIS/Include/cmsis_gcc.h ****   \return               IPSR Register value
 104:../../Drivers/CMSIS/Include/cmsis_gcc.h ****  */
 105:../../Drivers/CMSIS/Include/cmsis_gcc.h **** __attribute__( ( always_inline ) ) __STATIC_INLINE uint32_t __get_IPSR(void)
 106:../../Drivers/CMSIS/Include/cmsis_gcc.h **** {
ARM GAS  /tmp/ccBBHnuc.s 			page 42


 107:../../Drivers/CMSIS/Include/cmsis_gcc.h ****   uint32_t result;
 108:../../Drivers/CMSIS/Include/cmsis_gcc.h **** 
 109:../../Drivers/CMSIS/Include/cmsis_gcc.h ****   __ASM volatile ("MRS %0, ipsr" : "=r" (result) );
 110:../../Drivers/CMSIS/Include/cmsis_gcc.h ****   return(result);
 111:../../Drivers/CMSIS/Include/cmsis_gcc.h **** }
 112:../../Drivers/CMSIS/Include/cmsis_gcc.h **** 
 113:../../Drivers/CMSIS/Include/cmsis_gcc.h **** 
 114:../../Drivers/CMSIS/Include/cmsis_gcc.h **** /**
 115:../../Drivers/CMSIS/Include/cmsis_gcc.h ****   \brief   Get APSR Register
 116:../../Drivers/CMSIS/Include/cmsis_gcc.h ****   \details Returns the content of the APSR Register.
 117:../../Drivers/CMSIS/Include/cmsis_gcc.h ****   \return               APSR Register value
 118:../../Drivers/CMSIS/Include/cmsis_gcc.h ****  */
 119:../../Drivers/CMSIS/Include/cmsis_gcc.h **** __attribute__( ( always_inline ) ) __STATIC_INLINE uint32_t __get_APSR(void)
 120:../../Drivers/CMSIS/Include/cmsis_gcc.h **** {
 121:../../Drivers/CMSIS/Include/cmsis_gcc.h ****   uint32_t result;
 122:../../Drivers/CMSIS/Include/cmsis_gcc.h **** 
 123:../../Drivers/CMSIS/Include/cmsis_gcc.h ****   __ASM volatile ("MRS %0, apsr" : "=r" (result) );
 124:../../Drivers/CMSIS/Include/cmsis_gcc.h ****   return(result);
 125:../../Drivers/CMSIS/Include/cmsis_gcc.h **** }
 126:../../Drivers/CMSIS/Include/cmsis_gcc.h **** 
 127:../../Drivers/CMSIS/Include/cmsis_gcc.h **** 
 128:../../Drivers/CMSIS/Include/cmsis_gcc.h **** /**
 129:../../Drivers/CMSIS/Include/cmsis_gcc.h ****   \brief   Get xPSR Register
 130:../../Drivers/CMSIS/Include/cmsis_gcc.h ****   \details Returns the content of the xPSR Register.
 131:../../Drivers/CMSIS/Include/cmsis_gcc.h **** 
 132:../../Drivers/CMSIS/Include/cmsis_gcc.h ****     \return               xPSR Register value
 133:../../Drivers/CMSIS/Include/cmsis_gcc.h ****  */
 134:../../Drivers/CMSIS/Include/cmsis_gcc.h **** __attribute__( ( always_inline ) ) __STATIC_INLINE uint32_t __get_xPSR(void)
 135:../../Drivers/CMSIS/Include/cmsis_gcc.h **** {
 136:../../Drivers/CMSIS/Include/cmsis_gcc.h ****   uint32_t result;
 137:../../Drivers/CMSIS/Include/cmsis_gcc.h **** 
 138:../../Drivers/CMSIS/Include/cmsis_gcc.h ****   __ASM volatile ("MRS %0, xpsr" : "=r" (result) );
 139:../../Drivers/CMSIS/Include/cmsis_gcc.h ****   return(result);
 140:../../Drivers/CMSIS/Include/cmsis_gcc.h **** }
 141:../../Drivers/CMSIS/Include/cmsis_gcc.h **** 
 142:../../Drivers/CMSIS/Include/cmsis_gcc.h **** 
 143:../../Drivers/CMSIS/Include/cmsis_gcc.h **** /**
 144:../../Drivers/CMSIS/Include/cmsis_gcc.h ****   \brief   Get Process Stack Pointer
 145:../../Drivers/CMSIS/Include/cmsis_gcc.h ****   \details Returns the current value of the Process Stack Pointer (PSP).
 146:../../Drivers/CMSIS/Include/cmsis_gcc.h ****   \return               PSP Register value
 147:../../Drivers/CMSIS/Include/cmsis_gcc.h ****  */
 148:../../Drivers/CMSIS/Include/cmsis_gcc.h **** __attribute__( ( always_inline ) ) __STATIC_INLINE uint32_t __get_PSP(void)
 149:../../Drivers/CMSIS/Include/cmsis_gcc.h **** {
 150:../../Drivers/CMSIS/Include/cmsis_gcc.h ****   register uint32_t result;
 151:../../Drivers/CMSIS/Include/cmsis_gcc.h **** 
 152:../../Drivers/CMSIS/Include/cmsis_gcc.h ****   __ASM volatile ("MRS %0, psp\n"  : "=r" (result) );
 153:../../Drivers/CMSIS/Include/cmsis_gcc.h ****   return(result);
 154:../../Drivers/CMSIS/Include/cmsis_gcc.h **** }
 155:../../Drivers/CMSIS/Include/cmsis_gcc.h **** 
 156:../../Drivers/CMSIS/Include/cmsis_gcc.h **** 
 157:../../Drivers/CMSIS/Include/cmsis_gcc.h **** /**
 158:../../Drivers/CMSIS/Include/cmsis_gcc.h ****   \brief   Set Process Stack Pointer
 159:../../Drivers/CMSIS/Include/cmsis_gcc.h ****   \details Assigns the given value to the Process Stack Pointer (PSP).
 160:../../Drivers/CMSIS/Include/cmsis_gcc.h ****   \param [in]    topOfProcStack  Process Stack Pointer value to set
 161:../../Drivers/CMSIS/Include/cmsis_gcc.h ****  */
 162:../../Drivers/CMSIS/Include/cmsis_gcc.h **** __attribute__( ( always_inline ) ) __STATIC_INLINE void __set_PSP(uint32_t topOfProcStack)
 163:../../Drivers/CMSIS/Include/cmsis_gcc.h **** {
ARM GAS  /tmp/ccBBHnuc.s 			page 43


 164:../../Drivers/CMSIS/Include/cmsis_gcc.h ****   __ASM volatile ("MSR psp, %0\n" : : "r" (topOfProcStack) : "sp");
 165:../../Drivers/CMSIS/Include/cmsis_gcc.h **** }
 166:../../Drivers/CMSIS/Include/cmsis_gcc.h **** 
 167:../../Drivers/CMSIS/Include/cmsis_gcc.h **** 
 168:../../Drivers/CMSIS/Include/cmsis_gcc.h **** /**
 169:../../Drivers/CMSIS/Include/cmsis_gcc.h ****   \brief   Get Main Stack Pointer
 170:../../Drivers/CMSIS/Include/cmsis_gcc.h ****   \details Returns the current value of the Main Stack Pointer (MSP).
 171:../../Drivers/CMSIS/Include/cmsis_gcc.h ****   \return               MSP Register value
 172:../../Drivers/CMSIS/Include/cmsis_gcc.h ****  */
 173:../../Drivers/CMSIS/Include/cmsis_gcc.h **** __attribute__( ( always_inline ) ) __STATIC_INLINE uint32_t __get_MSP(void)
 174:../../Drivers/CMSIS/Include/cmsis_gcc.h **** {
 175:../../Drivers/CMSIS/Include/cmsis_gcc.h ****   register uint32_t result;
 176:../../Drivers/CMSIS/Include/cmsis_gcc.h **** 
 177:../../Drivers/CMSIS/Include/cmsis_gcc.h ****   __ASM volatile ("MRS %0, msp\n" : "=r" (result) );
 178:../../Drivers/CMSIS/Include/cmsis_gcc.h ****   return(result);
 179:../../Drivers/CMSIS/Include/cmsis_gcc.h **** }
 180:../../Drivers/CMSIS/Include/cmsis_gcc.h **** 
 181:../../Drivers/CMSIS/Include/cmsis_gcc.h **** 
 182:../../Drivers/CMSIS/Include/cmsis_gcc.h **** /**
 183:../../Drivers/CMSIS/Include/cmsis_gcc.h ****   \brief   Set Main Stack Pointer
 184:../../Drivers/CMSIS/Include/cmsis_gcc.h ****   \details Assigns the given value to the Main Stack Pointer (MSP).
 185:../../Drivers/CMSIS/Include/cmsis_gcc.h **** 
 186:../../Drivers/CMSIS/Include/cmsis_gcc.h ****     \param [in]    topOfMainStack  Main Stack Pointer value to set
 187:../../Drivers/CMSIS/Include/cmsis_gcc.h ****  */
 188:../../Drivers/CMSIS/Include/cmsis_gcc.h **** __attribute__( ( always_inline ) ) __STATIC_INLINE void __set_MSP(uint32_t topOfMainStack)
 189:../../Drivers/CMSIS/Include/cmsis_gcc.h **** {
 190:../../Drivers/CMSIS/Include/cmsis_gcc.h ****   __ASM volatile ("MSR msp, %0\n" : : "r" (topOfMainStack) : "sp");
 191:../../Drivers/CMSIS/Include/cmsis_gcc.h **** }
 192:../../Drivers/CMSIS/Include/cmsis_gcc.h **** 
 193:../../Drivers/CMSIS/Include/cmsis_gcc.h **** 
 194:../../Drivers/CMSIS/Include/cmsis_gcc.h **** /**
 195:../../Drivers/CMSIS/Include/cmsis_gcc.h ****   \brief   Get Priority Mask
 196:../../Drivers/CMSIS/Include/cmsis_gcc.h ****   \details Returns the current state of the priority mask bit from the Priority Mask Register.
 197:../../Drivers/CMSIS/Include/cmsis_gcc.h ****   \return               Priority Mask value
 198:../../Drivers/CMSIS/Include/cmsis_gcc.h ****  */
 199:../../Drivers/CMSIS/Include/cmsis_gcc.h **** __attribute__( ( always_inline ) ) __STATIC_INLINE uint32_t __get_PRIMASK(void)
 200:../../Drivers/CMSIS/Include/cmsis_gcc.h **** {
 201:../../Drivers/CMSIS/Include/cmsis_gcc.h ****   uint32_t result;
 202:../../Drivers/CMSIS/Include/cmsis_gcc.h **** 
 203:../../Drivers/CMSIS/Include/cmsis_gcc.h ****   __ASM volatile ("MRS %0, primask" : "=r" (result) );
 204:../../Drivers/CMSIS/Include/cmsis_gcc.h ****   return(result);
 205:../../Drivers/CMSIS/Include/cmsis_gcc.h **** }
 206:../../Drivers/CMSIS/Include/cmsis_gcc.h **** 
 207:../../Drivers/CMSIS/Include/cmsis_gcc.h **** 
 208:../../Drivers/CMSIS/Include/cmsis_gcc.h **** /**
 209:../../Drivers/CMSIS/Include/cmsis_gcc.h ****   \brief   Set Priority Mask
 210:../../Drivers/CMSIS/Include/cmsis_gcc.h ****   \details Assigns the given value to the Priority Mask Register.
 211:../../Drivers/CMSIS/Include/cmsis_gcc.h ****   \param [in]    priMask  Priority Mask
 212:../../Drivers/CMSIS/Include/cmsis_gcc.h ****  */
